libgs.so.9 libgs9 #MINVER#
 AlphaMaskBorderVals@Base 9.55.0~dfsg1-0ubuntu1
 BJL_command_set@Base 8.61.dfsg.1
 BlackPoint_default@Base 8.61.dfsg.1
 ClapTrap_Fin@Base 9.19~~rc1~dfsg
 ClapTrap_GetLine@Base 9.19~~rc1~dfsg
 ClapTrap_GetLinePlanar@Base 9.19~~rc1~dfsg
 ClapTrap_Init@Base 9.19~~rc1~dfsg
 Clear_CodeRange@Base 8.61.dfsg.1
 Context_Create@Base 8.61.dfsg.1
 Context_Destroy@Base 8.61.dfsg.1
 Context_Load@Base 8.61.dfsg.1
 Context_Run@Base 8.61.dfsg.1
 Context_Save@Base 8.61.dfsg.1
 ConvolveSamplingFactX@Base 9.55.0~dfsg1-0ubuntu1
 ConvolveSamplingFactY@Base 9.55.0~dfsg1-0ubuntu1
 DecodeABC_default@Base 8.61.dfsg.1
 DecodeABC_from_cache@Base 8.61.dfsg.1
 DecodeA_default@Base 8.61.dfsg.1
 DecodeA_from_cache@Base 8.61.dfsg.1
 DecodeDEFG_default@Base 8.61.dfsg.1
 DecodeDEFG_from_cache@Base 8.61.dfsg.1
 DecodeDEF_default@Base 8.61.dfsg.1
 DecodeDEF_from_cache@Base 8.61.dfsg.1
 DecodeLMN_default@Base 8.61.dfsg.1
 DecodeLMN_from_cache@Base 8.61.dfsg.1
 Default_GraphicsState@Base 8.61.dfsg.1
 DevCMYKOGComponents@Base 9.15~dfsg
 DeviceCMYKComponents@Base 8.61.dfsg.1
 DeviceGrayComponents@Base 9.27~dfsg
 DeviceRGBComponents@Base 9.27~dfsg
 DoubleGlyphList@Base 9.05~
 EncodeABC_from_cache@Base 8.61.dfsg.1
 EncodeLMN_from_cache@Base 8.61.dfsg.1
 Encode_default@Base 8.61.dfsg.1
 ExtGStateTable@Base 9.55.0~dfsg
 Face_Create@Base 8.61.dfsg.1
 Face_Destroy@Base 8.61.dfsg.1
 FloydSteinbergCloseC@Base 8.61.dfsg.1
 FloydSteinbergCloseG@Base 8.61.dfsg.1
 FloydSteinbergDitheringC@Base 8.61.dfsg.1
 FloydSteinbergDitheringG@Base 8.61.dfsg.1
 FloydSteinbergInitC@Base 8.61.dfsg.1
 FloydSteinbergInitG@Base 8.61.dfsg.1
 GDI_BAND_WIDTH@Base 8.61.dfsg.1
 Get_CodeRange@Base 8.61.dfsg.1
 Goto_CodeRange@Base 8.61.dfsg.1
 ImageFileFormatExtensions@Base 9.55.0~dfsg1-0ubuntu1
 Instance_Create@Base 8.61.dfsg.1
 Instance_Destroy@Base 8.61.dfsg.1
 Instance_Init@Base 8.61.dfsg.1
 Instance_Reset@Base 8.61.dfsg.1
 IsInWhiteList@Base 9.00~dfsg
 LeptDebugOK@Base 9.55.0~dfsg1-0ubuntu1
 LeptMsgSeverity@Base 9.55.0~dfsg1-0ubuntu1
 Load_TrueType_CVT@Base 8.61.dfsg.1
 Load_TrueType_MaxProfile@Base 8.61.dfsg.1
 Load_TrueType_Programs@Base 8.61.dfsg.1
 MORPH_BC@Base 9.55.0~dfsg1-0ubuntu1
 MacintoshOrdering@Base 9.28~~rc1~dfsg
 Matrix3_default@Base 8.61.dfsg.1
 MatrixA_default@Base 8.61.dfsg.1
 MaxInitPtraSize@Base 9.55.0~dfsg1-0ubuntu1
 Memento_adjustRef@Base 9.27~dfsg
 Memento_blockInfo@Base 9.54.0~dfsg
 Memento_breakAt@Base 9.04~dfsg
 Memento_breakOnFree@Base 9.06~dfsg
 Memento_breakOnRealloc@Base 9.06~dfsg
 Memento_breakpoint@Base 9.04~dfsg
 Memento_calloc@Base 9.04~dfsg
 Memento_check@Base 9.04~dfsg
 Memento_checkAllMemory@Base 9.04~dfsg
 Memento_checkBlock@Base 9.04~dfsg
 Memento_dropRef@Base 9.20~dfsg
 Memento_failAt@Base 9.04~dfsg
 Memento_find@Base 9.04~dfsg
 Memento_free@Base 9.04~dfsg
 Memento_getBlockNum@Base 9.04~dfsg
 Memento_info@Base 9.19~~rc1~dfsg
 Memento_label@Base 9.06~dfsg
 Memento_listBlockInfo@Base 9.19~~rc1~dfsg
 Memento_listBlocks@Base 9.05~
 Memento_listNewBlocks@Base 9.05~
 Memento_malloc@Base 9.04~dfsg
 Memento_paranoidAt@Base 9.04~dfsg
 Memento_realloc@Base 9.04~dfsg
 Memento_reference@Base 9.20~dfsg
 Memento_setMax@Base 9.06~dfsg
 Memento_setParanoia@Base 9.04~dfsg
 Memento_squeezing@Base 9.51~dfsg
 Memento_startLeaking@Base 9.20~dfsg
 Memento_stats@Base 9.06~dfsg
 Memento_stopLeaking@Base 9.20~dfsg
 Memento_takeRef@Base 9.20~dfsg
 MulDiv_Round@Base 8.61.dfsg.1
 NumImageFileFormatExtensions@Base 9.55.0~dfsg1-0ubuntu1
 PCLm_close@Base 9.25~dfsg
 PCLm_get_initial_matrix@Base 9.55.0~dfsg
 PCLm_open@Base 9.25~dfsg
 QuadGlyphList@Base 9.05~
 Range3_default@Base 8.61.dfsg.1
 Range4_default@Base 8.61.dfsg.1
 RangeA_default@Base 8.61.dfsg.1
 RenderTableT_default@Base 8.61.dfsg.1
 RenderTableT_from_cache@Base 8.61.dfsg.1
 RunIns@Base 8.61.dfsg.1
 SaveScanData@Base 8.61.dfsg.1
 Scale_X@Base 8.61.dfsg.1
 Scale_Y@Base 8.61.dfsg.1
 Set_CodeRange@Base 8.61.dfsg.1
 SingleGlyphList@Base 9.05~
 Sqrt64@Base 8.61.dfsg.1
 TT_Set_Instance_CharSizes@Base 8.61.dfsg.1
 TessAltoRendererCreate@Base 9.55.0~dfsg1-0ubuntu1
 TessBaseAPIAdaptToWordStr@Base 9.55.0~dfsg1-0ubuntu1
 TessBaseAPIAllWordConfidences@Base 9.55.0~dfsg1-0ubuntu1
 TessBaseAPIAnalyseLayout@Base 9.55.0~dfsg1-0ubuntu1
 TessBaseAPIClear@Base 9.55.0~dfsg1-0ubuntu1
 TessBaseAPIClearAdaptiveClassifier@Base 9.55.0~dfsg1-0ubuntu1
 TessBaseAPICreate@Base 9.55.0~dfsg1-0ubuntu1
 TessBaseAPIDelete@Base 9.55.0~dfsg1-0ubuntu1
 TessBaseAPIEnd@Base 9.55.0~dfsg1-0ubuntu1
 TessBaseAPIGetAltoText@Base 9.55.0~dfsg1-0ubuntu1
 TessBaseAPIGetAvailableLanguagesAsVector@Base 9.55.0~dfsg1-0ubuntu1
 TessBaseAPIGetBoolVariable@Base 9.55.0~dfsg1-0ubuntu1
 TessBaseAPIGetBoxText@Base 9.55.0~dfsg1-0ubuntu1
 TessBaseAPIGetComponentImages1@Base 9.55.0~dfsg1-0ubuntu1
 TessBaseAPIGetComponentImages@Base 9.55.0~dfsg1-0ubuntu1
 TessBaseAPIGetConnectedComponents@Base 9.55.0~dfsg1-0ubuntu1
 TessBaseAPIGetDatapath@Base 9.55.0~dfsg1-0ubuntu1
 TessBaseAPIGetDoubleVariable@Base 9.55.0~dfsg1-0ubuntu1
 TessBaseAPIGetHOCRText@Base 9.55.0~dfsg1-0ubuntu1
 TessBaseAPIGetInitLanguagesAsString@Base 9.55.0~dfsg1-0ubuntu1
 TessBaseAPIGetInputImage@Base 9.55.0~dfsg1-0ubuntu1
 TessBaseAPIGetInputName@Base 9.55.0~dfsg1-0ubuntu1
 TessBaseAPIGetIntVariable@Base 9.55.0~dfsg1-0ubuntu1
 TessBaseAPIGetIterator@Base 9.55.0~dfsg1-0ubuntu1
 TessBaseAPIGetLSTMBoxText@Base 9.55.0~dfsg1-0ubuntu1
 TessBaseAPIGetLoadedLanguagesAsVector@Base 9.55.0~dfsg1-0ubuntu1
 TessBaseAPIGetMutableIterator@Base 9.55.0~dfsg1-0ubuntu1
 TessBaseAPIGetOpenCLDevice@Base 9.55.0~dfsg1-0ubuntu1
 TessBaseAPIGetPageSegMode@Base 9.55.0~dfsg1-0ubuntu1
 TessBaseAPIGetRegions@Base 9.55.0~dfsg1-0ubuntu1
 TessBaseAPIGetSourceYResolution@Base 9.55.0~dfsg1-0ubuntu1
 TessBaseAPIGetStringVariable@Base 9.55.0~dfsg1-0ubuntu1
 TessBaseAPIGetStrips@Base 9.55.0~dfsg1-0ubuntu1
 TessBaseAPIGetTextDirection@Base 9.55.0~dfsg1-0ubuntu1
 TessBaseAPIGetTextlines1@Base 9.55.0~dfsg1-0ubuntu1
 TessBaseAPIGetTextlines@Base 9.55.0~dfsg1-0ubuntu1
 TessBaseAPIGetThresholdedImage@Base 9.55.0~dfsg1-0ubuntu1
 TessBaseAPIGetThresholdedImageScaleFactor@Base 9.55.0~dfsg1-0ubuntu1
 TessBaseAPIGetTsvText@Base 9.55.0~dfsg1-0ubuntu1
 TessBaseAPIGetUNLVText@Base 9.55.0~dfsg1-0ubuntu1
 TessBaseAPIGetUTF8Text@Base 9.55.0~dfsg1-0ubuntu1
 TessBaseAPIGetUnichar@Base 9.55.0~dfsg1-0ubuntu1
 TessBaseAPIGetWordStrBoxText@Base 9.55.0~dfsg1-0ubuntu1
 TessBaseAPIGetWords@Base 9.55.0~dfsg1-0ubuntu1
 TessBaseAPIInit1@Base 9.55.0~dfsg1-0ubuntu1
 TessBaseAPIInit2@Base 9.55.0~dfsg1-0ubuntu1
 TessBaseAPIInit3@Base 9.55.0~dfsg1-0ubuntu1
 TessBaseAPIInit4@Base 9.55.0~dfsg1-0ubuntu1
 TessBaseAPIInitForAnalysePage@Base 9.55.0~dfsg1-0ubuntu1
 TessBaseAPIInitLangMod@Base 9.55.0~dfsg1-0ubuntu1
 TessBaseAPIIsValidWord@Base 9.55.0~dfsg1-0ubuntu1
 TessBaseAPIMeanTextConf@Base 9.55.0~dfsg1-0ubuntu1
 TessBaseAPIPrintVariables@Base 9.55.0~dfsg1-0ubuntu1
 TessBaseAPIPrintVariablesToFile@Base 9.55.0~dfsg1-0ubuntu1
 TessBaseAPIProcessPage@Base 9.55.0~dfsg1-0ubuntu1
 TessBaseAPIProcessPages@Base 9.55.0~dfsg1-0ubuntu1
 TessBaseAPIReadConfigFile@Base 9.55.0~dfsg1-0ubuntu1
 TessBaseAPIReadDebugConfigFile@Base 9.55.0~dfsg1-0ubuntu1
 TessBaseAPIRecognize@Base 9.55.0~dfsg1-0ubuntu1
 TessBaseAPIRect@Base 9.55.0~dfsg1-0ubuntu1
 TessBaseAPISetDebugVariable@Base 9.55.0~dfsg1-0ubuntu1
 TessBaseAPISetImage2@Base 9.55.0~dfsg1-0ubuntu1
 TessBaseAPISetImage@Base 9.55.0~dfsg1-0ubuntu1
 TessBaseAPISetInputImage@Base 9.55.0~dfsg1-0ubuntu1
 TessBaseAPISetInputName@Base 9.55.0~dfsg1-0ubuntu1
 TessBaseAPISetMinOrientationMargin@Base 9.55.0~dfsg1-0ubuntu1
 TessBaseAPISetOutputName@Base 9.55.0~dfsg1-0ubuntu1
 TessBaseAPISetPageSegMode@Base 9.55.0~dfsg1-0ubuntu1
 TessBaseAPISetRectangle@Base 9.55.0~dfsg1-0ubuntu1
 TessBaseAPISetSourceResolution@Base 9.55.0~dfsg1-0ubuntu1
 TessBaseAPISetVariable@Base 9.55.0~dfsg1-0ubuntu1
 TessBoxTextRendererCreate@Base 9.55.0~dfsg1-0ubuntu1
 TessChoiceIteratorConfidence@Base 9.55.0~dfsg1-0ubuntu1
 TessChoiceIteratorDelete@Base 9.55.0~dfsg1-0ubuntu1
 TessChoiceIteratorGetUTF8Text@Base 9.55.0~dfsg1-0ubuntu1
 TessChoiceIteratorNext@Base 9.55.0~dfsg1-0ubuntu1
 TessDeleteIntArray@Base 9.55.0~dfsg1-0ubuntu1
 TessDeleteResultRenderer@Base 9.55.0~dfsg1-0ubuntu1
 TessDeleteText@Base 9.55.0~dfsg1-0ubuntu1
 TessDeleteTextArray@Base 9.55.0~dfsg1-0ubuntu1
 TessHOcrRendererCreate2@Base 9.55.0~dfsg1-0ubuntu1
 TessHOcrRendererCreate@Base 9.55.0~dfsg1-0ubuntu1
 TessLSTMBoxRendererCreate@Base 9.55.0~dfsg1-0ubuntu1
 TessMonitorCreate@Base 9.55.0~dfsg1-0ubuntu1
 TessMonitorDelete@Base 9.55.0~dfsg1-0ubuntu1
 TessMonitorGetCancelThis@Base 9.55.0~dfsg1-0ubuntu1
 TessMonitorGetProgress@Base 9.55.0~dfsg1-0ubuntu1
 TessMonitorSetCancelFunc@Base 9.55.0~dfsg1-0ubuntu1
 TessMonitorSetCancelThis@Base 9.55.0~dfsg1-0ubuntu1
 TessMonitorSetDeadlineMSecs@Base 9.55.0~dfsg1-0ubuntu1
 TessMonitorSetProgressFunc@Base 9.55.0~dfsg1-0ubuntu1
 TessPDFRendererCreate@Base 9.55.0~dfsg1-0ubuntu1
 TessPageIteratorBaseline@Base 9.55.0~dfsg1-0ubuntu1
 TessPageIteratorBegin@Base 9.55.0~dfsg1-0ubuntu1
 TessPageIteratorBlockType@Base 9.55.0~dfsg1-0ubuntu1
 TessPageIteratorBoundingBox@Base 9.55.0~dfsg1-0ubuntu1
 TessPageIteratorCopy@Base 9.55.0~dfsg1-0ubuntu1
 TessPageIteratorDelete@Base 9.55.0~dfsg1-0ubuntu1
 TessPageIteratorGetBinaryImage@Base 9.55.0~dfsg1-0ubuntu1
 TessPageIteratorGetImage@Base 9.55.0~dfsg1-0ubuntu1
 TessPageIteratorIsAtBeginningOf@Base 9.55.0~dfsg1-0ubuntu1
 TessPageIteratorIsAtFinalElement@Base 9.55.0~dfsg1-0ubuntu1
 TessPageIteratorNext@Base 9.55.0~dfsg1-0ubuntu1
 TessPageIteratorOrientation@Base 9.55.0~dfsg1-0ubuntu1
 TessPageIteratorParagraphInfo@Base 9.55.0~dfsg1-0ubuntu1
 TessResultIteratorConfidence@Base 9.55.0~dfsg1-0ubuntu1
 TessResultIteratorCopy@Base 9.55.0~dfsg1-0ubuntu1
 TessResultIteratorDelete@Base 9.55.0~dfsg1-0ubuntu1
 TessResultIteratorGetChoiceIterator@Base 9.55.0~dfsg1-0ubuntu1
 TessResultIteratorGetPageIterator@Base 9.55.0~dfsg1-0ubuntu1
 TessResultIteratorGetPageIteratorConst@Base 9.55.0~dfsg1-0ubuntu1
 TessResultIteratorGetUTF8Text@Base 9.55.0~dfsg1-0ubuntu1
 TessResultIteratorNext@Base 9.55.0~dfsg1-0ubuntu1
 TessResultIteratorSymbolIsDropcap@Base 9.55.0~dfsg1-0ubuntu1
 TessResultIteratorSymbolIsSubscript@Base 9.55.0~dfsg1-0ubuntu1
 TessResultIteratorSymbolIsSuperscript@Base 9.55.0~dfsg1-0ubuntu1
 TessResultIteratorWordFontAttributes@Base 9.55.0~dfsg1-0ubuntu1
 TessResultIteratorWordIsFromDictionary@Base 9.55.0~dfsg1-0ubuntu1
 TessResultIteratorWordIsNumeric@Base 9.55.0~dfsg1-0ubuntu1
 TessResultIteratorWordRecognitionLanguage@Base 9.55.0~dfsg1-0ubuntu1
 TessResultRendererAddImage@Base 9.55.0~dfsg1-0ubuntu1
 TessResultRendererBeginDocument@Base 9.55.0~dfsg1-0ubuntu1
 TessResultRendererEndDocument@Base 9.55.0~dfsg1-0ubuntu1
 TessResultRendererExtention@Base 9.55.0~dfsg1-0ubuntu1
 TessResultRendererImageNum@Base 9.55.0~dfsg1-0ubuntu1
 TessResultRendererInsert@Base 9.55.0~dfsg1-0ubuntu1
 TessResultRendererNext@Base 9.55.0~dfsg1-0ubuntu1
 TessResultRendererTitle@Base 9.55.0~dfsg1-0ubuntu1
 TessTextRendererCreate@Base 9.55.0~dfsg1-0ubuntu1
 TessTsvRendererCreate@Base 9.55.0~dfsg1-0ubuntu1
 TessUnlvRendererCreate@Base 9.55.0~dfsg1-0ubuntu1
 TessVersion@Base 9.55.0~dfsg1-0ubuntu1
 TessWordStrBoxRendererCreate@Base 9.55.0~dfsg1-0ubuntu1
 TransformPQR_default@Base 8.61.dfsg.1
 TransformPQR_from_cache@Base 8.61.dfsg.1
 TransformPQR_lookup_proc_name@Base 8.61.dfsg.1
 TrebleGlyphList@Base 9.05~
 Unset_CodeRange@Base 8.61.dfsg.1
 UpdateScanLine@Base 8.61.dfsg.1
 UpdateScanSize@Base 8.61.dfsg.1
 WRF_init@Base 9.19~~rc1~dfsg
 WRF_wbyte@Base 9.19~~rc1~dfsg
 WRF_wfloat@Base 9.19~~rc1~dfsg
 WRF_wint@Base 9.19~~rc1~dfsg
 WRF_wstring@Base 9.19~~rc1~dfsg
 WRF_wtext@Base 9.19~~rc1~dfsg
 _Z15DistanceBetween6FPOINTS_@Base 9.55.0~dfsg1-0ubuntu1
 _Z19NormalizedAngleFromP6FPOINTS0_f@Base 9.55.0~dfsg1-0ubuntu1
 _Z7tfscanfP8_IO_FILEPKcz@Base 9.55.0~dfsg1-0ubuntu1
 _ZN9tesseract10AddFeatureEPNS_18FEATURE_SET_STRUCTEPNS_14FEATURE_STRUCTE@Base 9.55.0~dfsg1-0ubuntu1
 _ZN9tesseract10BLOCK_LIST9deep_copyEPKS0_PFPNS_5BLOCKEPKS3_E@Base 9.55.0~dfsg1-0ubuntu1
 _ZN9tesseract10Bucket8ForEffi@Base 9.55.0~dfsg1-0ubuntu1
 _ZN9tesseract10ColSegment8set_typeEv@Base 9.55.0~dfsg1-0ubuntu1
 _ZN9tesseract10ColSegment9InsertBoxERKNS_4TBOXE@Base 9.55.0~dfsg1-0ubuntu1
 _ZN9tesseract10ColSegmentC1Ev@Base 9.55.0~dfsg1-0ubuntu1
 _ZN9tesseract10ColSegmentC2Ev@Base 9.55.0~dfsg1-0ubuntu1
 _ZN9tesseract10DawgLoader4LoadEv@Base 9.55.0~dfsg1-0ubuntu1
 _ZN9tesseract10DetLineFit14ConstrainedFitERKNS_6FCOORDEddbPNS_6ICOORDE@Base 9.55.0~dfsg1-0ubuntu1
 _ZN9tesseract10DetLineFit14ConstrainedFitEdPf@Base 9.55.0~dfsg1-0ubuntu1
 _ZN9tesseract10DetLineFit15EvaluateLineFitEv@Base 9.55.0~dfsg1-0ubuntu1
 _ZN9tesseract10DetLineFit16ComputeDistancesERKNS_6ICOORDES3_@Base 9.55.0~dfsg1-0ubuntu1
 _ZN9tesseract10DetLineFit25ComputeUpperQuartileErrorEv@Base 9.55.0~dfsg1-0ubuntu1
 _ZN9tesseract10DetLineFit27ComputeConstrainedDistancesERKNS_6FCOORDEdd@Base 9.55.0~dfsg1-0ubuntu1
 _ZN9tesseract10DetLineFit3AddERKNS_6ICOORDE@Base 9.55.0~dfsg1-0ubuntu1
 _ZN9tesseract10DetLineFit3AddERKNS_6ICOORDEi@Base 9.55.0~dfsg1-0ubuntu1
 _ZN9tesseract10DetLineFit3FitEPfS1_@Base 9.55.0~dfsg1-0ubuntu1
 _ZN9tesseract10DetLineFit3FitEiiPNS_6ICOORDES2_@Base 9.55.0~dfsg1-0ubuntu1
 _ZN9tesseract10DetLineFit5ClearEv@Base 9.55.0~dfsg1-0ubuntu1
 _ZN9tesseract10DetLineFitC1Ev@Base 9.55.0~dfsg1-0ubuntu1
 _ZN9tesseract10DetLineFitC2Ev@Base 9.55.0~dfsg1-0ubuntu1
 _ZN9tesseract10DotProductE@Base 9.55.0~dfsg1-0ubuntu1
 _ZN9tesseract10ETEXT_DESC21default_progress_funcEPS0_iiii@Base 9.55.0~dfsg1-0ubuntu1
 _ZN9tesseract10FPAnalyzer13EstimatePitchEb@Base 9.55.0~dfsg1-0ubuntu1
 _ZN9tesseract10FPAnalyzerC1ENS_6ICOORDEPNS_13TO_BLOCK_LISTE@Base 9.55.0~dfsg1-0ubuntu1
 _ZN9tesseract10FPAnalyzerC2ENS_6ICOORDEPNS_13TO_BLOCK_LISTE@Base 9.55.0~dfsg1-0ubuntu1
 _ZN9tesseract10FillerDoneEPNS_12TABLE_FILLERE@Base 9.55.0~dfsg1-0ubuntu1
 _ZN9tesseract10FreeKDNodeEPNS_6KDNODEE@Base 9.55.0~dfsg1-0ubuntu1
 _ZN9tesseract10FreeKDTreeEPNS_6KDTREEE@Base 9.55.0~dfsg1-0ubuntu1
 _ZN9tesseract10HOcrEscapeB5cxx11EPKc@Base 9.55.0~dfsg1-0ubuntu1
 _ZN9tesseract10LineFinder12GetLineBoxesEbP3PixS2_PNS_11C_BLOB_LISTEPNS_13BLOBNBOX_LISTE@Base 9.55.0~dfsg1-0ubuntu1
 _ZN9tesseract10LineFinder12GetLineMasksEiP3PixPS2_S3_S3_S3_S3_S3_P4Pixa@Base 9.55.0~dfsg1-0ubuntu1
 _ZN9tesseract10LineFinder15FindLineVectorsERKNS_6ICOORDES3_PNS_13BLOBNBOX_LISTEPiS6_PNS_14TabVector_LISTE@Base 9.55.0~dfsg1-0ubuntu1
 _ZN9tesseract10LineFinder18ConvertBoxaToBlobsEiiPP4BoxaPNS_11C_BLOB_LISTE@Base 9.55.0~dfsg1-0ubuntu1
 _ZN9tesseract10LineFinder18FindAndRemoveLinesEibP3PixPiS3_PS2_PNS_14TabVector_LISTES6_@Base 9.55.0~dfsg1-0ubuntu1
 _ZN9tesseract10LineFinder19FindAndRemoveHLinesEiP3PixiiPS2_S2_S2_PNS_14TabVector_LISTE@Base 9.55.0~dfsg1-0ubuntu1
 _ZN9tesseract10LineFinder19FindAndRemoveVLinesEiP3PixPiS3_PS2_S2_S2_PNS_14TabVector_LISTE@Base 9.55.0~dfsg1-0ubuntu1
 _ZN9tesseract10MakeKDNodeEPNS_6KDTREEEPfPvi@Base 9.55.0~dfsg1-0ubuntu1
 _ZN9tesseract10MakeKDTreeEsPKNS_10PARAM_DESCE@Base 9.55.0~dfsg1-0ubuntu1
 _ZN9tesseract10MakeSampleEPNS_9CLUSTEREREPKfi@Base 9.55.0~dfsg1-0ubuntu1
 _ZN9tesseract10NewFeatureEPKNS_19FEATURE_DESC_STRUCTE@Base 9.55.0~dfsg1-0ubuntu1
 _ZN9tesseract10NextSampleEPPNS_8list_recE@Base 9.55.0~dfsg1-0ubuntu1
 _ZN9tesseract10OL_BUCKETS14count_childrenEPNS_9C_OUTLINEEi@Base 9.55.0~dfsg1-0ubuntu1
 _ZN9tesseract10OL_BUCKETS16extract_childrenEPNS_9C_OUTLINEEPNS_12C_OUTLINE_ITE@Base 9.55.0~dfsg1-0ubuntu1
 _ZN9tesseract10OL_BUCKETS18outline_complexityEPNS_9C_OUTLINEEis@Base 9.55.0~dfsg1-0ubuntu1
 _ZN9tesseract10OL_BUCKETSC1ENS_6ICOORDES1_@Base 9.55.0~dfsg1-0ubuntu1
 _ZN9tesseract10OL_BUCKETSC2ENS_6ICOORDES1_@Base 9.55.0~dfsg1-0ubuntu1
 _ZN9tesseract10OL_BUCKETSclEss@Base 9.55.0~dfsg1-0ubuntu1
 _ZN9tesseract10PB_LINE_IT8get_lineEs@Base 9.55.0~dfsg1-0ubuntu1
 _ZN9tesseract10POLY_BLOCK10compute_bbEv@Base 9.55.0~dfsg1-0ubuntu1
 _ZN9tesseract10POLY_BLOCK14winding_numberERKNS_6ICOORDE@Base 9.55.0~dfsg1-0ubuntu1
 _ZN9tesseract10POLY_BLOCK17reflect_in_y_axisEv@Base 9.55.0~dfsg1-0ubuntu1
 _ZN9tesseract10POLY_BLOCK4moveENS_6ICOORDE@Base 9.55.0~dfsg1-0ubuntu1
 _ZN9tesseract10POLY_BLOCK6rotateENS_6FCOORDE@Base 9.55.0~dfsg1-0ubuntu1
 _ZN9tesseract10POLY_BLOCK7overlapEPS0_@Base 9.55.0~dfsg1-0ubuntu1
 _ZN9tesseract10POLY_BLOCK8containsEPS0_@Base 9.55.0~dfsg1-0ubuntu1
 _ZN9tesseract10POLY_BLOCKC1EPNS_14ICOORDELT_LISTENS_13PolyBlockTypeE@Base 9.55.0~dfsg1-0ubuntu1
 _ZN9tesseract10POLY_BLOCKC1ERKNS_4TBOXENS_13PolyBlockTypeE@Base 9.55.0~dfsg1-0ubuntu1
 _ZN9tesseract10POLY_BLOCKC2EPNS_14ICOORDELT_LISTENS_13PolyBlockTypeE@Base 9.55.0~dfsg1-0ubuntu1
 _ZN9tesseract10POLY_BLOCKC2ERKNS_4TBOXENS_13PolyBlockTypeE@Base 9.55.0~dfsg1-0ubuntu1
 _ZN9tesseract10ParamUtils11PrintParamsEP8_IO_FILEPKNS_13ParamsVectorsE@Base 9.55.0~dfsg1-0ubuntu1
 _ZN9tesseract10ParamUtils14ReadParamsFileEPKcNS_18SetParamConstraintEPNS_13ParamsVectorsE@Base 9.55.0~dfsg1-0ubuntu1
 _ZN9tesseract10ParamUtils15ResetToDefaultsEPNS_13ParamsVectorsE@Base 9.55.0~dfsg1-0ubuntu1
 _ZN9tesseract10ParamUtils16GetParamAsStringEPKcPKNS_13ParamsVectorsEPNSt7__cxx1112basic_stringIcSt11char_traitsIcESaIcEEE@Base 9.55.0~dfsg1-0ubuntu1
 _ZN9tesseract10ParamUtils16ReadParamsFromFpENS_18SetParamConstraintEPNS_5TFileEPNS_13ParamsVectorsE@Base 9.55.0~dfsg1-0ubuntu1
 _ZN9tesseract10ParamUtils8SetParamEPKcS2_NS_18SetParamConstraintEPNS_13ParamsVectorsE@Base 9.55.0~dfsg1-0ubuntu1
 _ZN9tesseract10ROW_zapperEPNS_10ELIST_LINKE@Base 9.55.0~dfsg1-0ubuntu1
 _ZN9tesseract10SIMDDetect15neon_available_E@Base 9.55.0~dfsg1-0ubuntu5.9
 _ZN9tesseract10SIMDDetect6UpdateEv@Base 9.55.0~dfsg1-0ubuntu1
 _ZN9tesseract10SIMDDetect8detectorE@Base 9.55.0~dfsg1-0ubuntu1
 _ZN9tesseract10SIMDDetectC1Ev@Base 9.55.0~dfsg1-0ubuntu1
 _ZN9tesseract10SIMDDetectC2Ev@Base 9.55.0~dfsg1-0ubuntu1
 _ZN9tesseract10ScrollViewD1Ev@Base 9.55.0~dfsg1-0ubuntu1
 _ZN9tesseract10ScrollViewD2Ev@Base 9.55.0~dfsg1-0ubuntu1
 _ZN9tesseract10ShapeTable10AddToShapeEiii@Base 9.55.0~dfsg1-0ubuntu1
 _ZN9tesseract10ShapeTable10SwapShapesEii@Base 9.55.0~dfsg1-0ubuntu1
 _ZN9tesseract10ShapeTable11DeSerializeEPNS_5TFileE@Base 9.55.0~dfsg1-0ubuntu1
 _ZN9tesseract10ShapeTable11DeleteShapeEi@Base 9.55.0~dfsg1-0ubuntu1
 _ZN9tesseract10ShapeTable11MergeShapesEii@Base 9.55.0~dfsg1-0ubuntu1
 _ZN9tesseract10ShapeTable13ReMapClassIdsERKNS_13GenericVectorIiEE@Base 9.55.0~dfsg1-0ubuntu1
 _ZN9tesseract10ShapeTable14BuildFromShapeERKNS_5ShapeERKS0_@Base 9.55.0~dfsg1-0ubuntu1
 _ZN9tesseract10ShapeTable15AddShapeToShapeEiRKNS_5ShapeE@Base 9.55.0~dfsg1-0ubuntu1
 _ZN9tesseract10ShapeTable15ForceFontMergesEii@Base 9.55.0~dfsg1-0ubuntu1
 _ZN9tesseract10ShapeTable18AppendMasterShapesERKS0_PNS_13GenericVectorIiEE@Base 9.55.0~dfsg1-0ubuntu1
 _ZN9tesseract10ShapeTable8AddShapeERKNS_5ShapeE@Base 9.55.0~dfsg1-0ubuntu1
 _ZN9tesseract10ShapeTable8AddShapeEii@Base 9.55.0~dfsg1-0ubuntu1
 _ZN9tesseract10ShapeTableC1ERKNS_10UNICHARSETE@Base 9.55.0~dfsg1-0ubuntu1
 _ZN9tesseract10ShapeTableC1Ev@Base 9.55.0~dfsg1-0ubuntu1
 _ZN9tesseract10ShapeTableC2ERKNS_10UNICHARSETE@Base 9.55.0~dfsg1-0ubuntu1
 _ZN9tesseract10ShapeTableC2Ev@Base 9.55.0~dfsg1-0ubuntu1
 _ZN9tesseract10UNICHARMAP15UNICHARMAP_NODEC1Ev@Base 9.55.0~dfsg1-0ubuntu1
 _ZN9tesseract10UNICHARMAP15UNICHARMAP_NODEC2Ev@Base 9.55.0~dfsg1-0ubuntu1
 _ZN9tesseract10UNICHARMAP15UNICHARMAP_NODED1Ev@Base 9.55.0~dfsg1-0ubuntu1
 _ZN9tesseract10UNICHARMAP15UNICHARMAP_NODED2Ev@Base 9.55.0~dfsg1-0ubuntu1
 _ZN9tesseract10UNICHARMAP5clearEv@Base 9.55.0~dfsg1-0ubuntu1
 _ZN9tesseract10UNICHARMAP6insertEPKci@Base 9.55.0~dfsg1-0ubuntu1
 _ZN9tesseract10UNICHARMAPC1Ev@Base 9.55.0~dfsg1-0ubuntu1
 _ZN9tesseract10UNICHARMAPC2Ev@Base 9.55.0~dfsg1-0ubuntu1
 _ZN9tesseract10UNICHARMAPD1Ev@Base 9.55.0~dfsg1-0ubuntu1
 _ZN9tesseract10UNICHARMAPD2Ev@Base 9.55.0~dfsg1-0ubuntu1
 _ZN9tesseract10UNICHARSET10add_scriptEPKc@Base 9.55.0~dfsg1-0ubuntu1
 _ZN9tesseract10UNICHARSET11null_scriptE@Base 9.55.0~dfsg1-0ubuntu1
 _ZN9tesseract10UNICHARSET12kCleanupMapsE@Base 9.55.0~dfsg1-0ubuntu1
 _ZN9tesseract10UNICHARSET13CleanupStringB5cxx11EPKcm@Base 9.55.0~dfsg1-0ubuntu1
 _ZN9tesseract10UNICHARSET14debug_utf8_strEPKc@Base 9.55.0~dfsg1-0ubuntu1
 _ZN9tesseract10UNICHARSET14load_from_fileEP8_IO_FILEb@Base 9.55.0~dfsg1-0ubuntu1
 _ZN9tesseract10UNICHARSET14load_from_fileEPNS_5TFileEb@Base 9.55.0~dfsg1-0ubuntu1
 _ZN9tesseract10UNICHARSET14load_via_fgetsESt8functionIFPcS2_iEEb@Base 9.55.0~dfsg1-0ubuntu1
 _ZN9tesseract10UNICHARSET14set_normed_idsEi@Base 9.55.0~dfsg1-0ubuntu1
 _ZN9tesseract10UNICHARSET14unichar_insertEPKcNS_18OldUncleanUnicharsE@Base 9.55.0~dfsg1-0ubuntu1
 _ZN9tesseract10UNICHARSET15post_load_setupEv@Base 9.55.0~dfsg1-0ubuntu1
 _ZN9tesseract10UNICHARSET16kCustomLigaturesE@Base 9.55.0~dfsg1-0ubuntu1
 _ZN9tesseract10UNICHARSET16set_ranges_emptyEv@Base 9.55.0~dfsg1-0ubuntu1
 _ZN9tesseract10UNICHARSET18UNICHAR_PROPERTIES13SetRangesOpenEv@Base 9.55.0~dfsg1-0ubuntu1
 _ZN9tesseract10UNICHARSET18UNICHAR_PROPERTIES14SetRangesEmptyEv@Base 9.55.0~dfsg1-0ubuntu1
 _ZN9tesseract10UNICHARSET18UNICHAR_PROPERTIES16ExpandRangesFromERKS1_@Base 9.55.0~dfsg1-0ubuntu1
 _ZN9tesseract10UNICHARSET18UNICHAR_PROPERTIES4InitEv@Base 9.55.0~dfsg1-0ubuntu1
 _ZN9tesseract10UNICHARSET18UNICHAR_PROPERTIES8CopyFromERKS1_@Base 9.55.0~dfsg1-0ubuntu1
 _ZN9tesseract10UNICHARSET18UNICHAR_PROPERTIESC1Ev@Base 9.55.0~dfsg1-0ubuntu1
 _ZN9tesseract10UNICHARSET18UNICHAR_PROPERTIESC2Ev@Base 9.55.0~dfsg1-0ubuntu1
 _ZN9tesseract10UNICHARSET20kSpecialUnicharCodesE@Base 9.55.0~dfsg1-0ubuntu1
 _ZN9tesseract10UNICHARSET21AppendOtherUnicharsetERKS0_@Base 9.55.0~dfsg1-0ubuntu1
 _ZN9tesseract10UNICHARSET21ExpandRangesFromOtherERKS0_@Base 9.55.0~dfsg1-0ubuntu1
 _ZN9tesseract10UNICHARSET23set_black_and_whitelistEPKcS2_S2_@Base 9.55.0~dfsg1-0ubuntu1
 _ZN9tesseract10UNICHARSET29PartialSetPropertiesFromOtherEiRKS0_@Base 9.55.0~dfsg1-0ubuntu1
 _ZN9tesseract10UNICHARSET8CopyFromERKS0_@Base 9.55.0~dfsg1-0ubuntu1
 _ZN9tesseract10UNICHARSETC1Ev@Base 9.55.0~dfsg1-0ubuntu1
 _ZN9tesseract10UNICHARSETC2Ev@Base 9.55.0~dfsg1-0ubuntu1
 _ZN9tesseract10UNICHARSETD1Ev@Base 9.55.0~dfsg1-0ubuntu1
 _ZN9tesseract10UNICHARSETD2Ev@Base 9.55.0~dfsg1-0ubuntu1
 _ZN9tesseract10UnicodeForEPKNS_10UNICHARSETEPKNS_11WERD_CHOICEEi@Base 9.55.0~dfsg1-0ubuntu1
 _ZN9tesseract10color_listE@Base 9.55.0~dfsg1-0ubuntu1
 _ZN9tesseract10get_ydiffsEPNS_4TBOXEiPNS_7QSPLINEEPf@Base 9.55.0~dfsg1-0ubuntu1
 _ZN9tesseract10kCrownLeftE@Base 9.55.0~dfsg1-0ubuntu1
 _ZN9tesseract10make_wordsEPNS_7TextordENS_6ICOORDEfPNS_10BLOCK_LISTEPNS_13TO_BLOCK_LISTE@Base 9.55.0~dfsg1-0ubuntu1
 _ZN9tesseract10row_words2EPNS_8TO_BLOCKEPNS_6TO_ROWEiNS_6FCOORDEb@Base 9.55.0~dfsg1-0ubuntu1
 _ZN9tesseract10write_infoEP8_IO_FILERKNS_8FontInfoE@Base 9.55.0~dfsg1-0ubuntu1
 _ZN9tesseract11AddIntClassEPNS_20INT_TEMPLATES_STRUCTEiPNS_16INT_CLASS_STRUCTE@Base 9.55.0~dfsg1-0ubuntu1
 _ZN9tesseract11AddIntProtoEPNS_16INT_CLASS_STRUCTE@Base 9.55.0~dfsg1-0ubuntu1
 _ZN9tesseract11AlignedBlob15FindAlignedBlobERKNS_17AlignedBlobParamsEbPNS_8BLOBNBOXEiPi@Base 9.55.0~dfsg1-0ubuntu1
 _ZN9tesseract11AlignedBlob16WithinTestRegionEiii@Base 9.55.0~dfsg1-0ubuntu1
 _ZN9tesseract11AlignedBlob21FindVerticalAlignmentENS_17AlignedBlobParamsEPNS_8BLOBNBOXEPiS4_@Base 9.55.0~dfsg1-0ubuntu1
 _ZN9tesseract11AlignedBlob9AlignTabsERKNS_17AlignedBlobParamsEbPNS_8BLOBNBOXEPNS_14BLOBNBOX_CLISTEPi@Base 9.55.0~dfsg1-0ubuntu1
 _ZN9tesseract11AlignedBlobC1EiRKNS_6ICOORDES3_@Base 9.55.0~dfsg1-0ubuntu1
 _ZN9tesseract11AlignedBlobC2EiRKNS_6ICOORDES3_@Base 9.55.0~dfsg1-0ubuntu1
 _ZN9tesseract11AlignedBlobD0Ev@Base 9.55.0~dfsg1-0ubuntu1
 _ZN9tesseract11AlignedBlobD1Ev@Base 9.55.0~dfsg1-0ubuntu1
 _ZN9tesseract11AlignedBlobD2Ev@Base 9.55.0~dfsg1-0ubuntu1
 _ZN9tesseract11BLOB_CHOICE9deep_copyEPKS0_@Base 9.55.0~dfsg1-0ubuntu1
 _ZN9tesseract11BLOB_CHOICEC1ERKS0_@Base 9.55.0~dfsg1-0ubuntu1
 _ZN9tesseract11BLOB_CHOICEC1EiffifffNS_20BlobChoiceClassifierE@Base 9.55.0~dfsg1-0ubuntu1
 _ZN9tesseract11BLOB_CHOICEC2ERKS0_@Base 9.55.0~dfsg1-0ubuntu1
 _ZN9tesseract11BLOB_CHOICEC2EiffifffNS_20BlobChoiceClassifierE@Base 9.55.0~dfsg1-0ubuntu1
 _ZN9tesseract11BLOB_CHOICEaSERKS0_@Base 9.55.0~dfsg1-0ubuntu1
 _ZN9tesseract11BaselineRow11FitBaselineEb@Base 9.55.0~dfsg1-0ubuntu1
 _ZN9tesseract11BaselineRow18ComputeBoundingBoxEv@Base 9.55.0~dfsg1-0ubuntu1
 _ZN9tesseract11BaselineRow20AdjustBaselineToGridEiRKNS_6FCOORDEdd@Base 9.55.0~dfsg1-0ubuntu1
 _ZN9tesseract11BaselineRow22FitConstrainedIfBetterEiRKNS_6FCOORDEdd@Base 9.55.0~dfsg1-0ubuntu1
 _ZN9tesseract11BaselineRow22SetupBlobDisplacementsERKNS_6FCOORDE@Base 9.55.0~dfsg1-0ubuntu1
 _ZN9tesseract11BaselineRow24AdjustBaselineToParallelEiRKNS_6FCOORDE@Base 9.55.0~dfsg1-0ubuntu1
 _ZN9tesseract11BaselineRowC1EdPNS_6TO_ROWE@Base 9.55.0~dfsg1-0ubuntu1
 _ZN9tesseract11BaselineRowC2EdPNS_6TO_ROWE@Base 9.55.0~dfsg1-0ubuntu1
 _ZN9tesseract11Bucket16ForEffi@Base 9.55.0~dfsg1-0ubuntu1
 _ZN9tesseract11BucketStartEifi@Base 9.55.0~dfsg1-0ubuntu1
 _ZN9tesseract11C_BLOB_LIST9deep_copyEPKS0_PFPNS_6C_BLOBEPKS3_E@Base 9.55.0~dfsg1-0ubuntu1
 _ZN9tesseract11ConvertBlobEPNS_5TBLOBE@Base 9.55.0~dfsg1-0ubuntu1
 _ZN9tesseract11FreeFeatureEPNS_14FEATURE_STRUCTE@Base 9.55.0~dfsg1-0ubuntu1
 _ZN9tesseract11FreeSubTreeEPNS_6KDNODEE@Base 9.55.0~dfsg1-0ubuntu1
 _ZN9tesseract11GeoFeatDescE@Base 9.55.0~dfsg1-0ubuntu1
 _ZN9tesseract11GetNextFillEPNS_12TABLE_FILLEREPNS_9FILL_SPECE@Base 9.55.0~dfsg1-0ubuntu1
 _ZN9tesseract11InsertNodesEPNS_6KDTREEEPNS_6KDNODEE@Base 9.55.0~dfsg1-0ubuntu1
 _ZN9tesseract11IntFeatDescE@Base 9.55.0~dfsg1-0ubuntu1
 _ZN9tesseract11NewIntClassEii@Base 9.55.0~dfsg1-0ubuntu1
 _ZN9tesseract11OpenBoxFileEPKc@Base 9.55.0~dfsg1-0ubuntu1
 _ZN9tesseract11PAGE_RES_IT10start_pageEb@Base 9.55.0~dfsg1-0ubuntu1
 _ZN9tesseract11PAGE_RES_IT11restart_rowEv@Base 9.55.0~dfsg1-0ubuntu1
 _ZN9tesseract11PAGE_RES_IT13forward_blockEv@Base 9.55.0~dfsg1-0ubuntu1
 _ZN9tesseract11PAGE_RES_IT13rej_stat_wordEv@Base 9.55.0~dfsg1-0ubuntu1
 _ZN9tesseract11PAGE_RES_IT16internal_forwardEbb@Base 9.55.0~dfsg1-0ubuntu1
 _ZN9tesseract11PAGE_RES_IT17DeleteCurrentWordEv@Base 9.55.0~dfsg1-0ubuntu1
 _ZN9tesseract11PAGE_RES_IT17ResetWordIteratorEv@Base 9.55.0~dfsg1-0ubuntu1
 _ZN9tesseract11PAGE_RES_IT17forward_paragraphEv@Base 9.55.0~dfsg1-0ubuntu1
 _ZN9tesseract11PAGE_RES_IT18ReplaceCurrentWordEPNS_13PointerVectorINS_8WERD_RESEEE@Base 9.55.0~dfsg1-0ubuntu1
 _ZN9tesseract11PAGE_RES_IT20MakeCurrentWordFuzzyEv@Base 9.55.0~dfsg1-0ubuntu1
 _ZN9tesseract11PAGE_RES_IT21InsertSimpleCloneWordERKNS_8WERD_RESEPNS_4WERDE@Base 9.55.0~dfsg1-0ubuntu1
 _ZN9tesseract11PARA_zapperEPNS_10ELIST_LINKE@Base 9.55.0~dfsg1-0ubuntu1
 _ZN9tesseract11ParamsModel10LoadFromFpEPKcPNS_5TFileE@Base 9.55.0~dfsg1-0ubuntu1
 _ZN9tesseract11ParamsModel4CopyERKS0_@Base 9.55.0~dfsg1-0ubuntu1
 _ZN9tesseract11ParamsModel5PrintEv@Base 9.55.0~dfsg1-0ubuntu1
 _ZN9tesseract11ParamsModel9ParseLineEPcPS1_Pf@Base 9.55.0~dfsg1-0ubuntu1
 _ZN9tesseract11ReadNextBoxEPiP8_IO_FILEPNS_6STRINGEPNS_4TBOXE@Base 9.55.0~dfsg1-0ubuntu1
 _ZN9tesseract11ReadNextBoxEiPiP8_IO_FILEPNS_6STRINGEPNS_4TBOXE@Base 9.55.0~dfsg1-0ubuntu1
 _ZN9tesseract11ShapeRating22FirstResultWithUnicharERKNS_13GenericVectorIS0_EERKNS_10ShapeTableEi@Base 9.55.0~dfsg1-0ubuntu1
 _ZN9tesseract11StrokeWidth10EasyMergesEPNS_16ColPartitionGridE@Base 9.55.0~dfsg1-0ubuntu1
 _ZN9tesseract11StrokeWidth11HandleClickEii@Base 9.55.0~dfsg1-0ubuntu1
 _ZN9tesseract11StrokeWidth11InsertBlobsEPNS_8TO_BLOCKE@Base 9.55.0~dfsg1-0ubuntu1
 _ZN9tesseract11StrokeWidth12FixBrokenCJKEPNS_8TO_BLOCKE@Base 9.55.0~dfsg1-0ubuntu1
 _ZN9tesseract11StrokeWidth13DiacriticBlobEPNS_8BlobGridEPNS_8BLOBNBOXE@Base 9.55.0~dfsg1-0ubuntu1
 _ZN9tesseract11StrokeWidth13SetNeighboursEbbPNS_8BLOBNBOXE@Base 9.55.0~dfsg1-0ubuntu1
 _ZN9tesseract11StrokeWidth14TestDiacriticsEPNS_16ColPartitionGridEPNS_8TO_BLOCKE@Base 9.55.0~dfsg1-0ubuntu1
 _ZN9tesseract11StrokeWidth15MergeDiacriticsEPNS_8TO_BLOCKEPNS_16ColPartitionGridE@Base 9.55.0~dfsg1-0ubuntu1
 _ZN9tesseract11StrokeWidth16ConfirmEasyMergeEPKNS_12ColPartitionES3_@Base 9.55.0~dfsg1-0ubuntu1
 _ZN9tesseract11StrokeWidth17CompletePartitionENS_11PageSegModeEPNS_12ColPartitionEPNS_16ColPartitionGridE@Base 9.55.0~dfsg1-0ubuntu1
 _ZN9tesseract11StrokeWidth17FindGoodNeighbourENS_16BlobNeighbourDirEbPNS_8BLOBNBOXE@Base 9.55.0~dfsg1-0ubuntu1
 _ZN9tesseract11StrokeWidth17RemoveLineResidueEPNS_17ColPartition_LISTE@Base 9.55.0~dfsg1-0ubuntu1
 _ZN9tesseract11StrokeWidth17SetNeighbourFlowsEPNS_8BLOBNBOXE@Base 9.55.0~dfsg1-0ubuntu1
 _ZN9tesseract11StrokeWidth18AccumulateOverlapsEPKNS_8BLOBNBOXEbiiPNS_4TBOXEPNS_14BLOBNBOX_CLISTE@Base 9.55.0~dfsg1-0ubuntu1
 _ZN9tesseract11StrokeWidth18CorrectForRotationERKNS_6FCOORDEPNS_16ColPartitionGridE@Base 9.55.0~dfsg1-0ubuntu1
 _ZN9tesseract11StrokeWidth19DiacriticXGapFilledEPNS_8BlobGridERKNS_4TBOXES5_@Base 9.55.0~dfsg1-0ubuntu1
 _ZN9tesseract11StrokeWidth20DetectAndRemoveNoiseEiRKNS_4TBOXEPNS_8TO_BLOCKEPNS_16ColPartitionGridEPNS_13BLOBNBOX_LISTE@Base 9.55.0~dfsg1-0ubuntu1
 _ZN9tesseract11StrokeWidth20FindLeaderPartitionsEPNS_8TO_BLOCKEPNS_16ColPartitionGridE@Base 9.55.0~dfsg1-0ubuntu1
 _ZN9tesseract11StrokeWidth20MarkLeaderNeighboursEPKNS_12ColPartitionENS_11LeftOrRightE@Base 9.55.0~dfsg1-0ubuntu1
 _ZN9tesseract11StrokeWidth20OrientationSearchBoxEPNS_12ColPartitionEPNS_4TBOXE@Base 9.55.0~dfsg1-0ubuntu1
 _ZN9tesseract11StrokeWidth20SmoothNeighbourTypesENS_11PageSegModeEbPNS_8BLOBNBOXE@Base 9.55.0~dfsg1-0ubuntu1
 _ZN9tesseract11StrokeWidth21FindInitialPartitionsENS_11PageSegModeERKNS_6FCOORDEbPNS_8TO_BLOCKEPNS_13BLOBNBOX_LISTEPNS_16ColPartitionGridEPNS_17ColPartition_LISTEPS2_@Base 9.55.0~dfsg1-0ubuntu1
 _ZN9tesseract11StrokeWidth22FindVerticalTextChainsEPNS_16ColPartitionGridE@Base 9.55.0~dfsg1-0ubuntu1
 _ZN9tesseract11StrokeWidth22RemoveLargeUnusedBlobsEPNS_8TO_BLOCKEPNS_16ColPartitionGridEPNS_17ColPartition_LISTE@Base 9.55.0~dfsg1-0ubuntu1
 _ZN9tesseract11StrokeWidth23FindLeadersAndMarkNoiseEPNS_8TO_BLOCKEPNS_17ColPartition_LISTE@Base 9.55.0~dfsg1-0ubuntu1
 _ZN9tesseract11StrokeWidth23PartitionRemainingBlobsENS_11PageSegModeEPNS_16ColPartitionGridE@Base 9.55.0~dfsg1-0ubuntu1
 _ZN9tesseract11StrokeWidth24FindHorizontalTextChainsEPNS_16ColPartitionGridE@Base 9.55.0~dfsg1-0ubuntu1
 _ZN9tesseract11StrokeWidth24GradeBlobsIntoPartitionsENS_11PageSegModeERKNS_6FCOORDEPNS_8TO_BLOCKEP3PixPKNS_6DENORMEbPNS_18TextlineProjectionEPNS_13BLOBNBOX_LISTEPNS_16ColPartitionGridEPNS_17ColPartition_LISTE@Base 9.55.0~dfsg1-0ubuntu1
 _ZN9tesseract11StrokeWidth25FindTextlineFlowDirectionENS_11PageSegModeEb@Base 9.55.0~dfsg1-0ubuntu1
 _ZN9tesseract11StrokeWidth25SimplifyObviousNeighboursEPNS_8BLOBNBOXE@Base 9.55.0~dfsg1-0ubuntu1
 _ZN9tesseract11StrokeWidth25TestVerticalTextDirectionEdPNS_8TO_BLOCKEPNS_14BLOBNBOX_CLISTE@Base 9.55.0~dfsg1-0ubuntu1
 _ZN9tesseract11StrokeWidth26MakePartitionsFromCellListENS_11PageSegModeEbPNS_16ColPartitionGridEPNS_14BLOBNBOX_CLISTE@Base 9.55.0~dfsg1-0ubuntu1
 _ZN9tesseract11StrokeWidth26SetNeighboursOnMediumBlobsEPNS_8TO_BLOCKE@Base 9.55.0~dfsg1-0ubuntu1
 _ZN9tesseract11StrokeWidth36FindTextlineDirectionAndFixBrokenCJKENS_11PageSegModeEbPNS_8TO_BLOCKE@Base 9.55.0~dfsg1-0ubuntu1
 _ZN9tesseract11StrokeWidthC1EiRKNS_6ICOORDES3_@Base 9.55.0~dfsg1-0ubuntu1
 _ZN9tesseract11StrokeWidthC2EiRKNS_6ICOORDES3_@Base 9.55.0~dfsg1-0ubuntu1
 _ZN9tesseract11StrokeWidthD0Ev@Base 9.55.0~dfsg1-0ubuntu1
 _ZN9tesseract11StrokeWidthD1Ev@Base 9.55.0~dfsg1-0ubuntu1
 _ZN9tesseract11StrokeWidthD2Ev@Base 9.55.0~dfsg1-0ubuntu1
 _ZN9tesseract11TO_ROW_LIST9deep_copyEPKS0_PFPNS_6TO_ROWEPKS3_E@Base 9.55.0~dfsg1-0ubuntu1
 _ZN9tesseract11TableFinder12GrowTableBoxERKNS_4TBOXEPS1_@Base 9.55.0~dfsg1-0ubuntu1
 _ZN9tesseract11TableFinder12LocateTablesEPNS_16ColPartitionGridEPPNS_15ColPartitionSetESt8functionIFbiEERKNS_6FCOORDE@Base 9.55.0~dfsg1-0ubuntu1
 _ZN9tesseract11TableFinder13FindNeighborsEv@Base 9.55.0~dfsg1-0ubuntu1
 _ZN9tesseract11TableFinder14SetColumnsTypeEPNS_15ColSegment_LISTE@Base 9.55.0~dfsg1-0ubuntu1
 _ZN9tesseract11TableFinder15GetColumnBlocksEPPNS_15ColPartitionSetEPNS_15ColSegment_LISTE@Base 9.55.0~dfsg1-0ubuntu1
 _ZN9tesseract11TableFinder15GetTableColumnsEPNS_15ColSegment_LISTE@Base 9.55.0~dfsg1-0ubuntu1
 _ZN9tesseract11TableFinder15GetTableRegionsEPNS_15ColSegment_LISTES2_@Base 9.55.0~dfsg1-0ubuntu1
 _ZN9tesseract11TableFinder15MakeTableBlocksEPNS_16ColPartitionGridEPPNS_15ColPartitionSetESt8functionIFbiEE@Base 9.55.0~dfsg1-0ubuntu1
 _ZN9tesseract11TableFinder15RecognizeTablesEv@Base 9.55.0~dfsg1-0ubuntu1
 _ZN9tesseract11TableFinder16BelongToOneTableERKNS_4TBOXES3_@Base 9.55.0~dfsg1-0ubuntu1
 _ZN9tesseract11TableFinder16ConsecutiveBoxesERKNS_4TBOXES3_@Base 9.55.0~dfsg1-0ubuntu1
 _ZN9tesseract11TableFinder16GapInXProjectionEPii@Base 9.55.0~dfsg1-0ubuntu1
 _ZN9tesseract11TableFinder17FilterFalseAlarmsEv@Base 9.55.0~dfsg1-0ubuntu1
 _ZN9tesseract11TableFinder17GroupColumnBlocksEPNS_15ColSegment_LISTES2_@Base 9.55.0~dfsg1-0ubuntu1
 _ZN9tesseract11TableFinder17HasLeaderAdjacentERKNS_12ColPartitionE@Base 9.55.0~dfsg1-0ubuntu1
 _ZN9tesseract11TableFinder17SetGlobalSpacingsEPNS_16ColPartitionGridE@Base 9.55.0~dfsg1-0ubuntu1
 _ZN9tesseract11TableFinder18SetVerticalSpacingEPNS_12ColPartitionE@Base 9.55.0~dfsg1-0ubuntu1
 _ZN9tesseract11TableFinder19HLineBelongsToTableERKNS_12ColPartitionERKNS_4TBOXE@Base 9.55.0~dfsg1-0ubuntu1
 _ZN9tesseract11TableFinder19InsertTextPartitionEPNS_12ColPartitionE@Base 9.55.0~dfsg1-0ubuntu1
 _ZN9tesseract11TableFinder19MarkTablePartitionsEv@Base 9.55.0~dfsg1-0ubuntu1
 _ZN9tesseract11TableFinder20InitializePartitionsEPPNS_15ColPartitionSetE@Base 9.55.0~dfsg1-0ubuntu1
 _ZN9tesseract11TableFinder20InsertImagePartitionEPNS_12ColPartitionE@Base 9.55.0~dfsg1-0ubuntu1
 _ZN9tesseract11TableFinder20SetPartitionSpacingsEPNS_16ColPartitionGridEPPNS_15ColPartitionSetE@Base 9.55.0~dfsg1-0ubuntu1
 _ZN9tesseract11TableFinder21AdjustTableBoundariesEv@Base 9.55.0~dfsg1-0ubuntu1
 _ZN9tesseract11TableFinder21FilterHeaderAndFooterEv@Base 9.55.0~dfsg1-0ubuntu1
 _ZN9tesseract11TableFinder21GridMergeColumnBlocksEv@Base 9.55.0~dfsg1-0ubuntu1
 _ZN9tesseract11TableFinder21GridMergeTableRegionsEv@Base 9.55.0~dfsg1-0ubuntu1
 _ZN9tesseract11TableFinder21InsertCleanPartitionsEPNS_16ColPartitionGridEPNS_8TO_BLOCKE@Base 9.55.0~dfsg1-0ubuntu1
 _ZN9tesseract11TableFinder21InsertLeaderPartitionEPNS_12ColPartitionE@Base 9.55.0~dfsg1-0ubuntu1
 _ZN9tesseract11TableFinder21InsertRulingPartitionEPNS_12ColPartitionE@Base 9.55.0~dfsg1-0ubuntu1
 _ZN9tesseract11TableFinder21MoveColSegmentsToGridEPNS_15ColSegment_LISTEPNS_6BBGridINS_10ColSegmentENS_16ColSegment_CLISTENS_15ColSegment_C_ITEEE@Base 9.55.0~dfsg1-0ubuntu1
 _ZN9tesseract11TableFinder22FilterParagraphEndingsEv@Base 9.55.0~dfsg1-0ubuntu1
 _ZN9tesseract11TableFinder23GrowTableToIncludeLinesERKNS_4TBOXES3_PS1_@Base 9.55.0~dfsg1-0ubuntu1
 _ZN9tesseract11TableFinder24DeleteSingleColumnTablesEv@Base 9.55.0~dfsg1-0ubuntu1
 _ZN9tesseract11TableFinder24SmoothTablePartitionRunsEv@Base 9.55.0~dfsg1-0ubuntu1
 _ZN9tesseract11TableFinder25set_global_median_leddingEi@Base 9.55.0~dfsg1-0ubuntu1
 _ZN9tesseract11TableFinder25set_global_median_xheightEi@Base 9.55.0~dfsg1-0ubuntu1
 _ZN9tesseract11TableFinder26GrowTableToIncludePartialsERKNS_4TBOXES3_PS1_@Base 9.55.0~dfsg1-0ubuntu1
 _ZN9tesseract11TableFinder26set_left_to_right_languageEb@Base 9.55.0~dfsg1-0ubuntu1
 _ZN9tesseract11TableFinder27IncludeLeftOutColumnHeadersEPNS_4TBOXE@Base 9.55.0~dfsg1-0ubuntu1
 _ZN9tesseract11TableFinder28set_global_median_blob_widthEi@Base 9.55.0~dfsg1-0ubuntu1
 _ZN9tesseract11TableFinder29InsertFragmentedTextPartitionEPNS_12ColPartitionE@Base 9.55.0~dfsg1-0ubuntu1
 _ZN9tesseract11TableFinder35MarkPartitionsUsingLocalInformationEv@Base 9.55.0~dfsg1-0ubuntu1
 _ZN9tesseract11TableFinder37SplitAndInsertFragmentedTextPartitionEPNS_12ColPartitionE@Base 9.55.0~dfsg1-0ubuntu1
 _ZN9tesseract11TableFinder4InitEiRKNS_6ICOORDES3_@Base 9.55.0~dfsg1-0ubuntu1
 _ZN9tesseract11TableFinderC1Ev@Base 9.55.0~dfsg1-0ubuntu1
 _ZN9tesseract11TableFinderC2Ev@Base 9.55.0~dfsg1-0ubuntu1
 _ZN9tesseract11TableFinderD1Ev@Base 9.55.0~dfsg1-0ubuntu1
 _ZN9tesseract11TableFinderD2Ev@Base 9.55.0~dfsg1-0ubuntu1
 _ZN9tesseract11TessBaseAPI10GetBoxTextEi@Base 9.55.0~dfsg1-0ubuntu1
 _ZN9tesseract11TessBaseAPI10GetOsdTextEi@Base 9.55.0~dfsg1-0ubuntu1
 _ZN9tesseract11TessBaseAPI10GetRegionsEPP4Pixa@Base 9.55.0~dfsg1-0ubuntu1
 _ZN9tesseract11TessBaseAPI10GetTSVTextEi@Base 9.55.0~dfsg1-0ubuntu1
 _ZN9tesseract11TessBaseAPI10GetUnicharEi@Base 9.55.0~dfsg1-0ubuntu1
 _ZN9tesseract11TessBaseAPI10TextLengthEPi@Base 9.55.0~dfsg1-0ubuntu1
 _ZN9tesseract11TessBaseAPI11GetAltoTextEPNS_10ETEXT_DESCEi@Base 9.55.0~dfsg1-0ubuntu1
 _ZN9tesseract11TessBaseAPI11GetAltoTextEi@Base 9.55.0~dfsg1-0ubuntu1
 _ZN9tesseract11TessBaseAPI11GetDatapathEv@Base 9.55.0~dfsg1-0ubuntu1
 _ZN9tesseract11TessBaseAPI11GetHOCRTextEPNS_10ETEXT_DESCEi@Base 9.55.0~dfsg1-0ubuntu1
 _ZN9tesseract11TessBaseAPI11GetHOCRTextEi@Base 9.55.0~dfsg1-0ubuntu1
 _ZN9tesseract11TessBaseAPI11GetIteratorEv@Base 9.55.0~dfsg1-0ubuntu1
 _ZN9tesseract11TessBaseAPI11GetUNLVTextEv@Base 9.55.0~dfsg1-0ubuntu1
 _ZN9tesseract11TessBaseAPI11GetUTF8TextEv@Base 9.55.0~dfsg1-0ubuntu1
 _ZN9tesseract11TessBaseAPI11InitLangModEPKcS2_@Base 9.55.0~dfsg1-0ubuntu1
 _ZN9tesseract11TessBaseAPI11IsValidWordEPKc@Base 9.55.0~dfsg1-0ubuntu1
 _ZN9tesseract11TessBaseAPI11ProcessPageEP3PixiPKcS4_iPNS_18TessResultRendererE@Base 9.55.0~dfsg1-0ubuntu1
 _ZN9tesseract11TessBaseAPI11SetDictFuncEMNS_4DictEKFiPvRKNS_10UNICHARSETEibE@Base 9.55.0~dfsg1-0ubuntu1
 _ZN9tesseract11TessBaseAPI11SetVariableEPKcS2_@Base 9.55.0~dfsg1-0ubuntu1
 _ZN9tesseract11TessBaseAPI12ClearResultsEv@Base 9.55.0~dfsg1-0ubuntu1
 _ZN9tesseract11TessBaseAPI12GetInputNameEv@Base 9.55.0~dfsg1-0ubuntu1
 _ZN9tesseract11TessBaseAPI12GetTextlinesEbiPP4PixaPPiS5_@Base 9.55.0~dfsg1-0ubuntu1
 _ZN9tesseract11TessBaseAPI12MeanTextConfEv@Base 9.55.0~dfsg1-0ubuntu1
 _ZN9tesseract11TessBaseAPI12ProcessPagesEPKcS2_iPNS_18TessResultRendererE@Base 9.55.0~dfsg1-0ubuntu1
 _ZN9tesseract11TessBaseAPI12SetInputNameEPKc@Base 9.55.0~dfsg1-0ubuntu1
 _ZN9tesseract11TessBaseAPI12SetRectangleEiiii@Base 9.55.0~dfsg1-0ubuntu1
 _ZN9tesseract11TessBaseAPI13AnalyseLayoutEb@Base 9.55.0~dfsg1-0ubuntu1
 _ZN9tesseract11TessBaseAPI13AnalyseLayoutEv@Base 9.55.0~dfsg1-0ubuntu1
 _ZN9tesseract11TessBaseAPI13GetInputImageEv@Base 9.55.0~dfsg1-0ubuntu1
 _ZN9tesseract11TessBaseAPI13SetInputImageEP3Pix@Base 9.55.0~dfsg1-0ubuntu1
 _ZN9tesseract11TessBaseAPI13SetOutputNameEPKc@Base 9.55.0~dfsg1-0ubuntu1
 _ZN9tesseract11TessBaseAPI13TesseractRectEPKhiiiiii@Base 9.55.0~dfsg1-0ubuntu1
 _ZN9tesseract11TessBaseAPI14AdaptToWordStrENS_11PageSegModeEPKc@Base 9.55.0~dfsg1-0ubuntu1
 _ZN9tesseract11TessBaseAPI14GetLSTMBoxTextEi@Base 9.55.0~dfsg1-0ubuntu1
 _ZN9tesseract11TessBaseAPI14GetLTRIteratorEv@Base 9.55.0~dfsg1-0ubuntu1
 _ZN9tesseract11TessBaseAPI14ReadConfigFileEPKc@Base 9.55.0~dfsg1-0ubuntu1
 _ZN9tesseract11TessBaseAPI14SetPageSegModeENS_11PageSegModeE@Base 9.55.0~dfsg1-0ubuntu1
 _ZN9tesseract11TessBaseAPI15getOpenCLDeviceEPPv@Base 9.55.0~dfsg1-0ubuntu1
 _ZN9tesseract11TessBaseAPI16DetectParagraphsEb@Base 9.55.0~dfsg1-0ubuntu1
 _ZN9tesseract11TessBaseAPI16GetTextDirectionEPiPf@Base 9.55.0~dfsg1-0ubuntu1
 _ZN9tesseract11TessBaseAPI16InternalSetImageEv@Base 9.55.0~dfsg1-0ubuntu1
 _ZN9tesseract11TessBaseAPI16IsValidCharacterEPKc@Base 9.55.0~dfsg1-0ubuntu1
 _ZN9tesseract11TessBaseAPI16SetDebugVariableEPKcS2_@Base 9.55.0~dfsg1-0ubuntu1
 _ZN9tesseract11TessBaseAPI17GetWordStrBoxTextEi@Base 9.55.0~dfsg1-0ubuntu1
 _ZN9tesseract11TessBaseAPI18AllWordConfidencesEv@Base 9.55.0~dfsg1-0ubuntu1
 _ZN9tesseract11TessBaseAPI18GetComponentImagesENS_17PageIteratorLevelEbbiPP4PixaPPiS6_@Base 9.55.0~dfsg1-0ubuntu1
 _ZN9tesseract11TessBaseAPI18GetMutableIteratorEv@Base 9.55.0~dfsg1-0ubuntu1
 _ZN9tesseract11TessBaseAPI18InitForAnalysePageEv@Base 9.55.0~dfsg1-0ubuntu1
 _ZN9tesseract11TessBaseAPI19GetThresholdedImageEv@Base 9.55.0~dfsg1-0ubuntu1
 _ZN9tesseract11TessBaseAPI19GetVariableAsStringEPKcPNSt7__cxx1112basic_stringIcSt11char_traitsIcESaIcEEE@Base 9.55.0~dfsg1-0ubuntu1
 _ZN9tesseract11TessBaseAPI19ReadDebugConfigFileEPKc@Base 9.55.0~dfsg1-0ubuntu1
 _ZN9tesseract11TessBaseAPI19SetSourceResolutionEi@Base 9.55.0~dfsg1-0ubuntu1
 _ZN9tesseract11TessBaseAPI20ClearPersistentCacheEv@Base 9.55.0~dfsg1-0ubuntu1
 _ZN9tesseract11TessBaseAPI20GetSourceYResolutionEv@Base 9.55.0~dfsg1-0ubuntu1
 _ZN9tesseract11TessBaseAPI20ProcessPagesFileListEP8_IO_FILEPNSt7__cxx1112basic_stringIcSt11char_traitsIcESaIcEEEPKciPNS_18TessResultRendererEi@Base 9.55.0~dfsg1-0ubuntu1
 _ZN9tesseract11TessBaseAPI20ProcessPagesInternalEPKcS2_iPNS_18TessResultRendererE@Base 9.55.0~dfsg1-0ubuntu1
 _ZN9tesseract11TessBaseAPI22GetConnectedComponentsEPP4Pixa@Base 9.55.0~dfsg1-0ubuntu1
 _ZN9tesseract11TessBaseAPI23ClearAdaptiveClassifierEv@Base 9.55.0~dfsg1-0ubuntu1
 _ZN9tesseract11TessBaseAPI23DetectOrientationScriptEPiPfPPKcS2_@Base 9.55.0~dfsg1-0ubuntu1
 _ZN9tesseract11TessBaseAPI24GetBlockTextOrientationsEPPiPPb@Base 9.55.0~dfsg1-0ubuntu1
 _ZN9tesseract11TessBaseAPI25ProcessPagesMultipageTiffEPKhmPKcS4_iPNS_18TessResultRendererEi@Base 9.55.0~dfsg1-0ubuntu1
 _ZN9tesseract11TessBaseAPI26set_min_orientation_marginEd@Base 9.55.0~dfsg1-0ubuntu1
 _ZN9tesseract11TessBaseAPI27SetProbabilityInContextFuncEMNS_4DictEFdPKcS3_iS3_iE@Base 9.55.0~dfsg1-0ubuntu1
 _ZN9tesseract11TessBaseAPI3EndEv@Base 9.55.0~dfsg1-0ubuntu1
 _ZN9tesseract11TessBaseAPI4InitEPKcS2_NS_13OcrEngineModeEPPciPKSt6vectorINSt7__cxx1112basic_stringIcSt11char_traitsIcESaIcEEESaISC_EESG_b@Base 9.55.0~dfsg1-0ubuntu1
 _ZN9tesseract11TessBaseAPI4InitEPKciS2_NS_13OcrEngineModeEPPciPKSt6vectorINSt7__cxx1112basic_stringIcSt11char_traitsIcESaIcEEESaISC_EESG_bPFbS2_PS6_IcSB_EE@Base 9.55.0~dfsg1-0ubuntu1
 _ZN9tesseract11TessBaseAPI5ClearEv@Base 9.55.0~dfsg1-0ubuntu1
 _ZN9tesseract11TessBaseAPI7VersionEv@Base 9.55.0~dfsg1-0ubuntu1
 _ZN9tesseract11TessBaseAPI8DetectOSEPNS_9OSResultsE@Base 9.55.0~dfsg1-0ubuntu1
 _ZN9tesseract11TessBaseAPI8GetWordsEPP4Pixa@Base 9.55.0~dfsg1-0ubuntu1
 _ZN9tesseract11TessBaseAPI8SetImageEP3Pix@Base 9.55.0~dfsg1-0ubuntu1
 _ZN9tesseract11TessBaseAPI8SetImageEPKhiiii@Base 9.55.0~dfsg1-0ubuntu1
 _ZN9tesseract11TessBaseAPI9FindLinesEv@Base 9.55.0~dfsg1-0ubuntu1
 _ZN9tesseract11TessBaseAPI9GetStripsEPP4PixaPPi@Base 9.55.0~dfsg1-0ubuntu1
 _ZN9tesseract11TessBaseAPI9RecognizeEPNS_10ETEXT_DESCE@Base 9.55.0~dfsg1-0ubuntu1
 _ZN9tesseract11TessBaseAPI9ThresholdEPP3Pix@Base 9.55.0~dfsg1-0ubuntu1
 _ZN9tesseract11TessBaseAPIC1Ev@Base 9.55.0~dfsg1-0ubuntu1
 _ZN9tesseract11TessBaseAPIC2Ev@Base 9.55.0~dfsg1-0ubuntu1
 _ZN9tesseract11TessBaseAPID0Ev@Base 9.55.0~dfsg1-0ubuntu1
 _ZN9tesseract11TessBaseAPID1Ev@Base 9.55.0~dfsg1-0ubuntu1
 _ZN9tesseract11TessBaseAPID2Ev@Base 9.55.0~dfsg1-0ubuntu1
 _ZN9tesseract11WERD_CHOICE10kBadRatingE@Base 9.55.0~dfsg1-0ubuntu1
 _ZN9tesseract11WERD_CHOICE13permuter_nameEh@Base 9.55.0~dfsg1-0ubuntu1
 _ZN9tesseract11WERD_CHOICE15set_blob_choiceEiiPKNS_11BLOB_CHOICEE@Base 9.55.0~dfsg1-0ubuntu1
 _ZN9tesseract11WERD_CHOICE16ScriptPositionOfEbRKNS_10UNICHARSETERKNS_4TBOXEi@Base 9.55.0~dfsg1-0ubuntu1
 _ZN9tesseract11WERD_CHOICE17append_unichar_idEiiff@Base 9.55.0~dfsg1-0ubuntu1
 _ZN9tesseract11WERD_CHOICE18SetScriptPositionsEPKNS_9ScriptPosEi@Base 9.55.0~dfsg1-0ubuntu1
 _ZN9tesseract11WERD_CHOICE18SetScriptPositionsEbPNS_5TWERDEi@Base 9.55.0~dfsg1-0ubuntu1
 _ZN9tesseract11WERD_CHOICE18remove_unichar_idsEii@Base 9.55.0~dfsg1-0ubuntu1
 _ZN9tesseract11WERD_CHOICE19UpdateStateForSplitEi@Base 9.55.0~dfsg1-0ubuntu1
 _ZN9tesseract11WERD_CHOICE21SetAllScriptPositionsENS_9ScriptPosE@Base 9.55.0~dfsg1-0ubuntu1
 _ZN9tesseract11WERD_CHOICE30reverse_and_mirror_unichar_idsEv@Base 9.55.0~dfsg1-0ubuntu1
 _ZN9tesseract11WERD_CHOICE4initEPKcS2_ffh@Base 9.55.0~dfsg1-0ubuntu1
 _ZN9tesseract11WERD_CHOICEC1EPKcRKNS_10UNICHARSETE@Base 9.55.0~dfsg1-0ubuntu1
 _ZN9tesseract11WERD_CHOICEC2EPKcRKNS_10UNICHARSETE@Base 9.55.0~dfsg1-0ubuntu1
 _ZN9tesseract11WERD_CHOICED1Ev@Base 9.55.0~dfsg1-0ubuntu1
 _ZN9tesseract11WERD_CHOICED2Ev@Base 9.55.0~dfsg1-0ubuntu1
 _ZN9tesseract11WERD_CHOICEaSERKS0_@Base 9.55.0~dfsg1-0ubuntu1
 _ZN9tesseract11WERD_CHOICEpLERKS0_@Base 9.55.0~dfsg1-0ubuntu1
 _ZN9tesseract11WERD_zapperEPNS_11ELIST2_LINKE@Base 9.55.0~dfsg1-0ubuntu1
 _ZN9tesseract11WordFeature11ComputeSizeERKNS_13GenericVectorIS0_EEPiS5_@Base 9.55.0~dfsg1-0ubuntu1
 _ZN9tesseract11WordFeature11DeSerializeEbP8_IO_FILE@Base 9.55.0~dfsg1-0ubuntu1
 _ZN9tesseract11WordFeature4DrawERKNS_13GenericVectorIS0_EEPNS_10ScrollViewE@Base 9.55.0~dfsg1-0ubuntu1
 _ZN9tesseract11WordFeatureC1ERKNS_6FCOORDEh@Base 9.55.0~dfsg1-0ubuntu1
 _ZN9tesseract11WordFeatureC1Ev@Base 9.55.0~dfsg1-0ubuntu1
 _ZN9tesseract11WordFeatureC2ERKNS_6FCOORDEh@Base 9.55.0~dfsg1-0ubuntu1
 _ZN9tesseract11WordFeatureC2Ev@Base 9.55.0~dfsg1-0ubuntu1
 _ZN9tesseract11blob_windowE@Base 9.55.0~dfsg1-0ubuntu1
 _ZN9tesseract11block_edgesEP3PixPNS_5PDBLKEPNS_12C_OUTLINE_ITE@Base 9.55.0~dfsg1-0ubuntu1
 _ZN9tesseract11expand_rowsENS_6ICOORDEPNS_8TO_BLOCKEfNS_6FCOORDEib@Base 9.55.0~dfsg1-0ubuntu1
 _ZN9tesseract11kCrownRightE@Base 9.55.0~dfsg1-0ubuntu1
 _ZN9tesseract11make_edgeptEiiPNS_6EDGEPTES1_@Base 9.55.0~dfsg1-0ubuntu1
 _ZN9tesseract11row_y_orderEPKvS1_@Base 9.55.0~dfsg1-0ubuntu1
 _ZN9tesseract12AddIntConfigEPNS_16INT_CLASS_STRUCTE@Base 9.55.0~dfsg1-0ubuntu1
 _ZN9tesseract12BLOCK_zapperEPNS_10ELIST_LINKE@Base 9.55.0~dfsg1-0ubuntu1
 _ZN9tesseract12BlamerBundle10JoinBlamesERKS0_S2_b@Base 9.55.0~dfsg1-0ubuntu1
 _ZN9tesseract12BlamerBundle12SetWordTruthERKNS_10UNICHARSETEPKcRKNS_4TBOXE@Base 9.55.0~dfsg1-0ubuntu1
 _ZN9tesseract12BlamerBundle14SetSymbolTruthERKNS_10UNICHARSETEPKcRKNS_4TBOXE@Base 9.55.0~dfsg1-0ubuntu1
 _ZN9tesseract12BlamerBundle15BlameClassifierERKNS_10UNICHARSETERKNS_4TBOXERKNS_16BLOB_CHOICE_LISTEb@Base 9.55.0~dfsg1-0ubuntu1
 _ZN9tesseract12BlamerBundle15FillDebugStringERKNS_6STRINGEPKNS_11WERD_CHOICEEPS1_@Base 9.55.0~dfsg1-0ubuntu1
 _ZN9tesseract12BlamerBundle15FinishSegSearchEPKNS_11WERD_CHOICEEbPNS_6STRINGE@Base 9.55.0~dfsg1-0ubuntu1
 _ZN9tesseract12BlamerBundle15LastChanceBlameEbPNS_8WERD_RESE@Base 9.55.0~dfsg1-0ubuntu1
 _ZN9tesseract12BlamerBundle15SetChopperBlameEPKNS_8WERD_RESEb@Base 9.55.0~dfsg1-0ubuntu1
 _ZN9tesseract12BlamerBundle16InitForSegSearchEPKNS_11WERD_CHOICEEPNS_6MATRIXEibPNS_6STRINGEPNS_12LMPainPointsEdPNS_8WERD_RESE@Base 9.55.0~dfsg1-0ubuntu1
 _ZN9tesseract12BlamerBundle16SetRejectedTruthEv@Base 9.55.0~dfsg1-0ubuntu1
 _ZN9tesseract12BlamerBundle18SetupNormTruthWordERKNS_6DENORME@Base 9.55.0~dfsg1-0ubuntu1
 _ZN9tesseract12BlamerBundle19IncorrectReasonNameENS_21IncorrectResultReasonE@Base 9.55.0~dfsg1-0ubuntu1
 _ZN9tesseract12BlamerBundle19SetMisAdaptionDebugEPKNS_11WERD_CHOICEEb@Base 9.55.0~dfsg1-0ubuntu1
 _ZN9tesseract12BlamerBundle24SetupCorrectSegmentationEPKNS_5TWERDEb@Base 9.55.0~dfsg1-0ubuntu1
 _ZN9tesseract12BlamerBundle26BlameClassifierOrLangModelEPKNS_8WERD_RESERKNS_10UNICHARSETEbb@Base 9.55.0~dfsg1-0ubuntu1
 _ZN9tesseract12CharNormDescE@Base 9.55.0~dfsg1-0ubuntu1
 _ZN9tesseract12ColPartition10AddPartnerEbPS0_@Base 9.55.0~dfsg1-0ubuntu1
 _ZN9tesseract12ColPartition10BiggestBoxEv@Base 9.55.0~dfsg1-0ubuntu1
 _ZN9tesseract12ColPartition10ClaimBoxesEv@Base 9.55.0~dfsg1-0ubuntu1
 _ZN9tesseract12ColPartition10SetLeftTabEPKNS_9TabVectorE@Base 9.55.0~dfsg1-0ubuntu1
 _ZN9tesseract12ColPartition10SortByBBoxEPKvS2_@Base 9.55.0~dfsg1-0ubuntu1
 _ZN9tesseract12ColPartition11ColumnRangeEiPNS_15ColPartitionSetEPiS3_@Base 9.55.0~dfsg1-0ubuntu1
 _ZN9tesseract12ColPartition11CopyLeftTabERKS0_b@Base 9.55.0~dfsg1-0ubuntu1
 _ZN9tesseract12ColPartition11DeleteBoxesEv@Base 9.55.0~dfsg1-0ubuntu1
 _ZN9tesseract12ColPartition11DisownBoxesEv@Base 9.55.0~dfsg1-0ubuntu1
 _ZN9tesseract12ColPartition11LeftEdgeRunEPNS_15ColPartition_ITEPNS_6ICOORDES4_@Base 9.55.0~dfsg1-0ubuntu1
 _ZN9tesseract12ColPartition11PrintColorsEv@Base 9.55.0~dfsg1-0ubuntu1
 _ZN9tesseract12ColPartition11SetRightTabEPKNS_9TabVectorE@Base 9.55.0~dfsg1-0ubuntu1
 _ZN9tesseract12ColPartition11SplitAtBlobEPNS_8BLOBNBOXE@Base 9.55.0~dfsg1-0ubuntu1
 _ZN9tesseract12ColPartition12CopyRightTabERKS0_b@Base 9.55.0~dfsg1-0ubuntu1
 _ZN9tesseract12ColPartition12RightEdgeRunEPNS_15ColPartition_ITEPNS_6ICOORDES4_@Base 9.55.0~dfsg1-0ubuntu1
 _ZN9tesseract12ColPartition12SetBlobTypesEv@Base 9.55.0~dfsg1-0ubuntu1
 _ZN9tesseract12ColPartition13ComputeLimitsEv@Base 9.55.0~dfsg1-0ubuntu1
 _ZN9tesseract12ColPartition13FakePartitionERKNS_4TBOXENS_13PolyBlockTypeENS_14BlobRegionTypeENS_16BlobTextFlowTypeE@Base 9.55.0~dfsg1-0ubuntu1
 _ZN9tesseract12ColPartition13OKSpacingBlipEiiPPS0_i@Base 9.55.0~dfsg1-0ubuntu1
 _ZN9tesseract12ColPartition13RemovePartnerEbPS0_@Base 9.55.0~dfsg1-0ubuntu1
 _ZN9tesseract12ColPartition14OKMergeOverlapERKS0_S2_ib@Base 9.55.0~dfsg1-0ubuntu1
 _ZN9tesseract12ColPartition14RefinePartnersENS_13PolyBlockTypeEbPNS_16ColPartitionGridE@Base 9.55.0~dfsg1-0ubuntu1
 _ZN9tesseract12ColPartition14ReflectInYAxisEv@Base 9.55.0~dfsg1-0ubuntu1
 _ZN9tesseract12ColPartition14SmoothSpacingsEiiPNS_17ColPartition_LISTE@Base 9.55.0~dfsg1-0ubuntu1
 _ZN9tesseract12ColPartition15AddToWorkingSetERKNS_6ICOORDES3_iPNS_17ColPartition_LISTEPNS_19WorkingPartSet_LISTE@Base 9.55.0~dfsg1-0ubuntu1
 _ZN9tesseract12ColPartition15HasGoodBaselineEv@Base 9.55.0~dfsg1-0ubuntu1
 _ZN9tesseract12ColPartition16BoundsWithoutBoxEPNS_8BLOBNBOXE@Base 9.55.0~dfsg1-0ubuntu1
 _ZN9tesseract12ColPartition16MakeBigPartitionEPNS_8BLOBNBOXEPNS_17ColPartition_LISTE@Base 9.55.0~dfsg1-0ubuntu1
 _ZN9tesseract12ColPartition16OverlapSplitBlobERKNS_4TBOXE@Base 9.55.0~dfsg1-0ubuntu1
 _ZN9tesseract12ColPartition16SetPartitionTypeEiPNS_15ColPartitionSetE@Base 9.55.0~dfsg1-0ubuntu1
 _ZN9tesseract12ColPartition16SingletonPartnerEb@Base 9.55.0~dfsg1-0ubuntu1
 _ZN9tesseract12ColPartition16SmoothPartnerRunEi@Base 9.55.0~dfsg1-0ubuntu1
 _ZN9tesseract12ColPartition17LineSpacingBlocksERKNS_6ICOORDES3_iPNS_17ColPartition_LISTES5_PNS_10BLOCK_LISTEPNS_13TO_BLOCK_LISTE@Base 9.55.0~dfsg1-0ubuntu1
 _ZN9tesseract12ColPartition17MakeLinePartitionENS_14BlobRegionTypeERKNS_6ICOORDEiiii@Base 9.55.0~dfsg1-0ubuntu1
 _ZN9tesseract12ColPartition17SetColumnGoodnessESt8functionIFbiEE@Base 9.55.0~dfsg1-0ubuntu1
 _ZN9tesseract12ColPartition17SpecialBlobsCountENS_19BlobSpecialTextTypeE@Base 9.55.0~dfsg1-0ubuntu1
 _ZN9tesseract12ColPartition19CopyButDontOwnBlobsEv@Base 9.55.0~dfsg1-0ubuntu1
 _ZN9tesseract12ColPartition19DisownBoxesNoAssertEv@Base 9.55.0~dfsg1-0ubuntu1
 _ZN9tesseract12ColPartition19ThisPartitionBetterEPNS_8BLOBNBOXERKS0_@Base 9.55.0~dfsg1-0ubuntu1
 _ZN9tesseract12ColPartition20RefinePartnersByTypeEbPNS_18ColPartition_CLISTE@Base 9.55.0~dfsg1-0ubuntu1
 _ZN9tesseract12ColPartition21CountOverlappingBoxesERKNS_4TBOXE@Base 9.55.0~dfsg1-0ubuntu1
 _ZN9tesseract12ColPartition21MakeVerticalTextBlockERKNS_6ICOORDES3_PNS_17ColPartition_LISTES5_@Base 9.55.0~dfsg1-0ubuntu1
 _ZN9tesseract12ColPartition21ReleaseNonLeaderBoxesEv@Base 9.55.0~dfsg1-0ubuntu1
 _ZN9tesseract12ColPartition22RefinePartnerShortcutsEbPNS_18ColPartition_CLISTE@Base 9.55.0~dfsg1-0ubuntu1
 _ZN9tesseract12ColPartition22RefinePartnersInternalEbbPNS_16ColPartitionGridE@Base 9.55.0~dfsg1-0ubuntu1
 _ZN9tesseract12ColPartition22SetSpecialBlobsDensityENS_19BlobSpecialTextTypeEf@Base 9.55.0~dfsg1-0ubuntu1
 _ZN9tesseract12ColPartition23RefinePartnersByOverlapEbPNS_18ColPartition_CLISTE@Base 9.55.0~dfsg1-0ubuntu1
 _ZN9tesseract12ColPartition24MarkAsLeaderIfMonospacedEv@Base 9.55.0~dfsg1-0ubuntu1
 _ZN9tesseract12ColPartition25RefineTextPartnersByMergeEbbPNS_18ColPartition_CLISTEPNS_16ColPartitionGridE@Base 9.55.0~dfsg1-0ubuntu1
 _ZN9tesseract12ColPartition26ComputeSpecialBlobsDensityEv@Base 9.55.0~dfsg1-0ubuntu1
 _ZN9tesseract12ColPartition40SetRegionAndFlowTypesFromProjectionValueEi@Base 9.55.0~dfsg1-0ubuntu1
 _ZN9tesseract12ColPartition6AbsorbEPS0_St8functionIFbiEE@Base 9.55.0~dfsg1-0ubuntu1
 _ZN9tesseract12ColPartition6AddBoxEPNS_8BLOBNBOXE@Base 9.55.0~dfsg1-0ubuntu1
 _ZN9tesseract12ColPartition7IsLegalEv@Base 9.55.0~dfsg1-0ubuntu1
 _ZN9tesseract12ColPartition7SplitAtEi@Base 9.55.0~dfsg1-0ubuntu1
 _ZN9tesseract12ColPartition9MakeBlockERKNS_6ICOORDES3_PNS_17ColPartition_LISTES5_@Base 9.55.0~dfsg1-0ubuntu1
 _ZN9tesseract12ColPartition9MakeToRowEv@Base 9.55.0~dfsg1-0ubuntu1
 _ZN9tesseract12ColPartition9RemoveBoxEPNS_8BLOBNBOXE@Base 9.55.0~dfsg1-0ubuntu1
 _ZN9tesseract12ColPartitionC1ENS_14BlobRegionTypeERKNS_6ICOORDE@Base 9.55.0~dfsg1-0ubuntu1
 _ZN9tesseract12ColPartitionC2ENS_14BlobRegionTypeERKNS_6ICOORDE@Base 9.55.0~dfsg1-0ubuntu1
 _ZN9tesseract12ColPartitionD1Ev@Base 9.55.0~dfsg1-0ubuntu1
 _ZN9tesseract12ColPartitionD2Ev@Base 9.55.0~dfsg1-0ubuntu1
 _ZN9tesseract12ColumnFinder10FindBlocksENS_11PageSegModeEP3PixiPNS_8TO_BLOCKES3_S3_S3_PNS_9DebugPixaEPNS_10BLOCK_LISTEPNS_13BLOBNBOX_LISTEPNS_13TO_BLOCK_LISTE@Base 9.55.0~dfsg1-0ubuntu1
 _ZN9tesseract12ColumnFinder11MakeColumnsEb@Base 9.55.0~dfsg1-0ubuntu1
 _ZN9tesseract12ColumnFinder13AssignColumnsERKNS_13GenericVectorIPNS_15ColPartitionSetEEE@Base 9.55.0~dfsg1-0ubuntu1
 _ZN9tesseract12ColumnFinder13ReflectForRtlEPNS_8TO_BLOCKEPNS_13BLOBNBOX_LISTE@Base 9.55.0~dfsg1-0ubuntu1
 _ZN9tesseract12ColumnFinder16GetDeskewVectorsEPNS_6FCOORDES2_@Base 9.55.0~dfsg1-0ubuntu1
 _ZN9tesseract12ColumnFinder17AddToTempPartListEPNS_12ColPartitionEPNS_18ColPartition_CLISTE@Base 9.55.0~dfsg1-0ubuntu1
 _ZN9tesseract12ColumnFinder17EmptyTempPartListEPNS_18ColPartition_CLISTEPNS_19WorkingPartSet_LISTE@Base 9.55.0~dfsg1-0ubuntu1
 _ZN9tesseract12ColumnFinder17SetEquationDetectEPNS_18EquationDetectBaseE@Base 9.55.0~dfsg1-0ubuntu1
 _ZN9tesseract12ColumnFinder17SetPartitionTypesEv@Base 9.55.0~dfsg1-0ubuntu1
 _ZN9tesseract12ColumnFinder17SmoothPartnerRunsEv@Base 9.55.0~dfsg1-0ubuntu1
 _ZN9tesseract12ColumnFinder17TransformToBlocksEPNS_10BLOCK_LISTEPNS_13TO_BLOCK_LISTE@Base 9.55.0~dfsg1-0ubuntu1
 _ZN9tesseract12ColumnFinder18CorrectOrientationEPNS_8TO_BLOCKEbi@Base 9.55.0~dfsg1-0ubuntu1
 _ZN9tesseract12ColumnFinder19AssignColumnToRangeEiiiPPiS1_@Base 9.55.0~dfsg1-0ubuntu1
 _ZN9tesseract12ColumnFinder19GridMergePartitionsEv@Base 9.55.0~dfsg1-0ubuntu1
 _ZN9tesseract12ColumnFinder19GridSplitPartitionsEv@Base 9.55.0~dfsg1-0ubuntu1
 _ZN9tesseract12ColumnFinder19RangeModalColumnSetEPPiPKiii@Base 9.55.0~dfsg1-0ubuntu1
 _ZN9tesseract12ColumnFinder19SetupAndFilterNoiseENS_11PageSegModeEP3PixPNS_8TO_BLOCKE@Base 9.55.0~dfsg1-0ubuntu1
 _ZN9tesseract12ColumnFinder20ComputeMeanColumnGapEb@Base 9.55.0~dfsg1-0ubuntu1
 _ZN9tesseract12ColumnFinder20InsertRemainingNoiseEPNS_8TO_BLOCKE@Base 9.55.0~dfsg1-0ubuntu1
 _ZN9tesseract12ColumnFinder21PrintColumnCandidatesEPKc@Base 9.55.0~dfsg1-0ubuntu1
 _ZN9tesseract12ColumnFinder21RotateAndReskewBlocksEbPNS_13TO_BLOCK_LISTE@Base 9.55.0~dfsg1-0ubuntu1
 _ZN9tesseract12ColumnFinder22BiggestUnassignedRangeEiPKbPiS3_@Base 9.55.0~dfsg1-0ubuntu1
 _ZN9tesseract12ColumnFinder23ImproveColumnCandidatesEPNS_13GenericVectorIPNS_15ColPartitionSetEEES5_@Base 9.55.0~dfsg1-0ubuntu1
 _ZN9tesseract12ColumnFinder23IsVerticallyAlignedTextEdPNS_8TO_BLOCKEPNS_14BLOBNBOX_CLISTE@Base 9.55.0~dfsg1-0ubuntu1
 _ZN9tesseract12ColumnFinder23ShrinkRangeToLongestRunEPPiPKiPKbiS1_S1_@Base 9.55.0~dfsg1-0ubuntu1
 _ZN9tesseract12ColumnFinder24ExtendRangePastSmallGapsEPPiPKiPKbiiiS1_@Base 9.55.0~dfsg1-0ubuntu1
 _ZN9tesseract12ColumnFinder25GridInsertHLinePartitionsEv@Base 9.55.0~dfsg1-0ubuntu1
 _ZN9tesseract12ColumnFinder25GridInsertVLinePartitionsEv@Base 9.55.0~dfsg1-0ubuntu1
 _ZN9tesseract12ColumnFinder28ReleaseBlobsAndCleanupUnusedEPNS_8TO_BLOCKE@Base 9.55.0~dfsg1-0ubuntu1
 _ZN9tesseract12ColumnFinder29GridRemoveUnderlinePartitionsEv@Base 9.55.0~dfsg1-0ubuntu1
 _ZN9tesseract12ColumnFinder31ComputeBlockAndClassifyRotationEPNS_5BLOCKE@Base 9.55.0~dfsg1-0ubuntu1
 _ZN9tesseract12ColumnFinderC1EiRKNS_6ICOORDES3_ibdPNS_14TabVector_LISTES5_ii@Base 9.55.0~dfsg1-0ubuntu1
 _ZN9tesseract12ColumnFinderC2EiRKNS_6ICOORDES3_ibdPNS_14TabVector_LISTES5_ii@Base 9.55.0~dfsg1-0ubuntu1
 _ZN9tesseract12ColumnFinderD0Ev@Base 9.55.0~dfsg1-0ubuntu1
 _ZN9tesseract12ColumnFinderD1Ev@Base 9.55.0~dfsg1-0ubuntu1
 _ZN9tesseract12ColumnFinderD2Ev@Base 9.55.0~dfsg1-0ubuntu1
 _ZN9tesseract12DeleteObjectINS_10ColSegmentEEEvPT_@Base 9.55.0~dfsg1-0ubuntu1
 _ZN9tesseract12DeleteObjectINS_12ColPartitionEEEvPT_@Base 9.55.0~dfsg1-0ubuntu1
 _ZN9tesseract12DocumentData11SetDocumentEPKclPFbS2_PSt6vectorIcSaIcEEE@Base 9.55.0~dfsg1-0ubuntu1
 _ZN9tesseract12DocumentData12LoadDocumentEPKcilPFbS2_PSt6vectorIcSaIcEEE@Base 9.55.0~dfsg1-0ubuntu1
 _ZN9tesseract12DocumentData12ReCachePagesEv@Base 9.55.0~dfsg1-0ubuntu1
 _ZN9tesseract12DocumentData12SaveDocumentEPKcPFbRKSt6vectorIcSaIcEES2_E@Base 9.55.0~dfsg1-0ubuntu1
 _ZN9tesseract12DocumentData15IsPageAvailableEiPPNS_9ImageDataE@Base 9.55.0~dfsg1-0ubuntu1
 _ZN9tesseract12DocumentData17AddPageToDocumentEPNS_9ImageDataE@Base 9.55.0~dfsg1-0ubuntu1
 _ZN9tesseract12DocumentData20LoadPageInBackgroundEi@Base 9.55.0~dfsg1-0ubuntu1
 _ZN9tesseract12DocumentData7GetPageEi@Base 9.55.0~dfsg1-0ubuntu1
 _ZN9tesseract12DocumentData7ShuffleEv@Base 9.55.0~dfsg1-0ubuntu1
 _ZN9tesseract12DocumentData7UnCacheEv@Base 9.55.0~dfsg1-0ubuntu1
 _ZN9tesseract12DocumentDataC1ERKNS_6STRINGE@Base 9.55.0~dfsg1-0ubuntu1
 _ZN9tesseract12DocumentDataC2ERKNS_6STRINGE@Base 9.55.0~dfsg1-0ubuntu1
 _ZN9tesseract12DocumentDataD1Ev@Base 9.55.0~dfsg1-0ubuntu1
 _ZN9tesseract12DocumentDataD2Ev@Base 9.55.0~dfsg1-0ubuntu1
 _ZN9tesseract12FPSEGPT_LIST9deep_copyEPKS0_PFPNS_7FPSEGPTEPKS3_E@Base 9.55.0~dfsg1-0ubuntu1
 _ZN9tesseract12FreeOutlinesEPNS_8list_recE@Base 9.55.0~dfsg1-0ubuntu1
 _ZN9tesseract12GlobalParamsEv@Base 9.55.0~dfsg1-0ubuntu1
 _ZN9tesseract12IndexMapBiDi11DeSerializeEbP8_IO_FILE@Base 9.55.0~dfsg1-0ubuntu1
 _ZN9tesseract12IndexMapBiDi14CompleteMergesEv@Base 9.55.0~dfsg1-0ubuntu1
 _ZN9tesseract12IndexMapBiDi17InitAndSetupRangeEiii@Base 9.55.0~dfsg1-0ubuntu1
 _ZN9tesseract12IndexMapBiDi4InitEib@Base 9.55.0~dfsg1-0ubuntu1
 _ZN9tesseract12IndexMapBiDi5MergeEii@Base 9.55.0~dfsg1-0ubuntu1
 _ZN9tesseract12IndexMapBiDi5SetupEv@Base 9.55.0~dfsg1-0ubuntu1
 _ZN9tesseract12IndexMapBiDi6SetMapEib@Base 9.55.0~dfsg1-0ubuntu1
 _ZN9tesseract12IndexMapBiDi8CopyFromERKS0_@Base 9.55.0~dfsg1-0ubuntu1
 _ZN9tesseract12IndexMapBiDiD0Ev@Base 9.55.0~dfsg1-0ubuntu1
 _ZN9tesseract12IndexMapBiDiD1Ev@Base 9.55.0~dfsg1-0ubuntu1
 _ZN9tesseract12IndexMapBiDiD2Ev@Base 9.55.0~dfsg1-0ubuntu1
 _ZN9tesseract12KDTreeSearch19BoxIntersectsSearchEPfS1_@Base 9.55.0~dfsg1-0ubuntu1
 _ZN9tesseract12KDTreeSearch6SearchEPiPfPPv@Base 9.55.0~dfsg1-0ubuntu1
 _ZN9tesseract12KDTreeSearch9SearchRecEiPNS_6KDNODEE@Base 9.55.0~dfsg1-0ubuntu1
 _ZN9tesseract12KDTreeSearchC1EPNS_6KDTREEEPfi@Base 9.55.0~dfsg1-0ubuntu1
 _ZN9tesseract12KDTreeSearchC2EPNS_6KDTREEEPfi@Base 9.55.0~dfsg1-0ubuntu1
 _ZN9tesseract12KDTreeSearchD1Ev@Base 9.55.0~dfsg1-0ubuntu1
 _ZN9tesseract12KDTreeSearchD2Ev@Base 9.55.0~dfsg1-0ubuntu1
 _ZN9tesseract12LMPainPoints13RemapForSplitEi@Base 9.55.0~dfsg1-0ubuntu1
 _ZN9tesseract12LMPainPoints15GenerateInitialEPNS_8WERD_RESE@Base 9.55.0~dfsg1-0ubuntu1
 _ZN9tesseract12LMPainPoints16GenerateFromPathEfPNS_17ViterbiStateEntryEPNS_8WERD_RESE@Base 9.55.0~dfsg1-0ubuntu1
 _ZN9tesseract12LMPainPoints17GeneratePainPointEiiNS_16LMPainPointsTypeEfbfPNS_8WERD_RESE@Base 9.55.0~dfsg1-0ubuntu1
 _ZN9tesseract12LMPainPoints18GenerateFromAmbigsERKNS_13GenericVectorINS_12DANGERR_INFOEEEPNS_17ViterbiStateEntryEPNS_8WERD_RESE@Base 9.55.0~dfsg1-0ubuntu1
 _ZN9tesseract12LMPainPoints20kLooseMaxCharWhRatioE@Base 9.55.0~dfsg1-0ubuntu1
 _ZN9tesseract12LMPainPoints35kDefaultPainPointPriorityAdjustmentE@Base 9.55.0~dfsg1-0ubuntu1
 _ZN9tesseract12LMPainPoints5DequeEPNS_12MATRIX_COORDEPf@Base 9.55.0~dfsg1-0ubuntu1
 _ZN9tesseract12NewEdgePointEv@Base 9.55.0~dfsg1-0ubuntu1
 _ZN9tesseract12NewTempProtoEv@Base 9.55.0~dfsg1-0ubuntu1
 _ZN9tesseract12PageIterator10RestartRowEv@Base 9.55.0~dfsg1-0ubuntu1
 _ZN9tesseract12PageIterator16RestartParagraphEv@Base 9.55.0~dfsg1-0ubuntu1
 _ZN9tesseract12PageIterator19SetWordBlamerBundleEPNS_12BlamerBundleE@Base 9.55.0~dfsg1-0ubuntu1
 _ZN9tesseract12PageIterator4NextENS_17PageIteratorLevelE@Base 9.55.0~dfsg1-0ubuntu1
 _ZN9tesseract12PageIterator5BeginEv@Base 9.55.0~dfsg1-0ubuntu1
 _ZN9tesseract12PageIterator9BeginWordEi@Base 9.55.0~dfsg1-0ubuntu1
 _ZN9tesseract12PageIteratorC1EPNS_8PAGE_RESEPNS_9TesseractEiiiiii@Base 9.55.0~dfsg1-0ubuntu1
 _ZN9tesseract12PageIteratorC1ERKS0_@Base 9.55.0~dfsg1-0ubuntu1
 _ZN9tesseract12PageIteratorC2EPNS_8PAGE_RESEPNS_9TesseractEiiiiii@Base 9.55.0~dfsg1-0ubuntu1
 _ZN9tesseract12PageIteratorC2ERKS0_@Base 9.55.0~dfsg1-0ubuntu1
 _ZN9tesseract12PageIteratorD0Ev@Base 9.55.0~dfsg1-0ubuntu1
 _ZN9tesseract12PageIteratorD1Ev@Base 9.55.0~dfsg1-0ubuntu1
 _ZN9tesseract12PageIteratorD2Ev@Base 9.55.0~dfsg1-0ubuntu1
 _ZN9tesseract12PageIteratoraSERKS0_@Base 9.55.0~dfsg1-0ubuntu1
 _ZN9tesseract12PicoFeatDescE@Base 9.55.0~dfsg1-0ubuntu1
 _ZN9tesseract12ROW_RES_LIST9deep_copyEPKS0_PFPNS_7ROW_RESEPKS3_E@Base 9.55.0~dfsg1-0ubuntu1
 _ZN9tesseract12ReadAllBoxesEibPKcPSt6vectorINS_4TBOXESaIS3_EEPS2_INS_6STRINGESaIS7_EESA_PS2_IiSaIiEE@Base 9.55.0~dfsg1-0ubuntu1
 _ZN9tesseract12ReadMemBoxesEibPKcbPSt6vectorINS_4TBOXESaIS3_EEPS2_INS_6STRINGESaIS7_EESA_PS2_IiSaIiEE@Base 9.55.0~dfsg1-0ubuntu1
 _ZN9tesseract12RowsFitModelEPKNS_13GenericVectorINS_19RowScratchRegistersEEEiiPKNS_14ParagraphModelE@Base 9.55.0~dfsg1-0ubuntu1
 _ZN9tesseract12SquishedDawg18read_squished_dawgEPNS_5TFileE@Base 9.55.0~dfsg1-0ubuntu1
 _ZN9tesseract12SquishedDawg19write_squished_dawgEPNS_5TFileE@Base 9.55.0~dfsg1-0ubuntu1
 _ZN9tesseract12SquishedDawgD0Ev@Base 9.55.0~dfsg1-0ubuntu1
 _ZN9tesseract12SquishedDawgD1Ev@Base 9.55.0~dfsg1-0ubuntu1
 _ZN9tesseract12SquishedDawgD2Ev@Base 9.55.0~dfsg1-0ubuntu1
 _ZN9tesseract12WeightMatrix11DeSerializeEbPNS_5TFileE@Base 9.55.0~dfsg1-0ubuntu1
 _ZN9tesseract12WeightMatrix12ConvertToIntEv@Base 9.55.0~dfsg1-0ubuntu1
 _ZN9tesseract12WeightMatrix12InitBackwardEv@Base 9.55.0~dfsg1-0ubuntu1
 _ZN9tesseract12WeightMatrix12RemapOutputsERKSt6vectorIiSaIiEE@Base 9.55.0~dfsg1-0ubuntu1
 _ZN9tesseract12WeightMatrix13FloatToDoubleERKNS_16GENERIC_2D_ARRAYIfEEPNS1_IdEE@Base 9.55.0~dfsg1-0ubuntu1
 _ZN9tesseract12WeightMatrix14DeSerializeOldEbPNS_5TFileE@Base 9.55.0~dfsg1-0ubuntu1
 _ZN9tesseract12WeightMatrix16InitWeightsFloatEiibfPNS_5TRandE@Base 9.55.0~dfsg1-0ubuntu1
 _ZN9tesseract12WeightMatrix18MultiplyAccumulateEPKdPd@Base 9.55.0~dfsg1-0ubuntu1
 _ZN9tesseract12WeightMatrix18SumOuterTransposedERKNS_15TransposedArrayES3_b@Base 9.55.0~dfsg1-0ubuntu1
 _ZN9tesseract12WeightMatrix6UpdateEdddi@Base 9.55.0~dfsg1-0ubuntu1
 _ZN9tesseract12WeightMatrix7Debug2DEPKc@Base 9.55.0~dfsg1-0ubuntu1
 _ZN9tesseract12WeightMatrix9AddDeltasERKS0_@Base 9.55.0~dfsg1-0ubuntu1
 _ZN9tesseract12blob_x_orderEPKvS1_@Base 9.55.0~dfsg1-0ubuntu1
 _ZN9tesseract12divide_blobsEPNS_5TBLOBES1_bRKNS_6TPOINTE@Base 9.55.0~dfsg1-0ubuntu1
 _ZN9tesseract12fill_bucketsEPNS_14C_OUTLINE_LISTEPNS_10OL_BUCKETSE@Base 9.55.0~dfsg1-0ubuntu1
 _ZN9tesseract12fill_heightsEPNS_6TO_ROWEfiiPNS_5STATSES3_@Base 9.55.0~dfsg1-0ubuntu1
 _ZN9tesseract12fit_lms_lineEPNS_6TO_ROWE@Base 9.55.0~dfsg1-0ubuntu1
 _ZN9tesseract12fixspace_dbgEPNS_8WERD_RESE@Base 9.55.0~dfsg1-0ubuntu1
 _ZN9tesseract12gapmap_debugE@Base 9.55.0~dfsg1-0ubuntu1
 _ZN9tesseract12swap_entriesEPvmii@Base 9.55.0~dfsg1-0ubuntu1
 _ZN9tesseract13BLOBNBOX_LIST9deep_copyEPKS0_PFPNS_8BLOBNBOXEPKS3_E@Base 9.55.0~dfsg1-0ubuntu1
 _ZN9tesseract13BLOCK_LINE_IT8get_lineEsRs@Base 9.55.0~dfsg1-0ubuntu1
 _ZN9tesseract13BLOCK_RECT_IT11start_blockEv@Base 9.55.0~dfsg1-0ubuntu1
 _ZN9tesseract13BLOCK_RECT_IT12set_to_blockEPNS_5PDBLKE@Base 9.55.0~dfsg1-0ubuntu1
 _ZN9tesseract13BLOCK_RECT_IT7forwardEv@Base 9.55.0~dfsg1-0ubuntu1
 _ZN9tesseract13BLOCK_RECT_ITC1EPNS_5PDBLKE@Base 9.55.0~dfsg1-0ubuntu1
 _ZN9tesseract13BLOCK_RECT_ITC2EPNS_5PDBLKE@Base 9.55.0~dfsg1-0ubuntu1
 _ZN9tesseract13BaselineBlock13DrawPixSplineEP3Pix@Base 9.55.0~dfsg1-0ubuntu1
 _ZN9tesseract13BaselineBlock17RefineLineSpacingERKNS_13GenericVectorIdEE@Base 9.55.0~dfsg1-0ubuntu1
 _ZN9tesseract13BaselineBlock17SpacingModelErrorEddd@Base 9.55.0~dfsg1-0ubuntu1
 _ZN9tesseract13BaselineBlock18ComputeLineSpacingEv@Base 9.55.0~dfsg1-0ubuntu1
 _ZN9tesseract13BaselineBlock18FitBaselineSplinesEbbPNS_7TextordE@Base 9.55.0~dfsg1-0ubuntu1
 _ZN9tesseract13BaselineBlock19EstimateLineSpacingEv@Base 9.55.0~dfsg1-0ubuntu1
 _ZN9tesseract13BaselineBlock19FitLineSpacingModelERKNS_13GenericVectorIdEEdPdS5_Pi@Base 9.55.0~dfsg1-0ubuntu1
 _ZN9tesseract13BaselineBlock20ParallelizeBaselinesEd@Base 9.55.0~dfsg1-0ubuntu1
 _ZN9tesseract13BaselineBlock23FitBaselinesAndFindSkewEb@Base 9.55.0~dfsg1-0ubuntu1
 _ZN9tesseract13BaselineBlock23PrepareForSplineFittingENS_6ICOORDEb@Base 9.55.0~dfsg1-0ubuntu1
 _ZN9tesseract13BaselineBlock24ComputeBaselinePositionsERKNS_6FCOORDEPNS_13GenericVectorIdEE@Base 9.55.0~dfsg1-0ubuntu1
 _ZN9tesseract13BaselineBlockC1EibPNS_8TO_BLOCKE@Base 9.55.0~dfsg1-0ubuntu1
 _ZN9tesseract13BaselineBlockC2EibPNS_8TO_BLOCKE@Base 9.55.0~dfsg1-0ubuntu1
 _ZN9tesseract13CHAR_FRAGMENT17parse_from_stringEPKc@Base 9.55.0~dfsg1-0ubuntu1
 _ZN9tesseract13CHAR_FRAGMENT9to_stringEPKciib@Base 9.55.0~dfsg1-0ubuntu1
 _ZN9tesseract13C_BLOB_zapperEPNS_10ELIST_LINKE@Base 9.55.0~dfsg1-0ubuntu1
 _ZN9tesseract13CircBucketForEffi@Base 9.55.0~dfsg1-0ubuntu1
 _ZN9tesseract13ConvertConfigEPjiPNS_16INT_CLASS_STRUCTE@Base 9.55.0~dfsg1-0ubuntu1
 _ZN9tesseract13DocumentCache10AddToCacheEPNS_12DocumentDataE@Base 9.55.0~dfsg1-0ubuntu1
 _ZN9tesseract13DocumentCache10TotalPagesEv@Base 9.55.0~dfsg1-0ubuntu1
 _ZN9tesseract13DocumentCache13LoadDocumentsERKSt6vectorINS_6STRINGESaIS2_EENS_15CachingStrategyEPFbPKcPS1_IcSaIcEEE@Base 9.55.0~dfsg1-0ubuntu1
 _ZN9tesseract13DocumentCache17GetPageRoundRobinEi@Base 9.55.0~dfsg1-0ubuntu1
 _ZN9tesseract13DocumentCache17GetPageSequentialEi@Base 9.55.0~dfsg1-0ubuntu1
 _ZN9tesseract13DocumentCache18CountNeighbourDocsEii@Base 9.55.0~dfsg1-0ubuntu1
 _ZN9tesseract13DocumentCacheC1El@Base 9.55.0~dfsg1-0ubuntu1
 _ZN9tesseract13DocumentCacheC2El@Base 9.55.0~dfsg1-0ubuntu1
 _ZN9tesseract13DocumentCacheD1Ev@Base 9.55.0~dfsg1-0ubuntu1
 _ZN9tesseract13DocumentCacheD2Ev@Base 9.55.0~dfsg1-0ubuntu1
 _ZN9tesseract13ExtractMicrosEPNS_5TBLOBERKNS_6DENORME@Base 9.55.0~dfsg1-0ubuntu1
 _ZN9tesseract13FontInfoTable11DeSerializeEPNS_5TFileE@Base 9.55.0~dfsg1-0ubuntu1
 _ZN9tesseract13FontInfoTable19MoveSpacingInfoFromEPS0_@Base 9.55.0~dfsg1-0ubuntu1
 _ZN9tesseract13FontInfoTable6MoveToEPNS_12UnicityTableINS_8FontInfoEEE@Base 9.55.0~dfsg1-0ubuntu1
 _ZN9tesseract13FontInfoTableC1Ev@Base 9.55.0~dfsg1-0ubuntu1
 _ZN9tesseract13FontInfoTableC2Ev@Base 9.55.0~dfsg1-0ubuntu1
 _ZN9tesseract13FontInfoTableD1Ev@Base 9.55.0~dfsg1-0ubuntu1
 _ZN9tesseract13FontInfoTableD2Ev@Base 9.55.0~dfsg1-0ubuntu1
 _ZN9tesseract13FreeClustererEPNS_9CLUSTERERE@Base 9.55.0~dfsg1-0ubuntu1
 _ZN9tesseract13FreeMFOutlineEPv@Base 9.55.0~dfsg1-0ubuntu1
 _ZN9tesseract13FreeProtoListEPPNS_8list_recE@Base 9.55.0~dfsg1-0ubuntu1
 _ZN9tesseract13FreePrototypeEPv@Base 9.55.0~dfsg1-0ubuntu1
 _ZN9tesseract13FreeTempProtoEPv@Base 9.55.0~dfsg1-0ubuntu1
 _ZN9tesseract13FullPageBlockEiiPNS_10BLOCK_LISTE@Base 9.55.0~dfsg1-0ubuntu1
 _ZN9tesseract13HistogramRectEP3PixiiiiiPi@Base 9.55.0~dfsg1-0ubuntu1
 _ZN9tesseract13InitIntegerFXEv@Base 9.55.0~dfsg1-0ubuntu1
 _ZN9tesseract13IntSimdMatrix13intSimdMatrixE@Base 9.55.0~dfsg1-0ubuntu1
 _ZN9tesseract13IntSimdMatrix15MatrixDotVectorERKNS_16GENERIC_2D_ARRAYIaEERKSt6vectorIdSaIdEEPKaPd@Base 9.55.0~dfsg1-0ubuntu1
 _ZN9tesseract13IntSimdMatrix17intSimdMatrixNEONE@Base 9.55.0~dfsg1-0ubuntu5.9
 _ZN9tesseract13LanguageModel11InitForWordEPKNS_11WERD_CHOICEEbff@Base 9.55.0~dfsg1-0ubuntu1
 _ZN9tesseract13LanguageModel11UpdateStateEbiiPNS_16BLOB_CHOICE_LISTEPNS_18LanguageModelStateEPNS_12LMPainPointsEPNS_8WERD_RESEPNS_16BestChoiceBundleEPNS_12BlamerBundleE@Base 9.55.0~dfsg1-0ubuntu1
 _ZN9tesseract13LanguageModel12ComputeDenomEPNS_16BLOB_CHOICE_LISTE@Base 9.55.0~dfsg1-0ubuntu1
 _ZN9tesseract13LanguageModel13ConstructWordEPNS_17ViterbiStateEntryEPNS_8WERD_RESEPNS_13GenericVectorINS_12DANGERR_INFOEEEPNS_12BlamerBundleEPb@Base 9.55.0~dfsg1-0ubuntu1
 _ZN9tesseract13LanguageModel16ComputeNgramCostEPKcffS2_PiPbPf@Base 9.55.0~dfsg1-0ubuntu1
 _ZN9tesseract13LanguageModel16GenerateDawgInfoEbiiRKNS_11BLOB_CHOICEEPKNS_17ViterbiStateEntryE@Base 9.55.0~dfsg1-0ubuntu1
 _ZN9tesseract13LanguageModel16UpdateBestChoiceEPNS_17ViterbiStateEntryEPNS_12LMPainPointsEPNS_8WERD_RESEPNS_16BestChoiceBundleEPNS_12BlamerBundleE@Base 9.55.0~dfsg1-0ubuntu1
 _ZN9tesseract13LanguageModel16kMaxAvgNgramCostE@Base 9.55.0~dfsg1-0ubuntu1
 _ZN9tesseract13LanguageModel17GenerateNgramInfoEPKcffiifPKNS_17ViterbiStateEntryE@Base 9.55.0~dfsg1-0ubuntu1
 _ZN9tesseract13LanguageModel19FillConsistencyInfoEibPNS_11BLOB_CHOICEEPNS_17ViterbiStateEntryEPNS_8WERD_RESEPNS_17LMConsistencyInfoE@Base 9.55.0~dfsg1-0ubuntu1
 _ZN9tesseract13LanguageModel20AddViterbiStateEntryEhfbiiPNS_11BLOB_CHOICEEPNS_18LanguageModelStateEPNS_17ViterbiStateEntryEPNS_12LMPainPointsEPNS_8WERD_RESEPNS_16BestChoiceBundleEPNS_12BlamerBundleE@Base 9.55.0~dfsg1-0ubuntu1
 _ZN9tesseract13LanguageModel21GenerateTopChoiceInfoEPNS_17ViterbiStateEntryEPKS1_PNS_18LanguageModelStateE@Base 9.55.0~dfsg1-0ubuntu1
 _ZN9tesseract13LanguageModel23ComputeAdjustedPathCostEPNS_17ViterbiStateEntryE@Base 9.55.0~dfsg1-0ubuntu1
 _ZN9tesseract13LanguageModel23ExtractFeaturesFromPathERKNS_17ViterbiStateEntryEPf@Base 9.55.0~dfsg1-0ubuntu1
 _ZN9tesseract13LanguageModelC1EPKNS_12UnicityTableINS_8FontInfoEEEPNS_4DictE@Base 9.55.0~dfsg1-0ubuntu1
 _ZN9tesseract13LanguageModelC2EPKNS_12UnicityTableINS_8FontInfoEEEPNS_4DictE@Base 9.55.0~dfsg1-0ubuntu1
 _ZN9tesseract13LanguageModelD1Ev@Base 9.55.0~dfsg1-0ubuntu1
 _ZN9tesseract13LanguageModelD2Ev@Base 9.55.0~dfsg1-0ubuntu1
 _ZN9tesseract13LogisticTableE@Base 9.55.0~dfsg1-0ubuntu1
 _ZN9tesseract13MakeClustererEsPKNS_10PARAM_DESCE@Base 9.55.0~dfsg1-0ubuntu1
 _ZN9tesseract13MergeClustersEsPNS_10PARAM_DESCEiiPfS2_S2_@Base 9.55.0~dfsg1-0ubuntu1
 _ZN9tesseract13NewFeatureSetEi@Base 9.55.0~dfsg1-0ubuntu1
 _ZN9tesseract13NewTempConfigEii@Base 9.55.0~dfsg1-0ubuntu1
 _ZN9tesseract13NextExtremityEPNS_8list_recE@Base 9.55.0~dfsg1-0ubuntu1
 _ZN9tesseract13OtsuThresholdEP3PixiiiiPPiS3_@Base 9.55.0~dfsg1-0ubuntu1
 _ZN9tesseract13ReadParamDescEPNS_5TFileEt@Base 9.55.0~dfsg1-0ubuntu1
 _ZN9tesseract13ReadPrototypeEPNS_5TFileEt@Base 9.55.0~dfsg1-0ubuntu1
 _ZN9tesseract13SORTED_FLOATS3addEfi@Base 9.55.0~dfsg1-0ubuntu1
 _ZN9tesseract13SORTED_FLOATS6removeEi@Base 9.55.0~dfsg1-0ubuntu1
 _ZN9tesseract13SORTED_FLOATSixEi@Base 9.55.0~dfsg1-0ubuntu1
 _ZN9tesseract13SortByBoxLeftINS_10ColSegmentEEEiPKvS3_@Base 9.55.0~dfsg1-0ubuntu1
 _ZN9tesseract13SortByBoxLeftINS_11WordWithBoxEEEiPKvS3_@Base 9.55.0~dfsg1-0ubuntu1
 _ZN9tesseract13SortByBoxLeftINS_12ColPartitionEEEiPKvS3_@Base 9.55.0~dfsg1-0ubuntu1
 _ZN9tesseract13SortByBoxLeftINS_8BLOBNBOXEEEiPKvS3_@Base 9.55.0~dfsg1-0ubuntu1
 _ZN9tesseract13TO_BLOCK_LIST9deep_copyEPKS0_PFPNS_8TO_BLOCKEPKS3_E@Base 9.55.0~dfsg1-0ubuntu1
 _ZN9tesseract13TO_ROW_zapperEPNS_11ELIST2_LINKE@Base 9.55.0~dfsg1-0ubuntu1
 _ZN9tesseract13TabConstraint14GetConstraintsEPNS_18TabConstraint_LISTEPiS3_@Base 9.55.0~dfsg1-0ubuntu1
 _ZN9tesseract13TabConstraint16ApplyConstraintsEPNS_18TabConstraint_LISTE@Base 9.55.0~dfsg1-0ubuntu1
 _ZN9tesseract13TabConstraint16CreateConstraintEPNS_9TabVectorEb@Base 9.55.0~dfsg1-0ubuntu1
 _ZN9tesseract13TabConstraint16MergeConstraintsEPNS_18TabConstraint_LISTES2_@Base 9.55.0~dfsg1-0ubuntu1
 _ZN9tesseract13TabConstraint21CompatibleConstraintsEPNS_18TabConstraint_LISTES2_@Base 9.55.0~dfsg1-0ubuntu1
 _ZN9tesseract13TabConstraintC1EPNS_9TabVectorEb@Base 9.55.0~dfsg1-0ubuntu1
 _ZN9tesseract13TabConstraintC2EPNS_9TabVectorEb@Base 9.55.0~dfsg1-0ubuntu1
 _ZN9tesseract13UnicharAmbigs13LoadUniversalERKNS_10UNICHARSETEPS1_@Base 9.55.0~dfsg1-0ubuntu1
 _ZN9tesseract13UnicharAmbigs15InsertIntoTableERNS_13GenericVectorIPNS_14AmbigSpec_LISTEEEiPiiPKciPNS_9AmbigSpecEPNS_10UNICHARSETE@Base 9.55.0~dfsg1-0ubuntu1
 _ZN9tesseract13UnicharAmbigs17InitUnicharAmbigsERKNS_10UNICHARSETEb@Base 9.55.0~dfsg1-0ubuntu1
 _ZN9tesseract13UnicharAmbigs17LoadUnicharAmbigsERKNS_10UNICHARSETEPNS_5TFileEibPS1_@Base 9.55.0~dfsg1-0ubuntu1
 _ZN9tesseract13UnicharAmbigs18ParseAmbiguityLineEiiiRKNS_10UNICHARSETEPcPiS5_S5_S4_S5_@Base 9.55.0~dfsg1-0ubuntu1
 _ZN9tesseract13UnicharRating22FirstResultWithUnicharERKNS_13GenericVectorIS0_EEi@Base 9.55.0~dfsg1-0ubuntu1
 _ZN9tesseract13ValidBodyLineEPKNS_13GenericVectorINS_19RowScratchRegistersEEEiPKNS_14ParagraphModelE@Base 9.55.0~dfsg1-0ubuntu1
 _ZN9tesseract13WERD_RES_LIST9deep_copyEPKS0_PFPNS_8WERD_RESEPKS3_E@Base 9.55.0~dfsg1-0ubuntu1
 _ZN9tesseract13complete_edgeEPNS_9CRACKEDGEEPNS_12C_OUTLINE_ITE@Base 9.55.0~dfsg1-0ubuntu1
 _ZN9tesseract13crotate_cblobEPNS_6C_BLOBENS_6FCOORDE@Base 9.55.0~dfsg1-0ubuntu1
 _ZN9tesseract13destroy_nodesEPNS_8list_recEPFvPvE@Base 9.55.0~dfsg1-0ubuntu1
 _ZN9tesseract13empty_bucketsEPNS_5BLOCKEPNS_10OL_BUCKETSE@Base 9.55.0~dfsg1-0ubuntu1
 _ZN9tesseract13extract_edgesEP3PixPNS_5BLOCKE@Base 9.55.0~dfsg1-0ubuntu1
 _ZN9tesseract13fix_row_pitchEPNS_6TO_ROWEPNS_8TO_BLOCKEPNS_13TO_BLOCK_LISTEii@Base 9.55.0~dfsg1-0ubuntu1
 _ZN9tesseract13pick_x_heightEPNS_6TO_ROWEPiS2_S2_PNS_5STATSEi@Base 9.55.0~dfsg1-0ubuntu1
 _ZN9tesseract13reject_blanksEPNS_8WERD_RESE@Base 9.55.0~dfsg1-0ubuntu1
 _ZN9tesseract13remove_edgeptEPNS_6EDGEPTE@Base 9.55.0~dfsg1-0ubuntu1
 _ZN9tesseract13split_to_blobEPNS_8BLOBNBOXEsfPNS_14C_OUTLINE_LISTES3_@Base 9.55.0~dfsg1-0ubuntu1
 _ZN9tesseract13textord_minxhE@Base 9.55.0~dfsg1-0ubuntu1
 _ZN9tesseract13try_doc_fixedENS_6ICOORDEPNS_13TO_BLOCK_LISTEf@Base 9.55.0~dfsg1-0ubuntu1
 _ZN9tesseract14AmbigSpec_LIST9deep_copyEPKS0_PFPNS_9AmbigSpecEPKS3_E@Base 9.55.0~dfsg1-0ubuntu1
 _ZN9tesseract14AssociateUtils12ComputeStatsEiiPKNS_14AssociateStatsEibfPNS_8WERD_RESEbPS1_@Base 9.55.0~dfsg1-0ubuntu1
 _ZN9tesseract14AssociateUtils19FixedPitchWidthCostEffbf@Base 9.55.0~dfsg1-0ubuntu1
 _ZN9tesseract14AssociateUtils29kMaxFixedPitchCharAspectRatioE@Base 9.55.0~dfsg1-0ubuntu1
 _ZN9tesseract14AssociateUtils7kMinGapE@Base 9.55.0~dfsg1-0ubuntu1
 _ZN9tesseract14BLOCK_RES_LIST9deep_copyEPKS0_PFPNS_9BLOCK_RESEPKS3_E@Base 9.55.0~dfsg1-0ubuntu1
 _ZN9tesseract14BaselineDetect24ComputeStraightBaselinesEb@Base 9.55.0~dfsg1-0ubuntu1
 _ZN9tesseract14BaselineDetect33ComputeBaselineSplinesAndXheightsERKNS_6ICOORDEbbbPNS_7TextordE@Base 9.55.0~dfsg1-0ubuntu1
 _ZN9tesseract14BaselineDetectC1EiRKNS_6FCOORDEPNS_13TO_BLOCK_LISTE@Base 9.55.0~dfsg1-0ubuntu1
 _ZN9tesseract14BaselineDetectC2EiRKNS_6FCOORDEPNS_13TO_BLOCK_LISTE@Base 9.55.0~dfsg1-0ubuntu1
 _ZN9tesseract14CLIST_ITERATOR12move_to_lastEv@Base 9.55.0~dfsg1-0ubuntu1
 _ZN9tesseract14CLIST_ITERATOR13data_relativeEa@Base 9.55.0~dfsg1-0ubuntu1
 _ZN9tesseract14CLIST_ITERATOR15extract_sublistEPS0_@Base 9.55.0~dfsg1-0ubuntu1
 _ZN9tesseract14CLIST_ITERATOR7forwardEv@Base 9.55.0~dfsg1-0ubuntu1
 _ZN9tesseract14CLIST_ITERATOR8exchangeEPS0_@Base 9.55.0~dfsg1-0ubuntu1
 _ZN9tesseract14C_OUTLINE_FRAG5closeEv@Base 9.55.0~dfsg1-0ubuntu1
 _ZN9tesseract14C_OUTLINE_FRAGC1ENS_6ICOORDES1_PNS_9C_OUTLINEEss@Base 9.55.0~dfsg1-0ubuntu1
 _ZN9tesseract14C_OUTLINE_FRAGC1EPS0_s@Base 9.55.0~dfsg1-0ubuntu1
 _ZN9tesseract14C_OUTLINE_FRAGC2ENS_6ICOORDES1_PNS_9C_OUTLINEEss@Base 9.55.0~dfsg1-0ubuntu1
 _ZN9tesseract14C_OUTLINE_FRAGC2EPS0_s@Base 9.55.0~dfsg1-0ubuntu1
 _ZN9tesseract14C_OUTLINE_FRAGaSERKS0_@Base 9.55.0~dfsg1-0ubuntu1
 _ZN9tesseract14C_OUTLINE_LIST9deep_copyEPKS0_PFPNS_9C_OUTLINEEPKS3_E@Base 9.55.0~dfsg1-0ubuntu1
 _ZN9tesseract14ChoiceIterator12filterSpacesEv@Base 9.55.0~dfsg1-0ubuntu1
 _ZN9tesseract14ChoiceIterator4NextEv@Base 9.55.0~dfsg1-0ubuntu1
 _ZN9tesseract14ChoiceIteratorC1ERKNS_17LTRResultIteratorE@Base 9.55.0~dfsg1-0ubuntu1
 _ZN9tesseract14ChoiceIteratorC2ERKNS_17LTRResultIteratorE@Base 9.55.0~dfsg1-0ubuntu1
 _ZN9tesseract14ChoiceIteratorD1Ev@Base 9.55.0~dfsg1-0ubuntu1
 _ZN9tesseract14ChoiceIteratorD2Ev@Base 9.55.0~dfsg1-0ubuntu1
 _ZN9tesseract14ClusterSamplesEPNS_9CLUSTEREREPNS_13CLUSTERCONFIGE@Base 9.55.0~dfsg1-0ubuntu1
 _ZN9tesseract14ConvertOutlineEPNS_8TESSLINEE@Base 9.55.0~dfsg1-0ubuntu1
 _ZN9tesseract14ELIST_ITERATOR12move_to_lastEv@Base 9.55.0~dfsg1-0ubuntu1
 _ZN9tesseract14ELIST_ITERATOR13data_relativeEa@Base 9.55.0~dfsg1-0ubuntu1
 _ZN9tesseract14ELIST_ITERATOR15extract_sublistEPS0_@Base 9.55.0~dfsg1-0ubuntu1
 _ZN9tesseract14ELIST_ITERATOR7forwardEv@Base 9.55.0~dfsg1-0ubuntu1
 _ZN9tesseract14ELIST_ITERATOR8exchangeEPS0_@Base 9.55.0~dfsg1-0ubuntu1
 _ZN9tesseract14EquationDetect10ExpandSeedEPNS_12ColPartitionE@Base 9.55.0~dfsg1-0ubuntu1
 _ZN9tesseract14EquationDetect10IsIndentedEPNS_12ColPartitionE@Base 9.55.0~dfsg1-0ubuntu1
 _ZN9tesseract14EquationDetect10SplitCPHorEPNS_12ColPartitionEPNS_13GenericVectorIS2_EE@Base 9.55.0~dfsg1-0ubuntu1
 _ZN9tesseract14EquationDetect13CheckForSeed2ERKNS_13GenericVectorIiEEfPNS_12ColPartitionE@Base 9.55.0~dfsg1-0ubuntu1
 _ZN9tesseract14EquationDetect13SetResolutionEi@Base 9.55.0~dfsg1-0ubuntu1
 _ZN9tesseract14EquationDetect14SplitCPHorLiteEPNS_12ColPartitionEPNS_13GenericVectorINS_4TBOXEEE@Base 9.55.0~dfsg1-0ubuntu1
 _ZN9tesseract14EquationDetect15SearchByOverlapEPNS_12ColPartitionEPNS_13GenericVectorIS2_EE@Base 9.55.0~dfsg1-0ubuntu1
 _ZN9tesseract14EquationDetect16LabelSpecialTextEPNS_8TO_BLOCKE@Base 9.55.0~dfsg1-0ubuntu1
 _ZN9tesseract14EquationDetect16SearchNNVerticalEbPKNS_12ColPartitionE@Base 9.55.0~dfsg1-0ubuntu1
 _ZN9tesseract14EquationDetect16SetLangTesseractEPNS_9TesseractE@Base 9.55.0~dfsg1-0ubuntu1
 _ZN9tesseract14EquationDetect17FindEquationPartsEPNS_16ColPartitionGridEPPNS_15ColPartitionSetE@Base 9.55.0~dfsg1-0ubuntu1
 _ZN9tesseract14EquationDetect17IdentifySeedPartsEv@Base 9.55.0~dfsg1-0ubuntu1
 _ZN9tesseract14EquationDetect18CheckSeedFgDensityEfPNS_12ColPartitionE@Base 9.55.0~dfsg1-0ubuntu1
 _ZN9tesseract14EquationDetect18ExpandSeedVerticalEbPNS_12ColPartitionEPNS_13GenericVectorIS2_EE@Base 9.55.0~dfsg1-0ubuntu1
 _ZN9tesseract14EquationDetect19CheckSeedBlobsCountEPNS_12ColPartitionE@Base 9.55.0~dfsg1-0ubuntu1
 _ZN9tesseract14EquationDetect19ComputeCPsSuperBBoxEv@Base 9.55.0~dfsg1-0ubuntu1
 _ZN9tesseract14EquationDetect19IdentifyBlobsToSkipEPNS_12ColPartitionE@Base 9.55.0~dfsg1-0ubuntu1
 _ZN9tesseract14EquationDetect19IdentifyInlinePartsEv@Base 9.55.0~dfsg1-0ubuntu1
 _ZN9tesseract14EquationDetect19IdentifySpecialTextEPNS_8BLOBNBOXEi@Base 9.55.0~dfsg1-0ubuntu1
 _ZN9tesseract14EquationDetect19IdentifySpecialTextEv@Base 9.55.0~dfsg1-0ubuntu1
 _ZN9tesseract14EquationDetect20ExpandSeedHorizontalEbPNS_12ColPartitionEPNS_13GenericVectorIS2_EE@Base 9.55.0~dfsg1-0ubuntu1
 _ZN9tesseract14EquationDetect20IsMathBlockSatelliteEPNS_12ColPartitionEPNS_13GenericVectorIS2_EE@Base 9.55.0~dfsg1-0ubuntu1
 _ZN9tesseract14EquationDetect20MergePartsByLocationEv@Base 9.55.0~dfsg1-0ubuntu1
 _ZN9tesseract14EquationDetect21InsertPartAfterAbsorbEPNS_12ColPartitionE@Base 9.55.0~dfsg1-0ubuntu1
 _ZN9tesseract14EquationDetect24ComputeForegroundDensityERKNS_4TBOXE@Base 9.55.0~dfsg1-0ubuntu1
 _ZN9tesseract14EquationDetect27EstimateTextPartLineSpacingEv@Base 9.55.0~dfsg1-0ubuntu1
 _ZN9tesseract14EquationDetect27IdentifyInlinePartsVerticalEbi@Base 9.55.0~dfsg1-0ubuntu1
 _ZN9tesseract14EquationDetect29IdentifyInlinePartsHorizontalEv@Base 9.55.0~dfsg1-0ubuntu1
 _ZN9tesseract14EquationDetect30ProcessMathBlockSatellitePartsEv@Base 9.55.0~dfsg1-0ubuntu1
 _ZN9tesseract14EquationDetect8IsInlineEbiPNS_12ColPartitionE@Base 9.55.0~dfsg1-0ubuntu1
 _ZN9tesseract14EquationDetectC1EPKcS2_@Base 9.55.0~dfsg1-0ubuntu1
 _ZN9tesseract14EquationDetectC2EPKcS2_@Base 9.55.0~dfsg1-0ubuntu1
 _ZN9tesseract14EquationDetectD0Ev@Base 9.55.0~dfsg1-0ubuntu1
 _ZN9tesseract14EquationDetectD1Ev@Base 9.55.0~dfsg1-0ubuntu1
 _ZN9tesseract14EquationDetectD2Ev@Base 9.55.0~dfsg1-0ubuntu1
 _ZN9tesseract14FPSEGPT_zapperEPNS_10ELIST_LINKE@Base 9.55.0~dfsg1-0ubuntu1
 _ZN9tesseract14FreeFeatureSetEPNS_18FEATURE_SET_STRUCTE@Base 9.55.0~dfsg1-0ubuntu1
 _ZN9tesseract14FreeTempConfigEPNS_18TEMP_CONFIG_STRUCTE@Base 9.55.0~dfsg1-0ubuntu1
 _ZN9tesseract14FullyConnected11DeSerializeEPNS_5TFileE@Base 9.55.0~dfsg1-0ubuntu1
 _ZN9tesseract14FullyConnected11InitWeightsEfPNS_5TRandE@Base 9.55.0~dfsg1-0ubuntu1
 _ZN9tesseract14FullyConnected12ConvertToIntEv@Base 9.55.0~dfsg1-0ubuntu1
 _ZN9tesseract14FullyConnected12DebugWeightsEv@Base 9.55.0~dfsg1-0ubuntu1
 _ZN9tesseract14FullyConnected12RemapOutputsEiRKSt6vectorIiSaIiEE@Base 9.55.0~dfsg1-0ubuntu1
 _ZN9tesseract14FullyConnected12SetupForwardERKNS_9NetworkIOEPKNS_15TransposedArrayE@Base 9.55.0~dfsg1-0ubuntu1
 _ZN9tesseract14FullyConnected14FinishBackwardERKNS_15TransposedArrayE@Base 9.55.0~dfsg1-0ubuntu1
 _ZN9tesseract14FullyConnected15ForwardTimeStepEPKaiPd@Base 9.55.0~dfsg1-0ubuntu1
 _ZN9tesseract14FullyConnected15ForwardTimeStepEPKdiPd@Base 9.55.0~dfsg1-0ubuntu1
 _ZN9tesseract14FullyConnected15ForwardTimeStepEiPd@Base 9.55.0~dfsg1-0ubuntu1
 _ZN9tesseract14FullyConnected16BackwardTimeStepERKNS_9NetworkIOEiPdPNS_15TransposedArrayES4_@Base 9.55.0~dfsg1-0ubuntu1
 _ZN9tesseract14FullyConnected17SetEnableTrainingENS_13TrainingStateE@Base 9.55.0~dfsg1-0ubuntu1
 _ZN9tesseract14FullyConnected6UpdateEfffi@Base 9.55.0~dfsg1-0ubuntu1
 _ZN9tesseract14FullyConnected7ForwardEbRKNS_9NetworkIOEPKNS_15TransposedArrayEPNS_14NetworkScratchEPS1_@Base 9.55.0~dfsg1-0ubuntu1
 _ZN9tesseract14FullyConnected8BackwardEbRKNS_9NetworkIOEPNS_14NetworkScratchEPS1_@Base 9.55.0~dfsg1-0ubuntu1
 _ZN9tesseract14FullyConnectedC1ERKNSt7__cxx1112basic_stringIcSt11char_traitsIcESaIcEEEiiNS_11NetworkTypeE@Base 9.55.0~dfsg1-0ubuntu1
 _ZN9tesseract14FullyConnectedC2ERKNSt7__cxx1112basic_stringIcSt11char_traitsIcESaIcEEEiiNS_11NetworkTypeE@Base 9.55.0~dfsg1-0ubuntu1
 _ZN9tesseract14ICOORDELT_LIST9deep_copyEPKS0_PFPNS_9ICOORDELTEPKS3_E@Base 9.55.0~dfsg1-0ubuntu1
 _ZN9tesseract14IntegerMatcher13FindBestMatchEPNS_16INT_CLASS_STRUCTERKNS_15ScratchEvidenceEPNS_13UnicharRatingE@Base 9.55.0~dfsg1-0ubuntu1
 _ZN9tesseract14IntegerMatcher14FindGoodProtosEPNS_16INT_CLASS_STRUCTEPjS3_sPNS_18INT_FEATURE_STRUCTEPsii@Base 9.55.0~dfsg1-0ubuntu1
 _ZN9tesseract14IntegerMatcher15FindBadFeaturesEPNS_16INT_CLASS_STRUCTEPjS3_sPNS_18INT_FEATURE_STRUCTEPhii@Base 9.55.0~dfsg1-0ubuntu1
 _ZN9tesseract14IntegerMatcher17ApplyCNCorrectionEfiii@Base 9.55.0~dfsg1-0ubuntu1
 _ZN9tesseract14IntegerMatcher17kSimilarityCenterE@Base 9.55.0~dfsg1-0ubuntu1
 _ZN9tesseract14IntegerMatcher22UpdateTablesForFeatureEPNS_16INT_CLASS_STRUCTEPjS3_iPKNS_18INT_FEATURE_STRUCTEPNS_15ScratchEvidenceEi@Base 9.55.0~dfsg1-0ubuntu1
 _ZN9tesseract14IntegerMatcher24kSEExponentialMultiplierE@Base 9.55.0~dfsg1-0ubuntu1
 _ZN9tesseract14IntegerMatcher5MatchEPNS_16INT_CLASS_STRUCTEPjS3_sPKNS_18INT_FEATURE_STRUCTEPNS_13UnicharRatingEiib@Base 9.55.0~dfsg1-0ubuntu1
 _ZN9tesseract14IntegerMatcherC1EPNS_8IntParamE@Base 9.55.0~dfsg1-0ubuntu1
 _ZN9tesseract14IntegerMatcherC2EPNS_8IntParamE@Base 9.55.0~dfsg1-0ubuntu1
 _ZN9tesseract14InterwordSpaceERKNS_13GenericVectorINS_19RowScratchRegistersEEEii@Base 9.55.0~dfsg1-0ubuntu1
 _ZN9tesseract14LSTMRecognizer11DeSerializeEPKNS_15TessdataManagerEPNS_5TFileE@Base 9.55.0~dfsg1-0ubuntu1
 _ZN9tesseract14LSTMRecognizer11DecodeLabelERKSt6vectorIiSaIiEEiPiS6_@Base 9.55.0~dfsg1-0ubuntu1
 _ZN9tesseract14LSTMRecognizer11LoadRecoderEPNS_5TFileE@Base 9.55.0~dfsg1-0ubuntu1
 _ZN9tesseract14LSTMRecognizer11OutputStatsERKNS_9NetworkIOEPfS4_S4_@Base 9.55.0~dfsg1-0ubuntu1
 _ZN9tesseract14LSTMRecognizer12DecodeLabelsERKSt6vectorIiSaIiEE@Base 9.55.0~dfsg1-0ubuntu1
 _ZN9tesseract14LSTMRecognizer12LoadCharsetsEPKNS_15TessdataManagerE@Base 9.55.0~dfsg1-0ubuntu1
 _ZN9tesseract14LSTMRecognizer13RecognizeLineERKNS_9ImageDataEbbbbPfPNS_9NetworkIOES6_@Base 9.55.0~dfsg1-0ubuntu1
 _ZN9tesseract14LSTMRecognizer13RecognizeLineERKNS_9ImageDataEbbdRKNS_4TBOXEPNS_13PointerVectorINS_8WERD_RESEEEii@Base 9.55.0~dfsg1-0ubuntu1
 _ZN9tesseract14LSTMRecognizer14LoadDictionaryEPKNS_13ParamsVectorsEPKcPNS_15TessdataManagerE@Base 9.55.0~dfsg1-0ubuntu1
 _ZN9tesseract14LSTMRecognizer17DecodeSingleLabelEi@Base 9.55.0~dfsg1-0ubuntu1
 _ZN9tesseract14LSTMRecognizer17LabelsFromOutputsERKNS_9NetworkIOEPSt6vectorIiSaIiEES7_@Base 9.55.0~dfsg1-0ubuntu1
 _ZN9tesseract14LSTMRecognizer17LabelsViaReEncodeERKNS_9NetworkIOEPSt6vectorIiSaIiEES7_@Base 9.55.0~dfsg1-0ubuntu1
 _ZN9tesseract14LSTMRecognizer19DebugActivationPathERKNS_9NetworkIOERKSt6vectorIiSaIiEES8_@Base 9.55.0~dfsg1-0ubuntu1
 _ZN9tesseract14LSTMRecognizer19LabelsViaSimpleTextERKNS_9NetworkIOEPSt6vectorIiSaIiEES7_@Base 9.55.0~dfsg1-0ubuntu1
 _ZN9tesseract14LSTMRecognizer20DebugActivationRangeERKNS_9NetworkIOEPKciii@Base 9.55.0~dfsg1-0ubuntu1
 _ZN9tesseract14LSTMRecognizer4LoadEPKNS_13ParamsVectorsEPKcPNS_15TessdataManagerE@Base 9.55.0~dfsg1-0ubuntu1
 _ZN9tesseract14LSTMRecognizerC1EPKc@Base 9.55.0~dfsg1-0ubuntu1
 _ZN9tesseract14LSTMRecognizerC1Ev@Base 9.55.0~dfsg1-0ubuntu1
 _ZN9tesseract14LSTMRecognizerC2EPKc@Base 9.55.0~dfsg1-0ubuntu1
 _ZN9tesseract14LSTMRecognizerC2Ev@Base 9.55.0~dfsg1-0ubuntu1
 _ZN9tesseract14LSTMRecognizerD1Ev@Base 9.55.0~dfsg1-0ubuntu1
 _ZN9tesseract14LSTMRecognizerD2Ev@Base 9.55.0~dfsg1-0ubuntu1
 _ZN9tesseract14MakeBoxFileStrEPKcRKNS_4TBOXEiPNS_6STRINGE@Base 9.55.0~dfsg1-0ubuntu1
 _ZN9tesseract14NormalizePicoXEPNS_18FEATURE_SET_STRUCTE@Base 9.55.0~dfsg1-0ubuntu1
 _ZN9tesseract14PixelHistogram26ConstructVerticalCountHistEP3Pix@Base 9.55.0~dfsg1-0ubuntu1
 _ZN9tesseract14PixelHistogram28ConstructHorizontalCountHistEP3Pix@Base 9.55.0~dfsg1-0ubuntu1
 _ZN9tesseract14ROW_RES_zapperEPNS_10ELIST_LINKE@Base 9.55.0~dfsg1-0ubuntu1
 _ZN9tesseract14ReadFeatureSetEP8_IO_FILEPKNS_19FEATURE_DESC_STRUCTE@Base 9.55.0~dfsg1-0ubuntu1
 _ZN9tesseract14ReadPermConfigEPNS_5TFileE@Base 9.55.0~dfsg1-0ubuntu1
 _ZN9tesseract14ReadSampleSizeEPNS_5TFileE@Base 9.55.0~dfsg1-0ubuntu1
 _ZN9tesseract14ReadTempConfigEPNS_5TFileE@Base 9.55.0~dfsg1-0ubuntu1
 _ZN9tesseract14ResultIterator12kComplexWordE@Base 9.55.0~dfsg1-0ubuntu1
 _ZN9tesseract14ResultIterator12kMinorRunEndE@Base 9.55.0~dfsg1-0ubuntu1
 _ZN9tesseract14ResultIterator14kMinorRunStartE@Base 9.55.0~dfsg1-0ubuntu1
 _ZN9tesseract14ResultIterator16StartOfParagraphERKNS_17LTRResultIteratorE@Base 9.55.0~dfsg1-0ubuntu1
 _ZN9tesseract14ResultIterator22CalculateTextlineOrderEbRKSt6vectorINS_21StrongScriptDirectionESaIS2_EEPS1_IiSaIiEE@Base 9.55.0~dfsg1-0ubuntu1
 _ZN9tesseract14ResultIterator24MoveToLogicalStartOfWordEv@Base 9.55.0~dfsg1-0ubuntu1
 _ZN9tesseract14ResultIterator28MoveToLogicalStartOfTextlineEv@Base 9.55.0~dfsg1-0ubuntu1
 _ZN9tesseract14ResultIterator32IterateAndAppendUTF8TextlineTextEPNSt7__cxx1112basic_stringIcSt11char_traitsIcESaIcEEE@Base 9.55.0~dfsg1-0ubuntu1
 _ZN9tesseract14ResultIterator4NextENS_17PageIteratorLevelE@Base 9.55.0~dfsg1-0ubuntu1
 _ZN9tesseract14ResultIterator5BeginEv@Base 9.55.0~dfsg1-0ubuntu1
 _ZN9tesseract14ResultIteratorC1ERKNS_17LTRResultIteratorE@Base 9.55.0~dfsg1-0ubuntu1
 _ZN9tesseract14ResultIteratorC2ERKNS_17LTRResultIteratorE@Base 9.55.0~dfsg1-0ubuntu1
 _ZN9tesseract14SVEventHandlerD0Ev@Base 9.55.0~dfsg1-0ubuntu1
 _ZN9tesseract14SVEventHandlerD1Ev@Base 9.55.0~dfsg1-0ubuntu1
 _ZN9tesseract14SVEventHandlerD2Ev@Base 9.55.0~dfsg1-0ubuntu1
 _ZN9tesseract14SaveDataToFileERKSt6vectorIcSaIcEEPKc@Base 9.55.0~dfsg1-0ubuntu1
 _ZN9tesseract14ScriptDetector11detect_blobEPNS_16BLOB_CHOICE_LISTE@Base 9.55.0~dfsg1-0ubuntu1
 _ZN9tesseract14ScriptDetector14korean_script_E@Base 9.55.0~dfsg1-0ubuntu1
 _ZN9tesseract14ScriptDetector15fraktur_script_E@Base 9.55.0~dfsg1-0ubuntu1
 _ZN9tesseract14ScriptDetector16japanese_script_E@Base 9.55.0~dfsg1-0ubuntu1
 _ZN9tesseract14ScriptDetector9must_stopEi@Base 9.55.0~dfsg1-0ubuntu1
 _ZN9tesseract14ScriptDetectorC1EPKSt6vectorIiSaIiEEPNS_9OSResultsEPNS_9TesseractE@Base 9.55.0~dfsg1-0ubuntu1
 _ZN9tesseract14ScriptDetectorC2EPKSt6vectorIiSaIiEEPNS_9OSResultsEPNS_9TesseractE@Base 9.55.0~dfsg1-0ubuntu1
 _ZN9tesseract14TabVector_LIST9deep_copyEPKS0_PFPNS_9TabVectorEPKS3_E@Base 9.55.0~dfsg1-0ubuntu1
 _ZN9tesseract14TessClassifier17DisplayClassifyAsERKNS_14TrainingSampleEP3PixiiPNS_13PointerVectorINS_10ScrollViewEEE@Base 9.55.0~dfsg1-0ubuntu1
 _ZN9tesseract14TessClassifier21UnicharClassifySampleERKNS_14TrainingSampleEP3PixiiPSt6vectorINS_13UnicharRatingESaIS7_EE@Base 9.55.0~dfsg1-0ubuntu1
 _ZN9tesseract14TrainingSample11DeSerializeEbP8_IO_FILE@Base 9.55.0~dfsg1-0ubuntu1
 _ZN9tesseract14TrainingSample12kScaleValuesE@Base 9.55.0~dfsg1-0ubuntu1
 _ZN9tesseract14TrainingSample13IndexFeaturesERKNS_15IntFeatureSpaceE@Base 9.55.0~dfsg1-0ubuntu1
 _ZN9tesseract14TrainingSample13kYShiftValuesE@Base 9.55.0~dfsg1-0ubuntu1
 _ZN9tesseract14TrainingSample15ExtractCharDescEiiiiPNS_16CHAR_DESC_STRUCTE@Base 9.55.0~dfsg1-0ubuntu1
 _ZN9tesseract14TrainingSample16CopyFromFeaturesERKNS_20INT_FX_RESULT_STRUCTERKNS_4TBOXEPKNS_18INT_FEATURE_STRUCTEi@Base 9.55.0~dfsg1-0ubuntu1
 _ZN9tesseract14TrainingSample17DeSerializeCreateEbP8_IO_FILE@Base 9.55.0~dfsg1-0ubuntu1
 _ZN9tesseract14TrainingSampleD1Ev@Base 9.55.0~dfsg1-0ubuntu1
 _ZN9tesseract14TrainingSampleD2Ev@Base 9.55.0~dfsg1-0ubuntu1
 _ZN9tesseract14ValidFirstLineEPKNS_13GenericVectorINS_19RowScratchRegistersEEEiPKNS_14ParagraphModelE@Base 9.55.0~dfsg1-0ubuntu1
 _ZN9tesseract14WorkingPartSet10MakeBlocksERKNS_6ICOORDES3_iPNS_17ColPartition_LISTE@Base 9.55.0~dfsg1-0ubuntu1
 _ZN9tesseract14WorkingPartSet12AddPartitionEPNS_12ColPartitionE@Base 9.55.0~dfsg1-0ubuntu1
 _ZN9tesseract14WorkingPartSet21InsertCompletedBlocksEPNS_10BLOCK_LISTEPNS_13TO_BLOCK_LISTE@Base 9.55.0~dfsg1-0ubuntu1
 _ZN9tesseract14WorkingPartSet22ExtractCompletedBlocksERKNS_6ICOORDES3_iPNS_17ColPartition_LISTEPNS_10BLOCK_LISTEPNS_13TO_BLOCK_LISTE@Base 9.55.0~dfsg1-0ubuntu1
 _ZN9tesseract14WriteParamDescEP8_IO_FILEtPKNS_10PARAM_DESCE@Base 9.55.0~dfsg1-0ubuntu1
 _ZN9tesseract14WritePrototypeEP8_IO_FILEtPNS_9PROTOTYPEE@Base 9.55.0~dfsg1-0ubuntu1
 _ZN9tesseract14divisible_blobEPNS_5TBLOBEbPNS_6TPOINTE@Base 9.55.0~dfsg1-0ubuntu1
 _ZN9tesseract14find_row_pitchEPNS_6TO_ROWEiiPNS_8TO_BLOCKEiib@Base 9.55.0~dfsg1-0ubuntu1
 _ZN9tesseract14find_top_modesEPNS_5STATSEiPii@Base 9.55.0~dfsg1-0ubuntu1
 _ZN9tesseract14kCNFeatureTypeE@Base 9.55.0~dfsg1-0ubuntu1
 _ZN9tesseract14make_real_wordEPNS_11BLOBNBOX_ITEibh@Base 9.55.0~dfsg1-0ubuntu1
 _ZN9tesseract14make_rep_wordsEPNS_6TO_ROWEPNS_8TO_BLOCKE@Base 9.55.0~dfsg1-0ubuntu1
 _ZN9tesseract14os_detect_blobEPNS_8BLOBNBOXEPNS_19OrientationDetectorEPNS_14ScriptDetectorEPNS_9OSResultsEPNS_9TesseractE@Base 9.55.0~dfsg1-0ubuntu1
 _ZN9tesseract14partition_lineEPNS_4TBOXEiPiPcS2_PNS_7QSPLINEEfPf@Base 9.55.0~dfsg1-0ubuntu1
 _ZN9tesseract14print_pitch_sdEPNS_6TO_ROWEPNS_5STATSEssff@Base 9.55.0~dfsg1-0ubuntu1
 _ZN9tesseract14read_unlv_fileERNSt7__cxx1112basic_stringIcSt11char_traitsIcESaIcEEEiiPNS_10BLOCK_LISTE@Base 9.55.0~dfsg1-0ubuntu1
 _ZN9tesseract14segment_splineEPNS_4TBOXEiPiS2_iiS2_@Base 9.55.0~dfsg1-0ubuntu1
 _ZN9tesseract14set_row_spacesEPNS_8TO_BLOCKENS_6FCOORDEb@Base 9.55.0~dfsg1-0ubuntu1
 _ZN9tesseract14test_underlineEbPNS_6C_BLOBEss@Base 9.55.0~dfsg1-0ubuntu1
 _ZN9tesseract14textord_test_xE@Base 9.55.0~dfsg1-0ubuntu1
 _ZN9tesseract14textord_test_yE@Base 9.55.0~dfsg1-0ubuntu1
 _ZN9tesseract14try_rows_fixedEPNS_8TO_BLOCKEib@Base 9.55.0~dfsg1-0ubuntu1
 _ZN9tesseract14tune_row_pitchEPNS_6TO_ROWEPNS_5STATSEssfRfS4_RsPNS_14ICOORDELT_LISTEb@Base 9.55.0~dfsg1-0ubuntu1
 _ZN9tesseract15AddAdaptedClassEPNS_22ADAPT_TEMPLATES_STRUCTEPNS_18ADAPT_CLASS_STRUCTEi@Base 9.55.0~dfsg1-0ubuntu1
 _ZN9tesseract15AddProtoToClassEPNS_12CLASS_STRUCTE@Base 9.55.0~dfsg1-0ubuntu1
 _ZN9tesseract15BLOBNBOX_zapperEPNS_10ELIST_LINKE@Base 9.55.0~dfsg1-0ubuntu1
 _ZN9tesseract15CCNonTextDetect18ComputeNonTextMaskEbP3PixPNS_8TO_BLOCKE@Base 9.55.0~dfsg1-0ubuntu1
 _ZN9tesseract15CCNonTextDetect19BlobOverlapsTooMuchEPNS_8BLOBNBOXEi@Base 9.55.0~dfsg1-0ubuntu1
 _ZN9tesseract15CCNonTextDetect19ComputeNoiseDensityEbP3PixPNS_8BlobGridE@Base 9.55.0~dfsg1-0ubuntu1
 _ZN9tesseract15CCNonTextDetect25MarkAndDeleteNonTextBlobsEPNS_13BLOBNBOX_LISTEiPNS_10ScrollViewENS3_5ColorEP3Pix@Base 9.55.0~dfsg1-0ubuntu1
 _ZN9tesseract15CCNonTextDetectC1EiRKNS_6ICOORDES3_@Base 9.55.0~dfsg1-0ubuntu1
 _ZN9tesseract15CCNonTextDetectC2EiRKNS_6ICOORDES3_@Base 9.55.0~dfsg1-0ubuntu1
 _ZN9tesseract15CCNonTextDetectD0Ev@Base 9.55.0~dfsg1-0ubuntu1
 _ZN9tesseract15CCNonTextDetectD1Ev@Base 9.55.0~dfsg1-0ubuntu1
 _ZN9tesseract15CCNonTextDetectD2Ev@Base 9.55.0~dfsg1-0ubuntu1
 _ZN9tesseract15ChangeDirectionEPNS_8list_recES1_NS_9DIRECTIONE@Base 9.55.0~dfsg1-0ubuntu1
 _ZN9tesseract15ColPartitionSet12AddPartitionEPNS_12ColPartitionEPNS_15ColPartition_ITE@Base 9.55.0~dfsg1-0ubuntu1
 _ZN9tesseract15ColPartitionSet12SpanningTypeEiiiiiiiPiS1_S1_@Base 9.55.0~dfsg1-0ubuntu1
 _ZN9tesseract15ColPartitionSet14GetColumnBoxesEiiPNS_15ColSegment_LISTE@Base 9.55.0~dfsg1-0ubuntu1
 _ZN9tesseract15ColPartitionSet14UnmatchedWidthEPS0_@Base 9.55.0~dfsg1-0ubuntu1
 _ZN9tesseract15ColPartitionSet15ComputeCoverageEv@Base 9.55.0~dfsg1-0ubuntu1
 _ZN9tesseract15ColPartitionSet15RelinquishPartsEv@Base 9.55.0~dfsg1-0ubuntu1
 _ZN9tesseract15ColPartitionSet16ColumnContainingEii@Base 9.55.0~dfsg1-0ubuntu1
 _ZN9tesseract15ColPartitionSet16GetColumnByIndexEi@Base 9.55.0~dfsg1-0ubuntu1
 _ZN9tesseract15ColPartitionSet17ChangeWorkColumnsERKNS_6ICOORDES3_iPNS_17ColPartition_LISTEPNS_19WorkingPartSet_LISTE@Base 9.55.0~dfsg1-0ubuntu1
 _ZN9tesseract15ColPartitionSet17CompatibleColumnsEbPS0_St8functionIFbiEE@Base 9.55.0~dfsg1-0ubuntu1
 _ZN9tesseract15ColPartitionSet20LegalColumnCandidateEv@Base 9.55.0~dfsg1-0ubuntu1
 _ZN9tesseract15ColPartitionSet22ImproveColumnCandidateESt8functionIFbiEEPNS_13GenericVectorIPS0_EE@Base 9.55.0~dfsg1-0ubuntu1
 _ZN9tesseract15ColPartitionSet23AddToColumnSetsIfUniqueEPNS_13GenericVectorIPS0_EESt8functionIFbiEE@Base 9.55.0~dfsg1-0ubuntu1
 _ZN9tesseract15ColPartitionSet26AddPartitionCoverageAndBoxERKNS_12ColPartitionE@Base 9.55.0~dfsg1-0ubuntu1
 _ZN9tesseract15ColPartitionSet29AccumulateColumnWidthsAndGapsEPiS1_S1_S1_@Base 9.55.0~dfsg1-0ubuntu1
 _ZN9tesseract15ColPartitionSet4CopyEb@Base 9.55.0~dfsg1-0ubuntu1
 _ZN9tesseract15ColPartitionSet5PrintEv@Base 9.55.0~dfsg1-0ubuntu1
 _ZN9tesseract15ColPartitionSetC1EPNS_12ColPartitionE@Base 9.55.0~dfsg1-0ubuntu1
 _ZN9tesseract15ColPartitionSetC1EPNS_17ColPartition_LISTE@Base 9.55.0~dfsg1-0ubuntu1
 _ZN9tesseract15ColPartitionSetC2EPNS_12ColPartitionE@Base 9.55.0~dfsg1-0ubuntu1
 _ZN9tesseract15ColPartitionSetC2EPNS_17ColPartition_LISTE@Base 9.55.0~dfsg1-0ubuntu1
 _ZN9tesseract15ColSegment_LIST9deep_copyEPKS0_PFPNS_10ColSegmentEPKS3_E@Base 9.55.0~dfsg1-0ubuntu1
 _ZN9tesseract15ComputeDistanceEiPNS_10PARAM_DESCEPfS2_@Base 9.55.0~dfsg1-0ubuntu1
 _ZN9tesseract15ConvertOutlinesEPNS_8TESSLINEEPNS_8list_recENS_11OUTLINETYPEE@Base 9.55.0~dfsg1-0ubuntu1
 _ZN9tesseract15CrownCompatibleEPKNS_13GenericVectorINS_19RowScratchRegistersEEEiiPKNS_14ParagraphModelE@Base 9.55.0~dfsg1-0ubuntu1
 _ZN9tesseract15DistanceSquaredEiPNS_10PARAM_DESCEPfS2_@Base 9.55.0~dfsg1-0ubuntu1
 _ZN9tesseract15ELIST2_ITERATOR13data_relativeEa@Base 9.55.0~dfsg1-0ubuntu1
 _ZN9tesseract15ELIST2_ITERATOR15extract_sublistEPS0_@Base 9.55.0~dfsg1-0ubuntu1
 _ZN9tesseract15ELIST2_ITERATOR7forwardEv@Base 9.55.0~dfsg1-0ubuntu1
 _ZN9tesseract15ELIST2_ITERATOR8backwardEv@Base 9.55.0~dfsg1-0ubuntu1
 _ZN9tesseract15ELIST2_ITERATOR8exchangeEPS0_@Base 9.55.0~dfsg1-0ubuntu1
 _ZN9tesseract15ExtractFontNameEPKcPNS_6STRINGE@Base 9.55.0~dfsg1-0ubuntu1
 _ZN9tesseract15FreeClassFieldsEPNS_12CLASS_STRUCTE@Base 9.55.0~dfsg1-0ubuntu1
 _ZN9tesseract15InitFeatureDefsEPNS_19FEATURE_DEFS_STRUCTE@Base 9.55.0~dfsg1-0ubuntu1
 _ZN9tesseract15InitTableFillerEfffPNS_12PROTO_STRUCTEPNS_12TABLE_FILLERE@Base 9.55.0~dfsg1-0ubuntu1
 _ZN9tesseract15IntFeatureSpace4InitEhhh@Base 9.55.0~dfsg1-0ubuntu1
 _ZN9tesseract15IntFeatureSpaceC1Ev@Base 9.55.0~dfsg1-0ubuntu1
 _ZN9tesseract15IntFeatureSpaceC2Ev@Base 9.55.0~dfsg1-0ubuntu1
 _ZN9tesseract15MutableIteratorD0Ev@Base 9.55.0~dfsg1-0ubuntu1
 _ZN9tesseract15MutableIteratorD1Ev@Base 9.55.0~dfsg1-0ubuntu1
 _ZN9tesseract15MutableIteratorD2Ev@Base 9.55.0~dfsg1-0ubuntu1
 _ZN9tesseract15NewAdaptedClassEv@Base 9.55.0~dfsg1-0ubuntu1
 _ZN9tesseract15NewIntTemplatesEv@Base 9.55.0~dfsg1-0ubuntu1
 _ZN9tesseract15NewMicroFeatureEv@Base 9.55.0~dfsg1-0ubuntu1
 _ZN9tesseract15OutlineFeatDescE@Base 9.55.0~dfsg1-0ubuntu1
 _ZN9tesseract15PDBLK_c1_zapperEPv@Base 9.55.0~dfsg1-0ubuntu1
 _ZN9tesseract15ParagraphTheory17NonCenteredModelsEPNS_13GenericVectorIPKNS_14ParagraphModelEEE@Base 9.55.0~dfsg1-0ubuntu1
 _ZN9tesseract15ParagraphTheory19DiscardUnusedModelsERKNS_13GenericVectorIPKNS_14ParagraphModelEEE@Base 9.55.0~dfsg1-0ubuntu1
 _ZN9tesseract15ParagraphTheory8AddModelERKNS_14ParagraphModelE@Base 9.55.0~dfsg1-0ubuntu1
 _ZN9tesseract15ParseBoxFileStrEPKcPiPNS_6STRINGEPNS_4TBOXE@Base 9.55.0~dfsg1-0ubuntu1
 _ZN9tesseract15ScratchEvidence13NormalizeSumsEPNS_16INT_CLASS_STRUCTEs@Base 9.55.0~dfsg1-0ubuntu1
 _ZN9tesseract15ScratchEvidence20ClearFeatureEvidenceEPNS_16INT_CLASS_STRUCTE@Base 9.55.0~dfsg1-0ubuntu1
 _ZN9tesseract15ScratchEvidence25UpdateSumOfProtoEvidencesEPNS_16INT_CLASS_STRUCTEPj@Base 9.55.0~dfsg1-0ubuntu1
 _ZN9tesseract15ScratchEvidence5ClearEPNS_16INT_CLASS_STRUCTE@Base 9.55.0~dfsg1-0ubuntu1
 _ZN9tesseract15ShapeClassifier14ClassifySampleERKNS_14TrainingSampleEP3PixiiPSt6vectorINS_11ShapeRatingESaIS7_EE@Base 9.55.0~dfsg1-0ubuntu1
 _ZN9tesseract15ShapeClassifier17DisplayClassifyAsERKNS_14TrainingSampleEP3PixiiPNS_13PointerVectorINS_10ScrollViewEEE@Base 9.55.0~dfsg1-0ubuntu1
 _ZN9tesseract15ShapeClassifier19BestShapeForUnicharERKNS_14TrainingSampleEP3PixiPNS_11ShapeRatingE@Base 9.55.0~dfsg1-0ubuntu1
 _ZN9tesseract15ShapeClassifier21UnicharClassifySampleERKNS_14TrainingSampleEP3PixiiPSt6vectorINS_13UnicharRatingESaIS7_EE@Base 9.55.0~dfsg1-0ubuntu1
 _ZN9tesseract15SimpleClusterer11GetClustersEPNS_13GenericVectorINS_7ClusterEEE@Base 9.55.0~dfsg1-0ubuntu1
 _ZN9tesseract15SortByBoxBottomINS_8BLOBNBOXEEEiPKvS3_@Base 9.55.0~dfsg1-0ubuntu1
 _ZN9tesseract15SortByUnicharIDINS_11BLOB_CHOICEEEEiPKvS3_@Base 9.55.0~dfsg1-0ubuntu1
 _ZN9tesseract15SortRightToLeftINS_8BLOBNBOXEEEiPKvS3_@Base 9.55.0~dfsg1-0ubuntu1
 _ZN9tesseract15StructuredTable13UpdateMarginsEPNS_16ColPartitionGridE@Base 9.55.0~dfsg1-0ubuntu1
 _ZN9tesseract15StructuredTable13set_line_gridEPNS_16ColPartitionGridE@Base 9.55.0~dfsg1-0ubuntu1
 _ZN9tesseract15StructuredTable13set_text_gridEPNS_16ColPartitionGridE@Base 9.55.0~dfsg1-0ubuntu1
 _ZN9tesseract15StructuredTable14CalculateStatsEv@Base 9.55.0~dfsg1-0ubuntu1
 _ZN9tesseract15StructuredTable14ClearStructureEv@Base 9.55.0~dfsg1-0ubuntu1
 _ZN9tesseract15StructuredTable15CountPartitionsERKNS_4TBOXE@Base 9.55.0~dfsg1-0ubuntu1
 _ZN9tesseract15StructuredTable15VerifyRowFilledEi@Base 9.55.0~dfsg1-0ubuntu1
 _ZN9tesseract15StructuredTable16CalculateMarginsEv@Base 9.55.0~dfsg1-0ubuntu1
 _ZN9tesseract15StructuredTable16CountFilledCellsEiiii@Base 9.55.0~dfsg1-0ubuntu1
 _ZN9tesseract15StructuredTable16CountFilledCellsEv@Base 9.55.0~dfsg1-0ubuntu1
 _ZN9tesseract15StructuredTable16set_bounding_boxERKNS_4TBOXE@Base 9.55.0~dfsg1-0ubuntu1
 _ZN9tesseract15StructuredTable17AbsorbNearbyLinesEv@Base 9.55.0~dfsg1-0ubuntu1
 _ZN9tesseract15StructuredTable17median_cell_widthEv@Base 9.55.0~dfsg1-0ubuntu1
 _ZN9tesseract15StructuredTable18FindLinedStructureEv@Base 9.55.0~dfsg1-0ubuntu1
 _ZN9tesseract15StructuredTable18median_cell_heightEv@Base 9.55.0~dfsg1-0ubuntu1
 _ZN9tesseract15StructuredTable19FindWhitespacedRowsEv@Base 9.55.0~dfsg1-0ubuntu1
 _ZN9tesseract15StructuredTable19set_max_text_heightEi@Base 9.55.0~dfsg1-0ubuntu1
 _ZN9tesseract15StructuredTable21CountFilledCellsInRowEi@Base 9.55.0~dfsg1-0ubuntu1
 _ZN9tesseract15StructuredTable21VerifyLinedTableCellsEv@Base 9.55.0~dfsg1-0ubuntu1
 _ZN9tesseract15StructuredTable22FindCellSplitLocationsERKNS_13GenericVectorIiEES4_iPS2_@Base 9.55.0~dfsg1-0ubuntu1
 _ZN9tesseract15StructuredTable22FindWhitespacedColumnsEv@Base 9.55.0~dfsg1-0ubuntu1
 _ZN9tesseract15StructuredTable22VerifyWhitespacedTableEv@Base 9.55.0~dfsg1-0ubuntu1
 _ZN9tesseract15StructuredTable24CountFilledCellsInColumnEi@Base 9.55.0~dfsg1-0ubuntu1
 _ZN9tesseract15StructuredTable24FindWhitespacedStructureEv@Base 9.55.0~dfsg1-0ubuntu1
 _ZN9tesseract15StructuredTable26CountVerticalIntersectionsEi@Base 9.55.0~dfsg1-0ubuntu1
 _ZN9tesseract15StructuredTable28CountHorizontalIntersectionsEi@Base 9.55.0~dfsg1-0ubuntu1
 _ZN9tesseract15StructuredTable29CalculateCellFilledPercentageEii@Base 9.55.0~dfsg1-0ubuntu1
 _ZN9tesseract15StructuredTable4InitEv@Base 9.55.0~dfsg1-0ubuntu1
 _ZN9tesseract15StructuredTableC1Ev@Base 9.55.0~dfsg1-0ubuntu1
 _ZN9tesseract15StructuredTableC2Ev@Base 9.55.0~dfsg1-0ubuntu1
 _ZN9tesseract15TO_BLOCK_zapperEPNS_10ELIST_LINKE@Base 9.55.0~dfsg1-0ubuntu1
 _ZN9tesseract15TableRecognizer13set_line_gridEPNS_16ColPartitionGridE@Base 9.55.0~dfsg1-0ubuntu1
 _ZN9tesseract15TableRecognizer13set_min_widthEi@Base 9.55.0~dfsg1-0ubuntu1
 _ZN9tesseract15TableRecognizer13set_text_gridEPNS_16ColPartitionGridE@Base 9.55.0~dfsg1-0ubuntu1
 _ZN9tesseract15TableRecognizer14IsWeakTableRowEPNS_15StructuredTableEi@Base 9.55.0~dfsg1-0ubuntu1
 _ZN9tesseract15TableRecognizer14RecognizeTableERKNS_4TBOXE@Base 9.55.0~dfsg1-0ubuntu1
 _ZN9tesseract15TableRecognizer14set_min_heightEi@Base 9.55.0~dfsg1-0ubuntu1
 _ZN9tesseract15TableRecognizer19HasSignificantLinesERKNS_4TBOXE@Base 9.55.0~dfsg1-0ubuntu1
 _ZN9tesseract15TableRecognizer19NextHorizontalSplitEiiib@Base 9.55.0~dfsg1-0ubuntu1
 _ZN9tesseract15TableRecognizer19RecognizeLinedTableERKNS_4TBOXEPNS_15StructuredTableE@Base 9.55.0~dfsg1-0ubuntu1
 _ZN9tesseract15TableRecognizer19set_max_text_heightEi@Base 9.55.0~dfsg1-0ubuntu1
 _ZN9tesseract15TableRecognizer20FindLinesBoundingBoxEPNS_4TBOXE@Base 9.55.0~dfsg1-0ubuntu1
 _ZN9tesseract15TableRecognizer25RecognizeWhitespacedTableERKNS_4TBOXEPNS_15StructuredTableE@Base 9.55.0~dfsg1-0ubuntu1
 _ZN9tesseract15TableRecognizer29FindLinesBoundingBoxIterationEPNS_4TBOXE@Base 9.55.0~dfsg1-0ubuntu1
 _ZN9tesseract15TableRecognizer4InitEv@Base 9.55.0~dfsg1-0ubuntu1
 _ZN9tesseract15TableRecognizerC1Ev@Base 9.55.0~dfsg1-0ubuntu1
 _ZN9tesseract15TableRecognizerC2Ev@Base 9.55.0~dfsg1-0ubuntu1
 _ZN9tesseract15TableRecognizerD1Ev@Base 9.55.0~dfsg1-0ubuntu1
 _ZN9tesseract15TableRecognizerD2Ev@Base 9.55.0~dfsg1-0ubuntu1
 _ZN9tesseract15TessOsdRenderer15AddImageHandlerEPNS_11TessBaseAPIE@Base 9.55.0~dfsg1-0ubuntu1
 _ZN9tesseract15TessOsdRendererC1EPKc@Base 9.55.0~dfsg1-0ubuntu1
 _ZN9tesseract15TessOsdRendererC2EPKc@Base 9.55.0~dfsg1-0ubuntu1
 _ZN9tesseract15TessPDFRenderer13imageToPDFObjEP3PixPKclPPcPli@Base 9.55.0~dfsg1-0ubuntu1
 _ZN9tesseract15TessPDFRenderer15AddImageHandlerEPNS_11TessBaseAPIE@Base 9.55.0~dfsg1-0ubuntu1
 _ZN9tesseract15TessPDFRenderer15AppendPDFObjectEPKc@Base 9.55.0~dfsg1-0ubuntu1
 _ZN9tesseract15TessPDFRenderer17GetPDFTextObjectsEPNS_11TessBaseAPIEdd@Base 9.55.0~dfsg1-0ubuntu1
 _ZN9tesseract15TessPDFRenderer18AppendPDFObjectDIYEm@Base 9.55.0~dfsg1-0ubuntu1
 _ZN9tesseract15TessPDFRenderer18EndDocumentHandlerEv@Base 9.55.0~dfsg1-0ubuntu1
 _ZN9tesseract15TessPDFRenderer20BeginDocumentHandlerEv@Base 9.55.0~dfsg1-0ubuntu1
 _ZN9tesseract15TessPDFRendererC1EPKcS2_b@Base 9.55.0~dfsg1-0ubuntu1
 _ZN9tesseract15TessPDFRendererC2EPKcS2_b@Base 9.55.0~dfsg1-0ubuntu1
 _ZN9tesseract15TessTsvRenderer15AddImageHandlerEPNS_11TessBaseAPIE@Base 9.55.0~dfsg1-0ubuntu1
 _ZN9tesseract15TessTsvRenderer18EndDocumentHandlerEv@Base 9.55.0~dfsg1-0ubuntu1
 _ZN9tesseract15TessTsvRenderer20BeginDocumentHandlerEv@Base 9.55.0~dfsg1-0ubuntu1
 _ZN9tesseract15TessTsvRendererC1EPKc@Base 9.55.0~dfsg1-0ubuntu1
 _ZN9tesseract15TessTsvRendererC1EPKcb@Base 9.55.0~dfsg1-0ubuntu1
 _ZN9tesseract15TessTsvRendererC2EPKc@Base 9.55.0~dfsg1-0ubuntu1
 _ZN9tesseract15TessTsvRendererC2EPKcb@Base 9.55.0~dfsg1-0ubuntu1
 _ZN9tesseract15TessdataManager12GetComponentENS_12TessdataTypeEPNS_5TFileE@Base 9.55.0~dfsg1-0ubuntu1
 _ZN9tesseract15TessdataManager13ExtractToFileEPKc@Base 9.55.0~dfsg1-0ubuntu1
 _ZN9tesseract15TessdataManager13LoadFileLaterEPKc@Base 9.55.0~dfsg1-0ubuntu1
 _ZN9tesseract15TessdataManager13LoadMemBufferEPKcS2_i@Base 9.55.0~dfsg1-0ubuntu1
 _ZN9tesseract15TessdataManager14OverwriteEntryENS_12TessdataTypeEPKci@Base 9.55.0~dfsg1-0ubuntu1
 _ZN9tesseract15TessdataManager16CombineDataFilesEPKcS2_@Base 9.55.0~dfsg1-0ubuntu1
 _ZN9tesseract15TessdataManager16SetVersionStringERKNSt7__cxx1112basic_stringIcSt11char_traitsIcESaIcEEE@Base 9.55.0~dfsg1-0ubuntu1
 _ZN9tesseract15TessdataManager19OverwriteComponentsEPKcPPci@Base 9.55.0~dfsg1-0ubuntu1
 _ZN9tesseract15TessdataManager24TessdataTypeFromFileNameEPKcPNS_12TessdataTypeE@Base 9.55.0~dfsg1-0ubuntu1
 _ZN9tesseract15TessdataManager26TessdataTypeFromFileSuffixEPKcPNS_12TessdataTypeE@Base 9.55.0~dfsg1-0ubuntu1
 _ZN9tesseract15TessdataManager4InitEPKc@Base 9.55.0~dfsg1-0ubuntu1
 _ZN9tesseract15TessdataManager5ClearEv@Base 9.55.0~dfsg1-0ubuntu1
 _ZN9tesseract15TessdataManagerC1EPFbPKcPSt6vectorIcSaIcEEE@Base 9.55.0~dfsg1-0ubuntu1
 _ZN9tesseract15TessdataManagerC1Ev@Base 9.55.0~dfsg1-0ubuntu1
 _ZN9tesseract15TessdataManagerC2EPFbPKcPSt6vectorIcSaIcEEE@Base 9.55.0~dfsg1-0ubuntu1
 _ZN9tesseract15TessdataManagerC2Ev@Base 9.55.0~dfsg1-0ubuntu1
 _ZN9tesseract15TransposedArray9TransposeERKNS_16GENERIC_2D_ARRAYIdEE@Base 9.55.0~dfsg1-0ubuntu1
 _ZN9tesseract15TransposedArrayD0Ev@Base 9.55.0~dfsg1-0ubuntu1
 _ZN9tesseract15TransposedArrayD1Ev@Base 9.55.0~dfsg1-0ubuntu1
 _ZN9tesseract15TransposedArrayD2Ev@Base 9.55.0~dfsg1-0ubuntu1
 _ZN9tesseract15UnicharAndFonts11DeSerializeEPNS_5TFileE@Base 9.55.0~dfsg1-0ubuntu1
 _ZN9tesseract15UnicharAndFonts15SortByUnicharIdEPKvS2_@Base 9.55.0~dfsg1-0ubuntu1
 _ZN9tesseract15UnicharCompress11DeSerializeEPNS_5TFileE@Base 9.55.0~dfsg1-0ubuntu1
 _ZN9tesseract15UnicharCompress11SetupDirectERKNS_13GenericVectorINS_13RecodedCharIDEEE@Base 9.55.0~dfsg1-0ubuntu1
 _ZN9tesseract15UnicharCompress12SetupDecoderEv@Base 9.55.0~dfsg1-0ubuntu1
 _ZN9tesseract15UnicharCompress15ComputeEncodingERKNS_10UNICHARSETEiPNS_6STRINGE@Base 9.55.0~dfsg1-0ubuntu1
 _ZN9tesseract15UnicharCompress15DecomposeHangulEiPiS1_S1_@Base 9.55.0~dfsg1-0ubuntu1
 _ZN9tesseract15UnicharCompress16ComputeCodeRangeEv@Base 9.55.0~dfsg1-0ubuntu1
 _ZN9tesseract15UnicharCompress16SetupPassThroughERKNS_10UNICHARSETE@Base 9.55.0~dfsg1-0ubuntu1
 _ZN9tesseract15UnicharCompress20DefragmentCodeValuesEi@Base 9.55.0~dfsg1-0ubuntu1
 _ZN9tesseract15UnicharCompress7CleanupEv@Base 9.55.0~dfsg1-0ubuntu1
 _ZN9tesseract15UnicharCompressC1ERKS0_@Base 9.55.0~dfsg1-0ubuntu1
 _ZN9tesseract15UnicharCompressC1Ev@Base 9.55.0~dfsg1-0ubuntu1
 _ZN9tesseract15UnicharCompressC2ERKS0_@Base 9.55.0~dfsg1-0ubuntu1
 _ZN9tesseract15UnicharCompressC2Ev@Base 9.55.0~dfsg1-0ubuntu1
 _ZN9tesseract15UnicharCompressD1Ev@Base 9.55.0~dfsg1-0ubuntu1
 _ZN9tesseract15UnicharCompressD2Ev@Base 9.55.0~dfsg1-0ubuntu1
 _ZN9tesseract15UnicharCompressaSERKS0_@Base 9.55.0~dfsg1-0ubuntu1
 _ZN9tesseract15WERD_RES_zapperEPNS_10ELIST_LINKE@Base 9.55.0~dfsg1-0ubuntu1
 _ZN9tesseract15WriteFeatureSetEPNS_18FEATURE_SET_STRUCTEPNS_6STRINGE@Base 9.55.0~dfsg1-0ubuntu1
 _ZN9tesseract15WritePermConfigEP8_IO_FILEPNS_18PERM_CONFIG_STRUCTE@Base 9.55.0~dfsg1-0ubuntu1
 _ZN9tesseract15WriteTempConfigEP8_IO_FILEPNS_18TEMP_CONFIG_STRUCTE@Base 9.55.0~dfsg1-0ubuntu1
 _ZN9tesseract15choose_nth_itemEiPfi@Base 9.55.0~dfsg1-0ubuntu1
 _ZN9tesseract15choose_nth_itemEiPvimPFiPKvS2_E@Base 9.55.0~dfsg1-0ubuntu1
 _ZN9tesseract15fixed_pitch_rowEPNS_6TO_ROWEPNS_5BLOCKEi@Base 9.55.0~dfsg1-0ubuntu1
 _ZN9tesseract15gapmap_big_gapsE@Base 9.55.0~dfsg1-0ubuntu1
 _ZN9tesseract15gapmap_use_endsE@Base 9.55.0~dfsg1-0ubuntu1
 _ZN9tesseract15get_blob_coordsEPNS_6TO_ROWEiPNS_4TBOXERbRi@Base 9.55.0~dfsg1-0ubuntu1
 _ZN9tesseract15kGeoFeatureTypeE@Base 9.55.0~dfsg1-0ubuntu1
 _ZN9tesseract15kIntFeatureTypeE@Base 9.55.0~dfsg1-0ubuntu1
 _ZN9tesseract15make_real_wordsEPNS_7TextordEPNS_8TO_BLOCKENS_6FCOORDE@Base 9.55.0~dfsg1-0ubuntu1
 _ZN9tesseract15make_single_rowENS_6ICOORDEbPNS_8TO_BLOCKEPNS_13TO_BLOCK_LISTE@Base 9.55.0~dfsg1-0ubuntu1
 _ZN9tesseract15os_detect_blobsEPKSt6vectorIiSaIiEEPNS_14BLOBNBOX_CLISTEPNS_9OSResultsEPNS_9TesseractE@Base 9.55.0~dfsg1-0ubuntu1
 _ZN9tesseract15row_pitch_statsEPNS_6TO_ROWEib@Base 9.55.0~dfsg1-0ubuntu1
 _ZN9tesseract15start_seam_listEPNS_5TWERDEPNS_13GenericVectorIPNS_4SEAMEEE@Base 9.55.0~dfsg1-0ubuntu1
 _ZN9tesseract15try_block_fixedEPNS_8TO_BLOCKEi@Base 9.55.0~dfsg1-0ubuntu1
 _ZN9tesseract15tune_row_pitch2EPNS_6TO_ROWEPNS_5STATSEssfRfS4_RsPNS_14ICOORDELT_LISTEb@Base 9.55.0~dfsg1-0ubuntu1
 _ZN9tesseract15word_comparatorEPKvS1_@Base 9.55.0~dfsg1-0ubuntu1
 _ZN9tesseract16AddConfigToClassEPNS_12CLASS_STRUCTE@Base 9.55.0~dfsg1-0ubuntu1
 _ZN9tesseract16AmbigSpec_zapperEPNS_10ELIST_LINKE@Base 9.55.0~dfsg1-0ubuntu1
 _ZN9tesseract16BLOB_CHOICE_LIST9deep_copyEPKS0_PFPNS_11BLOB_CHOICEEPKS3_E@Base 9.55.0~dfsg1-0ubuntu1
 _ZN9tesseract16BLOCK_RES_zapperEPNS_10ELIST_LINKE@Base 9.55.0~dfsg1-0ubuntu1
 _ZN9tesseract16C_OUTLINE_zapperEPNS_10ELIST_LINKE@Base 9.55.0~dfsg1-0ubuntu1
 _ZN9tesseract16ColPartitionGrid10ClaimBoxesEv@Base 9.55.0~dfsg1-0ubuntu1
 _ZN9tesseract16ColPartitionGrid10FindMarginEibiiiPKNS_12ColPartitionE@Base 9.55.0~dfsg1-0ubuntu1
 _ZN9tesseract16ColPartitionGrid11DeletePartsEv@Base 9.55.0~dfsg1-0ubuntu1
 _ZN9tesseract16ColPartitionGrid11HandleClickEii@Base 9.55.0~dfsg1-0ubuntu1
 _ZN9tesseract16ColPartitionGrid11ReTypeBlobsEPNS_13BLOBNBOX_LISTE@Base 9.55.0~dfsg1-0ubuntu1
 _ZN9tesseract16ColPartitionGrid11SetTabStopsEPNS_7TabFindE@Base 9.55.0~dfsg1-0ubuntu1
 _ZN9tesseract16ColPartitionGrid14ReflectInYAxisEv@Base 9.55.0~dfsg1-0ubuntu1
 _ZN9tesseract16ColPartitionGrid15GridFindMarginsEPPNS_15ColPartitionSetE@Base 9.55.0~dfsg1-0ubuntu1
 _ZN9tesseract16ColPartitionGrid15ListFindMarginsEPPNS_15ColPartitionSetEPNS_17ColPartition_LISTE@Base 9.55.0~dfsg1-0ubuntu1
 _ZN9tesseract16ColPartitionGrid15MakeColPartSetsEPNS_13GenericVectorIPNS_15ColPartitionSetEEE@Base 9.55.0~dfsg1-0ubuntu1
 _ZN9tesseract16ColPartitionGrid15RecomputeBoundsEiRKNS_6ICOORDES3_S3_@Base 9.55.0~dfsg1-0ubuntu1
 _ZN9tesseract16ColPartitionGrid16SmoothRegionTypeEP3PixRKNS_4TBOXERKNS_6FCOORDEbPNS_12ColPartitionE@Base 9.55.0~dfsg1-0ubuntu1
 _ZN9tesseract16ColPartitionGrid18BestMergeCandidateEPKNS_12ColPartitionEPNS_18ColPartition_CLISTEbSt8functionIFbS3_S3_EEPi@Base 9.55.0~dfsg1-0ubuntu1
 _ZN9tesseract16ColPartitionGrid18DeleteUnknownPartsEPNS_8TO_BLOCKE@Base 9.55.0~dfsg1-0ubuntu1
 _ZN9tesseract16ColPartitionGrid18FindFigureCaptionsEv@Base 9.55.0~dfsg1-0ubuntu1
 _ZN9tesseract16ColPartitionGrid19ComputeTotalOverlapEPPS0_@Base 9.55.0~dfsg1-0ubuntu1
 _ZN9tesseract16ColPartitionGrid19FindMergeCandidatesEPKNS_12ColPartitionERKNS_4TBOXEbPNS_18ColPartition_CLISTE@Base 9.55.0~dfsg1-0ubuntu1
 _ZN9tesseract16ColPartitionGrid19MakeSingleColumnSetESt8functionIFbiEE@Base 9.55.0~dfsg1-0ubuntu1
 _ZN9tesseract16ColPartitionGrid20DeleteNonLeaderPartsEv@Base 9.55.0~dfsg1-0ubuntu1
 _ZN9tesseract16ColPartitionGrid20FindPartitionMarginsEPNS_15ColPartitionSetEPNS_12ColPartitionE@Base 9.55.0~dfsg1-0ubuntu1
 _ZN9tesseract16ColPartitionGrid20GridSmoothNeighboursENS_16BlobTextFlowTypeEP3PixRKNS_4TBOXERKNS_6FCOORDE@Base 9.55.0~dfsg1-0ubuntu1
 _ZN9tesseract16ColPartitionGrid20SmoothInOneDirectionENS_16BlobNeighbourDirEP3PixRKNS_4TBOXERKNS_6FCOORDEbRKNS_12ColPartitionEPi@Base 9.55.0~dfsg1-0ubuntu1
 _ZN9tesseract16ColPartitionGrid21FindPartitionPartnersEbPNS_12ColPartitionE@Base 9.55.0~dfsg1-0ubuntu1
 _ZN9tesseract16ColPartitionGrid21FindPartitionPartnersEv@Base 9.55.0~dfsg1-0ubuntu1
 _ZN9tesseract16ColPartitionGrid22FindVPartitionPartnersEbPNS_12ColPartitionE@Base 9.55.0~dfsg1-0ubuntu1
 _ZN9tesseract16ColPartitionGrid23AccumulatePartDistancesERKNS_12ColPartitionERKNS_6ICOORDERKNS_4TBOXEP3PixS9_RKNS_6FCOORDEbPNS_13GenericVectorIiEE@Base 9.55.0~dfsg1-0ubuntu1
 _ZN9tesseract16ColPartitionGrid23RefinePartitionPartnersEb@Base 9.55.0~dfsg1-0ubuntu1
 _ZN9tesseract16ColPartitionGrid25ExtractPartitionsAsBlocksEPNS_10BLOCK_LISTEPNS_13TO_BLOCK_LISTE@Base 9.55.0~dfsg1-0ubuntu1
 _ZN9tesseract16ColPartitionGrid25FindOverlappingPartitionsERKNS_4TBOXEPKNS_12ColPartitionEPNS_18ColPartition_CLISTE@Base 9.55.0~dfsg1-0ubuntu1
 _ZN9tesseract16ColPartitionGrid26SplitOverlappingPartitionsEPNS_17ColPartition_LISTE@Base 9.55.0~dfsg1-0ubuntu1
 _ZN9tesseract16ColPartitionGrid6DeskewERKNS_6FCOORDE@Base 9.55.0~dfsg1-0ubuntu1
 _ZN9tesseract16ColPartitionGrid6MergesESt8functionIFbPNS_12ColPartitionEPNS_4TBOXEEES1_IFbPKS2_S9_EE@Base 9.55.0~dfsg1-0ubuntu1
 _ZN9tesseract16ColPartitionGrid9MergePartESt8functionIFbPNS_12ColPartitionEPNS_4TBOXEEES1_IFbPKS2_S9_EES3_@Base 9.55.0~dfsg1-0ubuntu1
 _ZN9tesseract16ColPartitionGridC1EiRKNS_6ICOORDES3_@Base 9.55.0~dfsg1-0ubuntu1
 _ZN9tesseract16ColPartitionGridC2EiRKNS_6ICOORDES3_@Base 9.55.0~dfsg1-0ubuntu1
 _ZN9tesseract16ComputeDirectionEPNS_8MFEDGEPTES1_ff@Base 9.55.0~dfsg1-0ubuntu1
 _ZN9tesseract16DetectParagraphsEiPSt6vectorINS_7RowInfoESaIS1_EEPNS_13GenericVectorIPNS_4PARAEEEPNS_9PARA_LISTEPS0_IPNS_14ParagraphModelESaISD_EE@Base 9.55.0~dfsg1-0ubuntu1
 _ZN9tesseract16DetectParagraphsEibPKNS_15MutableIteratorEPSt6vectorIPNS_14ParagraphModelESaIS5_EE@Base 9.55.0~dfsg1-0ubuntu1
 _ZN9tesseract16DotProductNativeEPKdS1_i@Base 9.55.0~dfsg1-0ubuntu1
 _ZN9tesseract16EDGEPT_c1_zapperEPv@Base 9.55.0~dfsg1-0ubuntu1
 _ZN9tesseract16FeatureDirectionEh@Base 9.55.0~dfsg1-0ubuntu1
 _ZN9tesseract16FillPPLinearBitsEPA2_jiffb@Base 9.55.0~dfsg1-0ubuntu1
 _ZN9tesseract16FloatWordFeature13SortByXBucketEPKvS2_@Base 9.55.0~dfsg1-0ubuntu1
 _ZN9tesseract16FloatWordFeature16FromWordFeaturesERKNS_13GenericVectorINS_11WordFeatureEEEPNS1_IS0_EE@Base 9.55.0~dfsg1-0ubuntu1
 _ZN9tesseract16GetMatchColorForEf@Base 9.55.0~dfsg1-0ubuntu1
 _ZN9tesseract16ICOORDELT_zapperEPNS_10ELIST_LINKE@Base 9.55.0~dfsg1-0ubuntu1
 _ZN9tesseract16ImageThresholder10GetPixRectEv@Base 9.55.0~dfsg1-0ubuntu1
 _ZN9tesseract16ImageThresholder12SetRectangleEiiii@Base 9.55.0~dfsg1-0ubuntu1
 _ZN9tesseract16ImageThresholder13GetImageSizesEPiS1_S1_S1_S1_S1_@Base 9.55.0~dfsg1-0ubuntu1
 _ZN9tesseract16ImageThresholder14GetPixRectGreyEv@Base 9.55.0~dfsg1-0ubuntu1
 _ZN9tesseract16ImageThresholder14ThresholdToPixENS_11PageSegModeEPP3Pix@Base 9.55.0~dfsg1-0ubuntu1
 _ZN9tesseract16ImageThresholder20GetPixRectThresholdsEv@Base 9.55.0~dfsg1-0ubuntu1
 _ZN9tesseract16ImageThresholder4InitEv@Base 9.55.0~dfsg1-0ubuntu1
 _ZN9tesseract16ImageThresholder5ClearEv@Base 9.55.0~dfsg1-0ubuntu1
 _ZN9tesseract16ImageThresholder8SetImageEPK3Pix@Base 9.55.0~dfsg1-0ubuntu1
 _ZN9tesseract16ImageThresholder8SetImageEPKhiiii@Base 9.55.0~dfsg1-0ubuntu1
 _ZN9tesseract16ImageThresholderC1Ev@Base 9.55.0~dfsg1-0ubuntu1
 _ZN9tesseract16ImageThresholderC2Ev@Base 9.55.0~dfsg1-0ubuntu1
 _ZN9tesseract16ImageThresholderD0Ev@Base 9.55.0~dfsg1-0ubuntu1
 _ZN9tesseract16ImageThresholderD1Ev@Base 9.55.0~dfsg1-0ubuntu1
 _ZN9tesseract16ImageThresholderD2Ev@Base 9.55.0~dfsg1-0ubuntu1
 _ZN9tesseract16LoadDataFromFileEPKcPSt6vectorIcSaIcEE@Base 9.55.0~dfsg1-0ubuntu1
 _ZN9tesseract16LocalCorrelation18float_pair_compareEPKvS2_@Base 9.55.0~dfsg1-0ubuntu1
 _ZN9tesseract16LocalFilePointer5fgetsEPci@Base 9.55.0~dfsg1-0ubuntu1
 _ZN9tesseract16MicroFeatureDescE@Base 9.55.0~dfsg1-0ubuntu1
 _ZN9tesseract16NormalizeOutlineEPNS_8list_recEf@Base 9.55.0~dfsg1-0ubuntu1
 _ZN9tesseract16ReadAdaptedClassEPNS_5TFileE@Base 9.55.0~dfsg1-0ubuntu1
 _ZN9tesseract16RecodeBeamSearch10DecodeStepEPKfidddPKNS_10UNICHARSETEb@Base 9.55.0~dfsg1-0ubuntu1
 _ZN9tesseract16RecodeBeamSearch11ComputeTopNEPKfii@Base 9.55.0~dfsg1-0ubuntu1
 _ZN9tesseract16RecodeBeamSearch11kBeamWidthsE@Base 9.55.0~dfsg1-0ubuntu1
 _ZN9tesseract16RecodeBeamSearch12ContinueDawgEiifNS_16NodeContinuationEPKNS_10RecodeNodeEPNS0_10RecodeBeamE@Base 9.55.0~dfsg1-0ubuntu1
 _ZN9tesseract16RecodeBeamSearch14ComputeSecTopNEPSt13unordered_setIiSt4hashIiESt8equal_toIiESaIiEEPKfii@Base 9.55.0~dfsg1-0ubuntu1
 _ZN9tesseract16RecodeBeamSearch14InitializeWordEbRKNS_4TBOXEiifPKNS_10UNICHARSETERKSt6vectorIiSaIiEEf@Base 9.55.0~dfsg1-0ubuntu1
 _ZN9tesseract16RecodeBeamSearch15ContinueContextEPKNS_10RecodeNodeEiPKfNS_9TopNStateEPKNS_10UNICHARSETEdddPNS0_10RecodeBeamE@Base 9.55.0~dfsg1-0ubuntu1
 _ZN9tesseract16RecodeBeamSearch15ContinueUnicharEiifffbNS_16NodeContinuationEPKNS_10RecodeNodeEPNS0_10RecodeBeamE@Base 9.55.0~dfsg1-0ubuntu1
 _ZN9tesseract16RecodeBeamSearch16PushHeapIfBetterEiPNS_10RecodeNodeEPNS_11GenericHeapINS_9KDPairIncIdS1_EEEE@Base 9.55.0~dfsg1-0ubuntu1
 _ZN9tesseract16RecodeBeamSearch16PushHeapIfBetterEiiiNS_12PermuterTypeEbbbbfPKNS_10RecodeNodeEPNS_18DawgPositionVectorEPNS_11GenericHeapINS_9KDPairIncIdS2_EEEE@Base 9.55.0~dfsg1-0ubuntu1
 _ZN9tesseract16RecodeBeamSearch19DecodeSecondaryStepEPKfidddPKNS_10UNICHARSETEb@Base 9.55.0~dfsg1-0ubuntu1
 _ZN9tesseract16RecodeBeamSearch19UpdateHeapIfMatchedEPNS_10RecodeNodeEPNS_11GenericHeapINS_9KDPairIncIdS1_EEEE@Base 9.55.0~dfsg1-0ubuntu1
 _ZN9tesseract16RecodeBeamSearch20DecodeSecondaryBeamsERKNS_9NetworkIOEdddPKNS_10UNICHARSETEi@Base 9.55.0~dfsg1-0ubuntu1
 _ZN9tesseract16RecodeBeamSearch20extractSymbolChoicesEPKNS_10UNICHARSETE@Base 9.55.0~dfsg1-0ubuntu1
 _ZN9tesseract16RecodeBeamSearch22ExtractBestPathAsWordsERKNS_4TBOXEfbPKNS_10UNICHARSETEPNS_13PointerVectorINS_8WERD_RESEEEi@Base 9.55.0~dfsg1-0ubuntu1
 _ZN9tesseract16RecodeBeamSearch22SaveMostCertainChoicesEPKfiPKNS_10UNICHARSETEi@Base 9.55.0~dfsg1-0ubuntu1
 _ZN9tesseract16RecodeBeamSearch23ExtractPathAsUnicharIdsERKNS_13GenericVectorIPKNS_10RecodeNodeEEEPSt6vectorIiSaIiEEPS8_IfSaIfEESE_SB_SB_@Base 9.55.0~dfsg1-0ubuntu1
 _ZN9tesseract16RecodeBeamSearch23PushDupOrNoDawgIfBetterEibiifffbNS_16NodeContinuationEPKNS_10RecodeNodeEPNS0_10RecodeBeamE@Base 9.55.0~dfsg1-0ubuntu1
 _ZN9tesseract16RecodeBeamSearch23PushInitialDawgIfBetterEiiNS_12PermuterTypeEbbfNS_16NodeContinuationEPKNS_10RecodeNodeEPNS0_10RecodeBeamE@Base 9.55.0~dfsg1-0ubuntu1
 _ZN9tesseract16RecodeBeamSearch23calculateCharBoundariesEPSt6vectorIiSaIiEES4_S4_i@Base 9.55.0~dfsg1-0ubuntu1
 _ZN9tesseract16RecodeBeamSearch25combineSegmentedTimestepsEPSt6vectorIS1_IS1_ISt4pairIPKcfESaIS5_EESaIS7_EESaIS9_EE@Base 9.55.0~dfsg1-0ubuntu1
 _ZN9tesseract16RecodeBeamSearch28segmentTimestepsByCharactersEv@Base 9.55.0~dfsg1-0ubuntu1
 _ZN9tesseract16RecodeBeamSearch6DecodeERKNS_16GENERIC_2D_ARRAYIfEEdddPKNS_10UNICHARSETE@Base 9.55.0~dfsg1-0ubuntu1
 _ZN9tesseract16RecodeBeamSearch6DecodeERKNS_9NetworkIOEdddPKNS_10UNICHARSETEi@Base 9.55.0~dfsg1-0ubuntu1
 _ZN9tesseract16RecodeBeamSearchC1ERKNS_15UnicharCompressEibPNS_4DictE@Base 9.55.0~dfsg1-0ubuntu1
 _ZN9tesseract16RecodeBeamSearchC2ERKNS_15UnicharCompressEibPNS_4DictE@Base 9.55.0~dfsg1-0ubuntu1
 _ZN9tesseract16STRING_c1_zapperEPv@Base 9.55.0~dfsg1-0ubuntu1
 _ZN9tesseract16TabVector_zapperEPNS_11ELIST2_LINKE@Base 9.55.0~dfsg1-0ubuntu1
 _ZN9tesseract16TessAltoRenderer15AddImageHandlerEPNS_11TessBaseAPIE@Base 9.55.0~dfsg1-0ubuntu1
 _ZN9tesseract16TessAltoRenderer18EndDocumentHandlerEv@Base 9.55.0~dfsg1-0ubuntu1
 _ZN9tesseract16TessAltoRenderer20BeginDocumentHandlerEv@Base 9.55.0~dfsg1-0ubuntu1
 _ZN9tesseract16TessAltoRendererC1EPKc@Base 9.55.0~dfsg1-0ubuntu1
 _ZN9tesseract16TessAltoRendererC2EPKc@Base 9.55.0~dfsg1-0ubuntu1
 _ZN9tesseract16TessHOcrRenderer15AddImageHandlerEPNS_11TessBaseAPIE@Base 9.55.0~dfsg1-0ubuntu1
 _ZN9tesseract16TessHOcrRenderer18EndDocumentHandlerEv@Base 9.55.0~dfsg1-0ubuntu1
 _ZN9tesseract16TessHOcrRenderer20BeginDocumentHandlerEv@Base 9.55.0~dfsg1-0ubuntu1
 _ZN9tesseract16TessHOcrRendererC1EPKc@Base 9.55.0~dfsg1-0ubuntu1
 _ZN9tesseract16TessHOcrRendererC1EPKcb@Base 9.55.0~dfsg1-0ubuntu1
 _ZN9tesseract16TessHOcrRendererC2EPKc@Base 9.55.0~dfsg1-0ubuntu1
 _ZN9tesseract16TessHOcrRendererC2EPKcb@Base 9.55.0~dfsg1-0ubuntu1
 _ZN9tesseract16TessTextRenderer15AddImageHandlerEPNS_11TessBaseAPIE@Base 9.55.0~dfsg1-0ubuntu1
 _ZN9tesseract16TessTextRendererC1EPKc@Base 9.55.0~dfsg1-0ubuntu1
 _ZN9tesseract16TessTextRendererC2EPKc@Base 9.55.0~dfsg1-0ubuntu1
 _ZN9tesseract16TessUnlvRenderer15AddImageHandlerEPNS_11TessBaseAPIE@Base 9.55.0~dfsg1-0ubuntu1
 _ZN9tesseract16TessUnlvRendererC1EPKc@Base 9.55.0~dfsg1-0ubuntu1
 _ZN9tesseract16TessUnlvRendererC2EPKc@Base 9.55.0~dfsg1-0ubuntu1
 _ZN9tesseract16WERD_CHOICE_LIST9deep_copyEPKS0_PFPNS_11WERD_CHOICEEPKS3_E@Base 9.55.0~dfsg1-0ubuntu1
 _ZN9tesseract16capture_childrenEPNS_10OL_BUCKETSEPNS_9C_BLOB_ITEPNS_12C_OUTLINE_ITE@Base 9.55.0~dfsg1-0ubuntu1
 _ZN9tesseract16check_path_legalEPNS_9CRACKEDGEE@Base 9.55.0~dfsg1-0ubuntu1
 _ZN9tesseract16check_pitch_syncEPNS_11BLOBNBOX_ITEsssPNS_5STATSEPNS_12FPSEGPT_LISTE@Base 9.55.0~dfsg1-0ubuntu1
 _ZN9tesseract16choose_partitionEfPfifS0_S0_Pi@Base 9.55.0~dfsg1-0ubuntu1
 _ZN9tesseract16compute_pitch_sdEPNS_6TO_ROWEPNS_5STATSEssffRfRsPNS_14ICOORDELT_LISTEbss@Base 9.55.0~dfsg1-0ubuntu1
 _ZN9tesseract16fit_parallel_lmsEfPNS_6TO_ROWE@Base 9.55.0~dfsg1-0ubuntu1
 _ZN9tesseract16make_pseudo_wordEPNS_8PAGE_RESERKNS_4TBOXE@Base 9.55.0~dfsg1-0ubuntu1
 _ZN9tesseract16make_single_wordEbPNS_11TO_ROW_LISTEPNS_8ROW_LISTE@Base 9.55.0~dfsg1-0ubuntu1
 _ZN9tesseract16partition_coordsEPNS_4TBOXEiPciPiS3_@Base 9.55.0~dfsg1-0ubuntu1
 _ZN9tesseract16segment_baselineEPNS_6TO_ROWEPNS_8TO_BLOCKERiPi@Base 9.55.0~dfsg1-0ubuntu1
 _ZN9tesseract16textord_heavy_nrE@Base 9.55.0~dfsg1-0ubuntu1
 _ZN9tesseract16textord_skew_ileE@Base 9.55.0~dfsg1-0ubuntu1
 _ZN9tesseract16textord_skew_lagE@Base 9.55.0~dfsg1-0ubuntu1
 _ZN9tesseract17AlignedBlobParams12set_verticalEii@Base 9.55.0~dfsg1-0ubuntu1
 _ZN9tesseract17AlignedBlobParamsC1Eiii@Base 9.55.0~dfsg1-0ubuntu1
 _ZN9tesseract17AlignedBlobParamsC1EiiiiiiNS_12TabAlignmentE@Base 9.55.0~dfsg1-0ubuntu1
 _ZN9tesseract17AlignedBlobParamsC2Eiii@Base 9.55.0~dfsg1-0ubuntu1
 _ZN9tesseract17AlignedBlobParamsC2EiiiiiiNS_12TabAlignmentE@Base 9.55.0~dfsg1-0ubuntu1
 _ZN9tesseract17BlobMicroFeaturesEPNS_5TBLOBERKNS_6DENORME@Base 9.55.0~dfsg1-0ubuntu1
 _ZN9tesseract17ColPartition_LIST9deep_copyEPKS0_PFPNS_12ColPartitionEPKS3_E@Base 9.55.0~dfsg1-0ubuntu1
 _ZN9tesseract17ColSegment_zapperEPNS_10ELIST_LINKE@Base 9.55.0~dfsg1-0ubuntu1
 _ZN9tesseract17FreeMicroFeaturesEPNS_8list_recE@Base 9.55.0~dfsg1-0ubuntu1
 _ZN9tesseract17GetCPPadsForLevelEiPfS0_S0_@Base 9.55.0~dfsg1-0ubuntu1
 _ZN9tesseract17LMConsistencyInfo25ComputeXheightConsistencyEPKNS_11BLOB_CHOICEEb@Base 9.55.0~dfsg1-0ubuntu1
 _ZN9tesseract17LTRResultIterator16SetLineSeparatorEPKc@Base 9.55.0~dfsg1-0ubuntu1
 _ZN9tesseract17LTRResultIterator21SetParagraphSeparatorEPKc@Base 9.55.0~dfsg1-0ubuntu1
 _ZN9tesseract17LTRResultIteratorC1EPNS_8PAGE_RESEPNS_9TesseractEiiiiii@Base 9.55.0~dfsg1-0ubuntu1
 _ZN9tesseract17LTRResultIteratorC2EPNS_8PAGE_RESEPNS_9TesseractEiiiiii@Base 9.55.0~dfsg1-0ubuntu1
 _ZN9tesseract17LTRResultIteratorD0Ev@Base 9.55.0~dfsg1-0ubuntu1
 _ZN9tesseract17LTRResultIteratorD1Ev@Base 9.55.0~dfsg1-0ubuntu1
 _ZN9tesseract17LTRResultIteratorD2Ev@Base 9.55.0~dfsg1-0ubuntu1
 _ZN9tesseract17MakeTempProtoPermEPvS0_@Base 9.55.0~dfsg1-0ubuntu1
 _ZN9tesseract17NormalizeOutlineXEPNS_18FEATURE_SET_STRUCTE@Base 9.55.0~dfsg1-0ubuntu1
 _ZN9tesseract17PicoFeatureLengthE@Base 9.55.0~dfsg1-0ubuntu1
 _ZN9tesseract17SORTED_FLOAT_LIST9deep_copyEPKS0_PFPNS_12SORTED_FLOATEPKS3_E@Base 9.55.0~dfsg1-0ubuntu1
 _ZN9tesseract17ScriptPosToStringENS_9ScriptPosE@Base 9.55.0~dfsg1-0ubuntu1
 _ZN9tesseract17StandardDeviationEPNS_9PROTOTYPEEt@Base 9.55.0~dfsg1-0ubuntu1
 _ZN9tesseract17ViterbiStateEntry7CompareEPKvS2_@Base 9.55.0~dfsg1-0ubuntu1
 _ZN9tesseract17WriteAdaptedClassEP8_IO_FILEPNS_18ADAPT_CLASS_STRUCTEi@Base 9.55.0~dfsg1-0ubuntu1
 _ZN9tesseract17adjust_row_limitsEPNS_8TO_BLOCKE@Base 9.55.0~dfsg1-0ubuntu1
 _ZN9tesseract17check_pitch_sync2EPNS_11BLOBNBOX_ITEsssPNS_5STATSEssfRsPNS_12FPSEGPT_LISTEss@Base 9.55.0~dfsg1-0ubuntu1
 _ZN9tesseract17check_pitch_sync3EsssssPNS_5STATSEfRsPNS_12FPSEGPT_LISTEss@Base 9.55.0~dfsg1-0ubuntu1
 _ZN9tesseract17compute_page_skewEPNS_13TO_BLOCK_LISTERfS2_@Base 9.55.0~dfsg1-0ubuntu1
 _ZN9tesseract17compute_pitch_sd2EPNS_6TO_ROWEPNS_5STATSEssfRsS4_PNS_14ICOORDELT_LISTEbss@Base 9.55.0~dfsg1-0ubuntu1
 _ZN9tesseract17compute_row_statsEPNS_8TO_BLOCKEb@Base 9.55.0~dfsg1-0ubuntu1
 _ZN9tesseract17count_block_votesEPNS_8TO_BLOCKERiS2_S2_S2_S2_S2_S2_@Base 9.55.0~dfsg1-0ubuntu1
 _ZN9tesseract17count_pitch_statsEPNS_6TO_ROWEPNS_5STATSES3_ffbbi@Base 9.55.0~dfsg1-0ubuntu1
 _ZN9tesseract17find_cblob_limitsEPNS_6C_BLOBEffNS_6FCOORDERfS3_@Base 9.55.0~dfsg1-0ubuntu1
 _ZN9tesseract17find_lesser_partsEPNS_6TO_ROWEPNS_4TBOXEiPcPiii@Base 9.55.0~dfsg1-0ubuntu1
 _ZN9tesseract17fit_parallel_rowsEPNS_8TO_BLOCKEfNS_6FCOORDEib@Base 9.55.0~dfsg1-0ubuntu1
 _ZN9tesseract17fixed_pitch_wordsEPNS_6TO_ROWENS_6FCOORDE@Base 9.55.0~dfsg1-0ubuntu1
 _ZN9tesseract17initialise_searchERNS_13WERD_RES_LISTES1_@Base 9.55.0~dfsg1-0ubuntu1
 _ZN9tesseract17kMicroFeatureTypeE@Base 9.55.0~dfsg1-0ubuntu1
 _ZN9tesseract17loop_bounding_boxERPNS_9CRACKEDGEERNS_6ICOORDES4_@Base 9.55.0~dfsg1-0ubuntu1
 _ZN9tesseract17merge_oldbl_partsEPNS_4TBOXEiPcPiif@Base 9.55.0~dfsg1-0ubuntu1
 _ZN9tesseract17old_first_xheightEPNS_6TO_ROWEPNS_4TBOXEiiPNS_7QSPLINEEf@Base 9.55.0~dfsg1-0ubuntu1
 _ZN9tesseract17outlines_to_blobsEPNS_5BLOCKENS_6ICOORDES2_PNS_14C_OUTLINE_LISTE@Base 9.55.0~dfsg1-0ubuntu1
 _ZN9tesseract17read_spacing_infoEPNS_5TFileEPNS_8FontInfoE@Base 9.55.0~dfsg1-0ubuntu1
 _ZN9tesseract17reject_whole_pageERNS_11PAGE_RES_ITE@Base 9.55.0~dfsg1-0ubuntu1
 _ZN9tesseract17row_spacing_orderEPKvS1_@Base 9.55.0~dfsg1-0ubuntu1
 _ZN9tesseract17textord_test_modeE@Base 9.55.0~dfsg1-0ubuntu1
 _ZN9tesseract18ApproximateOutlineEbPNS_9C_OUTLINEE@Base 9.55.0~dfsg1-0ubuntu1
 _ZN9tesseract18BLOB_CHOICE_zapperEPNS_10ELIST_LINKE@Base 9.55.0~dfsg1-0ubuntu1
 _ZN9tesseract18EquationDetectBase17RenderSpecialTextEP3PixPNS_8BLOBNBOXE@Base 9.55.0~dfsg1-0ubuntu1
 _ZN9tesseract18EquationDetectBaseD0Ev@Base 9.55.0~dfsg1-0ubuntu1
 _ZN9tesseract18EquationDetectBaseD1Ev@Base 9.55.0~dfsg1-0ubuntu1
 _ZN9tesseract18EquationDetectBaseD2Ev@Base 9.55.0~dfsg1-0ubuntu1
 _ZN9tesseract18FillPPCircularBitsEPA2_jiffb@Base 9.55.0~dfsg1-0ubuntu1
 _ZN9tesseract18FindMatchingChoiceEiPNS_16BLOB_CHOICE_LISTE@Base 9.55.0~dfsg1-0ubuntu1
 _ZN9tesseract18INT_FEATURE_STRUCTC1ERKNS_6FCOORDEh@Base 9.55.0~dfsg1-0ubuntu1
 _ZN9tesseract18INT_FEATURE_STRUCTC1Eiii@Base 9.55.0~dfsg1-0ubuntu1
 _ZN9tesseract18INT_FEATURE_STRUCTC2ERKNS_6FCOORDEh@Base 9.55.0~dfsg1-0ubuntu1
 _ZN9tesseract18INT_FEATURE_STRUCTC2Eiii@Base 9.55.0~dfsg1-0ubuntu1
 _ZN9tesseract18LanguageModelState5ClearEv@Base 9.55.0~dfsg1-0ubuntu1
 _ZN9tesseract18LanguageModelState5PrintEPKc@Base 9.55.0~dfsg1-0ubuntu1
 _ZN9tesseract18LeftWordAttributesEPKNS_10UNICHARSETEPKNS_11WERD_CHOICEERKNS_6STRINGEPbS9_S9_@Base 9.55.0~dfsg1-0ubuntu1
 _ZN9tesseract18NewCharDescriptionERKNS_19FEATURE_DEFS_STRUCTE@Base 9.55.0~dfsg1-0ubuntu1
 _ZN9tesseract18SetBlobStrokeWidthEP3PixPNS_8BLOBNBOXE@Base 9.55.0~dfsg1-0ubuntu1
 _ZN9tesseract18ShiroRekhaSplitter12PerformCloseEP3Pixi@Base 9.55.0~dfsg1-0ubuntu1
 _ZN9tesseract18ShiroRekhaSplitter12set_orig_pixEP3Pix@Base 9.55.0~dfsg1-0ubuntu1
 _ZN9tesseract18ShiroRekhaSplitter13GetModeHeightEP3Pix@Base 9.55.0~dfsg1-0ubuntu1
 _ZN9tesseract18ShiroRekhaSplitter15GetXheightForCCEP3Box@Base 9.55.0~dfsg1-0ubuntu1
 _ZN9tesseract18ShiroRekhaSplitter19SplitWordShiroRekhaENS0_13SplitStrategyEP3PixiiiP4Boxa@Base 9.55.0~dfsg1-0ubuntu1
 _ZN9tesseract18ShiroRekhaSplitter21GetShiroRekhaYExtentsEP3PixPiS3_S3_@Base 9.55.0~dfsg1-0ubuntu1
 _ZN9tesseract18ShiroRekhaSplitter31RefreshSegmentationWithNewBlobsEPNS_11C_BLOB_LISTE@Base 9.55.0~dfsg1-0ubuntu1
 _ZN9tesseract18ShiroRekhaSplitter5ClearEv@Base 9.55.0~dfsg1-0ubuntu1
 _ZN9tesseract18ShiroRekhaSplitter5SplitEbPNS_9DebugPixaE@Base 9.55.0~dfsg1-0ubuntu1
 _ZN9tesseract18ShiroRekhaSplitterC1Ev@Base 9.55.0~dfsg1-0ubuntu1
 _ZN9tesseract18ShiroRekhaSplitterC2Ev@Base 9.55.0~dfsg1-0ubuntu1
 _ZN9tesseract18ShiroRekhaSplitterD0Ev@Base 9.55.0~dfsg1-0ubuntu1
 _ZN9tesseract18ShiroRekhaSplitterD1Ev@Base 9.55.0~dfsg1-0ubuntu1
 _ZN9tesseract18ShiroRekhaSplitterD2Ev@Base 9.55.0~dfsg1-0ubuntu1
 _ZN9tesseract18TabConstraint_LIST9deep_copyEPKS0_PFPNS_13TabConstraintEPKS3_E@Base 9.55.0~dfsg1-0ubuntu1
 _ZN9tesseract18TessResultRenderer10AppendDataEPKci@Base 9.55.0~dfsg1-0ubuntu1
 _ZN9tesseract18TessResultRenderer11EndDocumentEv@Base 9.55.0~dfsg1-0ubuntu1
 _ZN9tesseract18TessResultRenderer12AppendStringEPKc@Base 9.55.0~dfsg1-0ubuntu1
 _ZN9tesseract18TessResultRenderer13BeginDocumentEPKc@Base 9.55.0~dfsg1-0ubuntu1
 _ZN9tesseract18TessResultRenderer18EndDocumentHandlerEv@Base 9.55.0~dfsg1-0ubuntu1
 _ZN9tesseract18TessResultRenderer20BeginDocumentHandlerEv@Base 9.55.0~dfsg1-0ubuntu1
 _ZN9tesseract18TessResultRenderer6insertEPS0_@Base 9.55.0~dfsg1-0ubuntu1
 _ZN9tesseract18TessResultRenderer8AddImageEPNS_11TessBaseAPIE@Base 9.55.0~dfsg1-0ubuntu1
 _ZN9tesseract18TessResultRendererC1EPKcS2_@Base 9.55.0~dfsg1-0ubuntu1
 _ZN9tesseract18TessResultRendererC2EPKcS2_@Base 9.55.0~dfsg1-0ubuntu1
 _ZN9tesseract18TessResultRendererD0Ev@Base 9.55.0~dfsg1-0ubuntu1
 _ZN9tesseract18TessResultRendererD1Ev@Base 9.55.0~dfsg1-0ubuntu1
 _ZN9tesseract18TessResultRendererD2Ev@Base 9.55.0~dfsg1-0ubuntu1
 _ZN9tesseract18TextlineProjection10PadBlobBoxEPNS_8BLOBNBOXEPNS_4TBOXE@Base 9.55.0~dfsg1-0ubuntu1
 _ZN9tesseract18TextlineProjection12ProjectBlobsEPNS_13BLOBNBOX_LISTERKNS_6FCOORDERKNS_4TBOXEP3Pix@Base 9.55.0~dfsg1-0ubuntu1
 _ZN9tesseract18TextlineProjection19ConstructProjectionEPNS_8TO_BLOCKERKNS_6FCOORDEP3Pix@Base 9.55.0~dfsg1-0ubuntu1
 _ZN9tesseract18TextlineProjection22IncrementRectangle8BitERKNS_4TBOXE@Base 9.55.0~dfsg1-0ubuntu1
 _ZN9tesseract18TextlineProjectionC1Ei@Base 9.55.0~dfsg1-0ubuntu1
 _ZN9tesseract18TextlineProjectionC2Ei@Base 9.55.0~dfsg1-0ubuntu1
 _ZN9tesseract18TextlineProjectionD1Ev@Base 9.55.0~dfsg1-0ubuntu1
 _ZN9tesseract18TextlineProjectionD2Ev@Base 9.55.0~dfsg1-0ubuntu1
 _ZN9tesseract18UnicodeSpanSkipper10SkipDigitsEi@Base 9.55.0~dfsg1-0ubuntu1
 _ZN9tesseract18UnicodeSpanSkipper10SkipRomansEi@Base 9.55.0~dfsg1-0ubuntu1
 _ZN9tesseract18UnicodeSpanSkipper8SkipPuncEi@Base 9.55.0~dfsg1-0ubuntu1
 _ZN9tesseract18UnicodeSpanSkipper9SkipAlphaEi@Base 9.55.0~dfsg1-0ubuntu1
 _ZN9tesseract18WERD_CHOICE_zapperEPNS_10ELIST_LINKE@Base 9.55.0~dfsg1-0ubuntu1
 _ZN9tesseract18classify_max_slopeE@Base 9.55.0~dfsg1-0ubuntu1
 _ZN9tesseract18classify_min_slopeE@Base 9.55.0~dfsg1-0ubuntu1
 _ZN9tesseract18compute_rows_pitchEPNS_8TO_BLOCKEib@Base 9.55.0~dfsg1-0ubuntu1
 _ZN9tesseract18create_fxdebug_winEv@Base 9.55.0~dfsg1-0ubuntu1
 _ZN9tesseract18find_cblob_hlimitsEPNS_6C_BLOBEffRfS2_@Base 9.55.0~dfsg1-0ubuntu1
 _ZN9tesseract18find_cblob_vlimitsEPNS_6C_BLOBEffRfS2_@Base 9.55.0~dfsg1-0ubuntu1
 _ZN9tesseract18free_adapted_classEPNS_18ADAPT_CLASS_STRUCTE@Base 9.55.0~dfsg1-0ubuntu1
 _ZN9tesseract18free_int_templatesEPNS_20INT_TEMPLATES_STRUCTE@Base 9.55.0~dfsg1-0ubuntu1
 _ZN9tesseract18make_first_xheightEPNS_6TO_ROWEPNS_4TBOXEiiiPNS_7QSPLINEEf@Base 9.55.0~dfsg1-0ubuntu1
 _ZN9tesseract18pitsync_fake_depthE@Base 9.55.0~dfsg1-0ubuntu1
 _ZN9tesseract18print_block_countsEPNS_8TO_BLOCKEi@Base 9.55.0~dfsg1-0ubuntu1
 _ZN9tesseract18print_ratings_listEPKcPNS_16BLOB_CHOICE_LISTERKNS_10UNICHARSETE@Base 9.55.0~dfsg1-0ubuntu1
 _ZN9tesseract18textord_chop_widthE@Base 9.55.0~dfsg1-0ubuntu1
 _ZN9tesseract18textord_debug_blobE@Base 9.55.0~dfsg1-0ubuntu1
 _ZN9tesseract18textord_debug_bugsE@Base 9.55.0~dfsg1-0ubuntu1
 _ZN9tesseract18tweak_row_baselineEPNS_3ROWEdd@Base 9.55.0~dfsg1-0ubuntu1
 _ZN9tesseract18wordrec_blob_pauseE@Base 9.55.0~dfsg1-0ubuntu1
 _ZN9tesseract18write_spacing_infoEP8_IO_FILERKNS_8FontInfoE@Base 9.55.0~dfsg1-0ubuntu1
 _ZN9tesseract19ActualOutlineLengthEPNS_14FEATURE_STRUCTE@Base 9.55.0~dfsg1-0ubuntu1
 _ZN9tesseract19AsciiLikelyListItemERKNS_6STRINGE@Base 9.55.0~dfsg1-0ubuntu1
 _ZN9tesseract19BLOCK_RES_c1_zapperEPv@Base 9.55.0~dfsg1-0ubuntu1
 _ZN9tesseract19C_OUTLINE_FRAG_LIST9deep_copyEPKS0_PFPNS_14C_OUTLINE_FRAGEPKS3_E@Base 9.55.0~dfsg1-0ubuntu1
 _ZN9tesseract19ColPartition_zapperEPNS_11ELIST2_LINKE@Base 9.55.0~dfsg1-0ubuntu1
 _ZN9tesseract19ExtractMicroFeatureEPNS_8list_recES1_@Base 9.55.0~dfsg1-0ubuntu1
 _ZN9tesseract19FreeCharDescriptionEPNS_16CHAR_DESC_STRUCTE@Base 9.55.0~dfsg1-0ubuntu1
 _ZN9tesseract19NextDirectionChangeEPNS_8list_recE@Base 9.55.0~dfsg1-0ubuntu1
 _ZN9tesseract19OrientationDetector11detect_blobEPNS_16BLOB_CHOICE_LISTE@Base 9.55.0~dfsg1-0ubuntu1
 _ZN9tesseract19OrientationDetector15get_orientationEv@Base 9.55.0~dfsg1-0ubuntu1
 _ZN9tesseract19OrientationDetectorC1EPKSt6vectorIiSaIiEEPNS_9OSResultsE@Base 9.55.0~dfsg1-0ubuntu1
 _ZN9tesseract19OrientationDetectorC2EPKSt6vectorIiSaIiEEPNS_9OSResultsE@Base 9.55.0~dfsg1-0ubuntu1
 _ZN9tesseract19ReadCharDescriptionERKNS_19FEATURE_DEFS_STRUCTEP8_IO_FILE@Base 9.55.0~dfsg1-0ubuntu1
 _ZN9tesseract19RightWordAttributesEPKNS_10UNICHARSETEPKNS_11WERD_CHOICEERKNS_6STRINGEPbS9_S9_@Base 9.55.0~dfsg1-0ubuntu1
 _ZN9tesseract19RowScratchRegisters11AddBodyLineEPKNS_14ParagraphModelE@Base 9.55.0~dfsg1-0ubuntu1
 _ZN9tesseract19RowScratchRegisters11SetBodyLineEv@Base 9.55.0~dfsg1-0ubuntu1
 _ZN9tesseract19RowScratchRegisters12AddStartLineEPKNS_14ParagraphModelE@Base 9.55.0~dfsg1-0ubuntu1
 _ZN9tesseract19RowScratchRegisters12SetStartLineEv@Base 9.55.0~dfsg1-0ubuntu1
 _ZN9tesseract19RowScratchRegisters23AppendDebugHeaderFieldsEPSt6vectorINS_6STRINGESaIS2_EE@Base 9.55.0~dfsg1-0ubuntu1
 _ZN9tesseract19RowScratchRegisters28DiscardNonMatchingHypothesesERKNS_13GenericVectorIPKNS_14ParagraphModelEEE@Base 9.55.0~dfsg1-0ubuntu1
 _ZN9tesseract19RowScratchRegisters4InitERKNS_7RowInfoE@Base 9.55.0~dfsg1-0ubuntu1
 _ZN9tesseract19SORTED_FLOAT_zapperEPNS_10ELIST_LINKE@Base 9.55.0~dfsg1-0ubuntu1
 _ZN9tesseract19TabVector_c1_zapperEPv@Base 9.55.0~dfsg1-0ubuntu1
 _ZN9tesseract19TessBoxTextRenderer15AddImageHandlerEPNS_11TessBaseAPIE@Base 9.55.0~dfsg1-0ubuntu1
 _ZN9tesseract19TessBoxTextRendererC1EPKc@Base 9.55.0~dfsg1-0ubuntu1
 _ZN9tesseract19TessBoxTextRendererC2EPKc@Base 9.55.0~dfsg1-0ubuntu1
 _ZN9tesseract19TessLSTMBoxRenderer15AddImageHandlerEPNS_11TessBaseAPIE@Base 9.55.0~dfsg1-0ubuntu1
 _ZN9tesseract19TessLSTMBoxRendererC1EPKc@Base 9.55.0~dfsg1-0ubuntu1
 _ZN9tesseract19TessLSTMBoxRendererC2EPKc@Base 9.55.0~dfsg1-0ubuntu1
 _ZN9tesseract19TrainingSample_LIST9deep_copyEPKS0_PFPNS_14TrainingSampleEPKS3_E@Base 9.55.0~dfsg1-0ubuntu1
 _ZN9tesseract19WorkingPartSet_LIST9deep_copyEPKS0_PFPNS_14WorkingPartSetEPKS3_E@Base 9.55.0~dfsg1-0ubuntu1
 _ZN9tesseract19cleanup_rows_makingENS_6ICOORDEPNS_8TO_BLOCKEfNS_6FCOORDEib@Base 9.55.0~dfsg1-0ubuntu1
 _ZN9tesseract19compute_block_pitchEPNS_8TO_BLOCKENS_6FCOORDEib@Base 9.55.0~dfsg1-0ubuntu1
 _ZN9tesseract19compute_fixed_pitchENS_6ICOORDEPNS_13TO_BLOCK_LISTEfNS_6FCOORDEb@Base 9.55.0~dfsg1-0ubuntu1
 _ZN9tesseract19correct_row_xheightEPNS_6TO_ROWEfff@Base 9.55.0~dfsg1-0ubuntu1
 _ZN9tesseract19deskew_block_coordsEPNS_8TO_BLOCKEf@Base 9.55.0~dfsg1-0ubuntu1
 _ZN9tesseract19find_repeated_charsEPNS_8TO_BLOCKEb@Base 9.55.0~dfsg1-0ubuntu1
 _ZN9tesseract19insert_spline_pointEPiiiiRi@Base 9.55.0~dfsg1-0ubuntu1
 _ZN9tesseract19make_first_baselineEPNS_4TBOXEiPiS2_PNS_7QSPLINEES4_f@Base 9.55.0~dfsg1-0ubuntu1
 _ZN9tesseract19make_holed_baselineEPNS_4TBOXEiPNS_7QSPLINEES3_f@Base 9.55.0~dfsg1-0ubuntu1
 _ZN9tesseract19mark_repeated_charsEPNS_6TO_ROWE@Base 9.55.0~dfsg1-0ubuntu1
 _ZN9tesseract19pitsync_joined_edgeE@Base 9.55.0~dfsg1-0ubuntu1
 _ZN9tesseract19pre_associate_blobsENS_6ICOORDEPNS_8TO_BLOCKENS_6FCOORDEb@Base 9.55.0~dfsg1-0ubuntu1
 _ZN9tesseract19reject_poor_matchesEPNS_8WERD_RESE@Base 9.55.0~dfsg1-0ubuntu1
 _ZN9tesseract19separate_underlinesEPNS_8TO_BLOCKEfNS_6FCOORDEb@Base 9.55.0~dfsg1-0ubuntu1
 _ZN9tesseract19textord_debug_blockE@Base 9.55.0~dfsg1-0ubuntu1
 _ZN9tesseract19textord_fp_choppingE@Base 9.55.0~dfsg1-0ubuntu1
 _ZN9tesseract19textord_fpiqr_ratioE@Base 9.55.0~dfsg1-0ubuntu1
 _ZN9tesseract19textord_min_xheightE@Base 9.55.0~dfsg1-0ubuntu1
 _ZN9tesseract19textord_old_xheightE@Base 9.55.0~dfsg1-0ubuntu1
 _ZN9tesseract19textord_oldbl_debugE@Base 9.55.0~dfsg1-0ubuntu1
 _ZN9tesseract19textord_pitch_cheatE@Base 9.55.0~dfsg1-0ubuntu1
 _ZN9tesseract19textord_pitch_rangeE@Base 9.55.0~dfsg1-0ubuntu1
 _ZN9tesseract19textord_width_limitE@Base 9.55.0~dfsg1-0ubuntu1
 _ZN9tesseract19words_initial_lowerE@Base 9.55.0~dfsg1-0ubuntu1
 _ZN9tesseract19words_initial_upperE@Base 9.55.0~dfsg1-0ubuntu1
 _ZN9tesseract20BlobToTrainingSampleERKNS_5TBLOBEbPNS_20INT_FX_RESULT_STRUCTEPSt6vectorINS_18INT_FEATURE_STRUCTESaIS6_EE@Base 9.55.0~dfsg1-0ubuntu1
 _ZN9tesseract20CharNormalizeOutlineEPNS_8list_recERKNS_6DENORME@Base 9.55.0~dfsg1-0ubuntu1
 _ZN9tesseract20ColPartitionSet_LIST9deep_copyEPKS0_PFPNS_15ColPartitionSetEPKS3_E@Base 9.55.0~dfsg1-0ubuntu1
 _ZN9tesseract20ColSegment_c1_zapperEPv@Base 9.55.0~dfsg1-0ubuntu1
 _ZN9tesseract20FindDirectionChangesEPNS_8list_recEff@Base 9.55.0~dfsg1-0ubuntu1
 _ZN9tesseract20MarkDirectionChangesEPNS_8list_recE@Base 9.55.0~dfsg1-0ubuntu1
 _ZN9tesseract20OrientationIdToValueERKi@Base 9.55.0~dfsg1-0ubuntu1
 _ZN9tesseract20TabConstraint_zapperEPNS_10ELIST_LINKE@Base 9.55.0~dfsg1-0ubuntu1
 _ZN9tesseract20ValidCharDescriptionERKNS_19FEATURE_DEFS_STRUCTEPNS_16CHAR_DESC_STRUCTE@Base 9.55.0~dfsg1-0ubuntu1
 _ZN9tesseract20WriteCharDescriptionERKNS_19FEATURE_DEFS_STRUCTEPNS_16CHAR_DESC_STRUCTEPNS_6STRINGE@Base 9.55.0~dfsg1-0ubuntu1
 _ZN9tesseract20assign_blobs_to_rowsEPNS_8TO_BLOCKEPfibbb@Base 9.55.0~dfsg1-0ubuntu1
 _ZN9tesseract20box_next_pre_choppedEPNS_11BLOBNBOX_ITE@Base 9.55.0~dfsg1-0ubuntu1
 _ZN9tesseract20compute_height_modesEPNS_5STATSEiiPii@Base 9.55.0~dfsg1-0ubuntu1
 _ZN9tesseract20compute_row_descdropEPNS_6TO_ROWEfiPNS_5STATSE@Base 9.55.0~dfsg1-0ubuntu1
 _ZN9tesseract20edgesteps_to_edgeptsEPNS_9C_OUTLINEEPNS_6EDGEPTE@Base 9.55.0~dfsg1-0ubuntu1
 _ZN9tesseract20kUniversalAmbigsFileE@Base 9.55.0~dfsg1-0ubuntu1
 _ZN9tesseract20make_baseline_splineEPNS_6TO_ROWEPNS_8TO_BLOCKE@Base 9.55.0~dfsg1-0ubuntu1
 _ZN9tesseract20make_illegal_segmentEPNS_12FPSEGPT_LISTENS_4TBOXENS_11BLOBNBOX_ITEsssS1_@Base 9.55.0~dfsg1-0ubuntu1
 _ZN9tesseract20most_overlapping_rowEPNS_11TO_ROW_LISTEPNS_8BLOBNBOXE@Base 9.55.0~dfsg1-0ubuntu1
 _ZN9tesseract20most_overlapping_rowEPNS_9TO_ROW_ITERPNS_6TO_ROWEfffb@Base 9.55.0~dfsg1-0ubuntu1
 _ZN9tesseract20split_stepped_splineEPNS_7QSPLINEEfPiS2_Ri@Base 9.55.0~dfsg1-0ubuntu1
 _ZN9tesseract20textord_chopper_testE@Base 9.55.0~dfsg1-0ubuntu1
 _ZN9tesseract20textord_fp_chop_snapE@Base 9.55.0~dfsg1-0ubuntu1
 _ZN9tesseract20textord_fp_min_widthE@Base 9.55.0~dfsg1-0ubuntu1
 _ZN9tesseract20textord_min_linesizeE@Base 9.55.0~dfsg1-0ubuntu1
 _ZN9tesseract21AddProtoToClassPrunerEPNS_12PROTO_STRUCTEiPNS_20INT_TEMPLATES_STRUCTE@Base 9.55.0~dfsg1-0ubuntu1
 _ZN9tesseract21AddProtoToProtoPrunerEPNS_12PROTO_STRUCTEiPNS_16INT_CLASS_STRUCTEb@Base 9.55.0~dfsg1-0ubuntu1
 _ZN9tesseract21C_OUTLINE_FRAG_zapperEPNS_10ELIST_LINKE@Base 9.55.0~dfsg1-0ubuntu1
 _ZN9tesseract21FirstWordWouldHaveFitERKNS_19RowScratchRegistersES2_@Base 9.55.0~dfsg1-0ubuntu1
 _ZN9tesseract21FirstWordWouldHaveFitERKNS_19RowScratchRegistersES2_NS_22ParagraphJustificationE@Base 9.55.0~dfsg1-0ubuntu1
 _ZN9tesseract21FontSetDeleteCallbackENS_7FontSetE@Base 9.55.0~dfsg1-0ubuntu1
 _ZN9tesseract21ParagraphModelSmearer19CalculateOpenModelsEii@Base 9.55.0~dfsg1-0ubuntu1
 _ZN9tesseract21ParagraphModelSmearer5SmearEv@Base 9.55.0~dfsg1-0ubuntu1
 _ZN9tesseract21ParagraphModelSmearerC1EPNS_13GenericVectorINS_19RowScratchRegistersEEEiiPNS_15ParagraphTheoryE@Base 9.55.0~dfsg1-0ubuntu1
 _ZN9tesseract21ParagraphModelSmearerC2EPNS_13GenericVectorINS_19RowScratchRegistersEEEiiPNS_15ParagraphTheoryE@Base 9.55.0~dfsg1-0ubuntu1
 _ZN9tesseract21TrainingSample_zapperEPNS_10ELIST_LINKE@Base 9.55.0~dfsg1-0ubuntu1
 _ZN9tesseract21WordWithBox_c1_zapperEPv@Base 9.55.0~dfsg1-0ubuntu1
 _ZN9tesseract21WorkingPartSet_zapperEPNS_10ELIST_LINKE@Base 9.55.0~dfsg1-0ubuntu1
 _ZN9tesseract21find_best_dropout_rowEPNS_6TO_ROWEifiPNS_9TO_ROW_ITEb@Base 9.55.0~dfsg1-0ubuntu1
 _ZN9tesseract21find_underlined_blobsEPNS_8BLOBNBOXEPNS_7QSPLINEEffPNS_14ICOORDELT_LISTE@Base 9.55.0~dfsg1-0ubuntu1
 _ZN9tesseract21make_initial_textrowsENS_6ICOORDEPNS_8TO_BLOCKENS_6FCOORDEb@Base 9.55.0~dfsg1-0ubuntu1
 _ZN9tesseract21textord_debug_tabfindE@Base 9.55.0~dfsg1-0ubuntu1
 _ZN9tesseract21textord_dotmatrix_gapE@Base 9.55.0~dfsg1-0ubuntu1
 _ZN9tesseract21textord_fp_chop_errorE@Base 9.55.0~dfsg1-0ubuntu1
 _ZN9tesseract21textord_max_pitch_iqrE@Base 9.55.0~dfsg1-0ubuntu1
 _ZN9tesseract21textord_old_baselinesE@Base 9.55.0~dfsg1-0ubuntu1
 _ZN9tesseract21textord_show_row_cutsE@Base 9.55.0~dfsg1-0ubuntu1
 _ZN9tesseract22AddOutlineFeatureToSetEP6FPOINTS1_PNS_18FEATURE_SET_STRUCTE@Base 9.55.0~dfsg1-0ubuntu1
 _ZN9tesseract22ColPartitionSet_zapperEPNS_10ELIST_LINKE@Base 9.55.0~dfsg1-0ubuntu1
 _ZN9tesseract22ColPartition_c1_zapperEPv@Base 9.55.0~dfsg1-0ubuntu1
 _ZN9tesseract22ConvertToMicroFeaturesEPNS_8list_recES1_@Base 9.55.0~dfsg1-0ubuntu1
 _ZN9tesseract22ConvertToPicoFeatures2EPNS_8list_recEPNS_18FEATURE_SET_STRUCTE@Base 9.55.0~dfsg1-0ubuntu1
 _ZN9tesseract22FPSEGPT_LIST_c1_zapperEPv@Base 9.55.0~dfsg1-0ubuntu1
 _ZN9tesseract22FontInfoDeleteCallbackENS_8FontInfoE@Base 9.55.0~dfsg1-0ubuntu1
 _ZN9tesseract22PrintSegmentationStatsEPNS_10BLOCK_LISTE@Base 9.55.0~dfsg1-0ubuntu1
 _ZN9tesseract22ShortNameToFeatureTypeERKNS_19FEATURE_DEFS_STRUCTEPKc@Base 9.55.0~dfsg1-0ubuntu1
 _ZN9tesseract22TessWordStrBoxRenderer15AddImageHandlerEPNS_11TessBaseAPIE@Base 9.55.0~dfsg1-0ubuntu1
 _ZN9tesseract22TessWordStrBoxRendererC1EPKc@Base 9.55.0~dfsg1-0ubuntu1
 _ZN9tesseract22TessWordStrBoxRendererC2EPKc@Base 9.55.0~dfsg1-0ubuntu1
 _ZN9tesseract22TraceBlockOnReducedPixEPNS_5BLOCKEiNS_6ICOORDEPiS3_@Base 9.55.0~dfsg1-0ubuntu1
 _ZN9tesseract22ViterbiStateEntry_LIST9deep_copyEPKS0_PFPNS_17ViterbiStateEntryEPKS3_E@Base 9.55.0~dfsg1-0ubuntu1
 _ZN9tesseract22classify_norm_adj_curlE@Base 9.55.0~dfsg1-0ubuntu1
 _ZN9tesseract22determine_newline_typeEPNS_4WERDEPNS_5BLOCKES1_S3_@Base 9.55.0~dfsg1-0ubuntu1
 _ZN9tesseract22free_adapted_templatesEPNS_22ADAPT_TEMPLATES_STRUCTE@Base 9.55.0~dfsg1-0ubuntu1
 _ZN9tesseract22linear_spline_baselineEPNS_6TO_ROWEPNS_8TO_BLOCKERiPi@Base 9.55.0~dfsg1-0ubuntu1
 _ZN9tesseract22pitsync_linear_versionE@Base 9.55.0~dfsg1-0ubuntu1
 _ZN9tesseract22textord_ascx_ratio_maxE@Base 9.55.0~dfsg1-0ubuntu1
 _ZN9tesseract22textord_ascx_ratio_minE@Base 9.55.0~dfsg1-0ubuntu1
 _ZN9tesseract22textord_balance_factorE@Base 9.55.0~dfsg1-0ubuntu1
 _ZN9tesseract22textord_blocksall_propE@Base 9.55.0~dfsg1-0ubuntu1
 _ZN9tesseract22textord_debug_xheightsE@Base 9.55.0~dfsg1-0ubuntu1
 _ZN9tesseract22textord_show_new_wordsE@Base 9.55.0~dfsg1-0ubuntu1
 _ZN9tesseract22textord_show_page_cutsE@Base 9.55.0~dfsg1-0ubuntu1
 _ZN9tesseract22textord_test_landscapeE@Base 9.55.0~dfsg1-0ubuntu1
 _ZN9tesseract22textord_words_def_propE@Base 9.55.0~dfsg1-0ubuntu1
 _ZN9tesseract22textord_words_maxspaceE@Base 9.55.0~dfsg1-0ubuntu1
 _ZN9tesseract22textord_words_minlargeE@Base 9.55.0~dfsg1-0ubuntu1
 _ZN9tesseract22transform_to_next_permERNS_13WERD_RES_LISTE@Base 9.55.0~dfsg1-0ubuntu1
 _ZN9tesseract22vigorous_noise_removalEPNS_8TO_BLOCKE@Base 9.55.0~dfsg1-0ubuntu1
 _ZN9tesseract22wordrec_display_splitsE@Base 9.55.0~dfsg1-0ubuntu1
 _ZN9tesseract23ExtractCharNormFeaturesERKNS_20INT_FX_RESULT_STRUCTE@Base 9.55.0~dfsg1-0ubuntu1
 _ZN9tesseract23KDNearestNeighborSearchEPNS_6KDTREEEPfifPiPPvS2_@Base 9.55.0~dfsg1-0ubuntu1
 _ZN9tesseract23assign_blobs_to_blocks2EP3PixPNS_10BLOCK_LISTEPNS_13TO_BLOCK_LISTE@Base 9.55.0~dfsg1-0ubuntu1
 _ZN9tesseract23compute_fixed_pitch_cjkENS_6ICOORDEPNS_13TO_BLOCK_LISTE@Base 9.55.0~dfsg1-0ubuntu1
 _ZN9tesseract23compute_line_occupationEPNS_8TO_BLOCKEfiiPiS2_@Base 9.55.0~dfsg1-0ubuntu1
 _ZN9tesseract23delete_non_dropout_rowsEPNS_8TO_BLOCKEfNS_6FCOORDEib@Base 9.55.0~dfsg1-0ubuntu1
 _ZN9tesseract23textord_blockndoc_fixedE@Base 9.55.0~dfsg1-0ubuntu1
 _ZN9tesseract23textord_blocksall_fixedE@Base 9.55.0~dfsg1-0ubuntu1
 _ZN9tesseract23textord_debug_printableE@Base 9.55.0~dfsg1-0ubuntu1
 _ZN9tesseract23textord_descx_ratio_maxE@Base 9.55.0~dfsg1-0ubuntu1
 _ZN9tesseract23textord_descx_ratio_minE@Base 9.55.0~dfsg1-0ubuntu1
 _ZN9tesseract23textord_excess_blobsizeE@Base 9.55.0~dfsg1-0ubuntu1
 _ZN9tesseract23textord_fast_pitch_testE@Base 9.55.0~dfsg1-0ubuntu1
 _ZN9tesseract23textord_fix_makerow_bugE@Base 9.55.0~dfsg1-0ubuntu1
 _ZN9tesseract23textord_fix_xheight_bugE@Base 9.55.0~dfsg1-0ubuntu1
 _ZN9tesseract23textord_lms_line_trialsE@Base 9.55.0~dfsg1-0ubuntu1
 _ZN9tesseract23textord_show_final_rowsE@Base 9.55.0~dfsg1-0ubuntu1
 _ZN9tesseract23textord_show_fixed_cutsE@Base 9.55.0~dfsg1-0ubuntu1
 _ZN9tesseract23textord_spline_minblobsE@Base 9.55.0~dfsg1-0ubuntu1
 _ZN9tesseract23textord_underline_widthE@Base 9.55.0~dfsg1-0ubuntu1
 _ZN9tesseract23textord_words_def_fixedE@Base 9.55.0~dfsg1-0ubuntu1
 _ZN9tesseract23textord_words_width_ileE@Base 9.55.0~dfsg1-0ubuntu1
 _ZN9tesseract24ConvertSegmentToPicoFeatEP6FPOINTS1_PNS_18FEATURE_SET_STRUCTE@Base 9.55.0~dfsg1-0ubuntu1
 _ZN9tesseract24ConvertToOutlineFeaturesEPNS_8list_recEPNS_18FEATURE_SET_STRUCTE@Base 9.55.0~dfsg1-0ubuntu1
 _ZN9tesseract24TraceOutlineOnReducedPixEPNS_9C_OUTLINEEiNS_6ICOORDEPiS3_@Base 9.55.0~dfsg1-0ubuntu1
 _ZN9tesseract24ViterbiStateEntry_zapperEPNS_10ELIST_LINKE@Base 9.55.0~dfsg1-0ubuntu1
 _ZN9tesseract24compute_reject_thresholdEPNS_11WERD_CHOICEE@Base 9.55.0~dfsg1-0ubuntu1
 _ZN9tesseract24restore_underlined_blobsEPNS_8TO_BLOCKE@Base 9.55.0~dfsg1-0ubuntu1
 _ZN9tesseract24textord_debug_pitch_testE@Base 9.55.0~dfsg1-0ubuntu1
 _ZN9tesseract24textord_min_blobs_in_rowE@Base 9.55.0~dfsg1-0ubuntu1
 _ZN9tesseract24textord_projection_scaleE@Base 9.55.0~dfsg1-0ubuntu1
 _ZN9tesseract24textord_show_final_blobsE@Base 9.55.0~dfsg1-0ubuntu1
 _ZN9tesseract24textord_show_fixed_wordsE@Base 9.55.0~dfsg1-0ubuntu1
 _ZN9tesseract24textord_spline_medianwinE@Base 9.55.0~dfsg1-0ubuntu1
 _ZN9tesseract24textord_underline_offsetE@Base 9.55.0~dfsg1-0ubuntu1
 _ZN9tesseract24textord_words_veto_powerE@Base 9.55.0~dfsg1-0ubuntu1
 _ZN9tesseract25compute_dropout_distancesEPiS0_i@Base 9.55.0~dfsg1-0ubuntu1
 _ZN9tesseract25gapmap_no_isolated_quantaE@Base 9.55.0~dfsg1-0ubuntu1
 _ZN9tesseract25textord_blocksall_testingE@Base 9.55.0~dfsg1-0ubuntu1
 _ZN9tesseract25textord_show_initial_rowsE@Base 9.55.0~dfsg1-0ubuntu1
 _ZN9tesseract25textord_spacesize_ratiofpE@Base 9.55.0~dfsg1-0ubuntu1
 _ZN9tesseract25vertical_cblob_projectionEPNS_6C_BLOBEPNS_5STATSE@Base 9.55.0~dfsg1-0ubuntu1
 _ZN9tesseract25wordrec_display_all_blobsE@Base 9.55.0~dfsg1-0ubuntu1
 _ZN9tesseract25words_default_fixed_limitE@Base 9.55.0~dfsg1-0ubuntu1
 _ZN9tesseract25words_default_fixed_spaceE@Base 9.55.0~dfsg1-0ubuntu1
 _ZN9tesseract26classify_norm_adj_midpointE@Base 9.55.0~dfsg1-0ubuntu1
 _ZN9tesseract26compute_xheight_from_modesEPNS_5STATSES1_biiPfS2_@Base 9.55.0~dfsg1-0ubuntu1
 _ZN9tesseract26ksizeofUniversalAmbigsFileE@Base 9.55.0~dfsg1-0ubuntu1
 _ZN9tesseract26textord_debug_pitch_metricE@Base 9.55.0~dfsg1-0ubuntu1
 _ZN9tesseract26textord_linespace_iqrlimitE@Base 9.55.0~dfsg1-0ubuntu1
 _ZN9tesseract26textord_parallel_baselinesE@Base 9.55.0~dfsg1-0ubuntu1
 _ZN9tesseract26textord_restore_underlinesE@Base 9.55.0~dfsg1-0ubuntu1
 _ZN9tesseract26textord_show_expanded_rowsE@Base 9.55.0~dfsg1-0ubuntu1
 _ZN9tesseract26textord_show_initial_wordsE@Base 9.55.0~dfsg1-0ubuntu1
 _ZN9tesseract26textord_show_parallel_rowsE@Base 9.55.0~dfsg1-0ubuntu1
 _ZN9tesseract26textord_straight_baselinesE@Base 9.55.0~dfsg1-0ubuntu1
 _ZN9tesseract26textord_words_min_minspaceE@Base 9.55.0~dfsg1-0ubuntu1
 _ZN9tesseract27ParamsTrainingFeatureByNameEPKc@Base 9.55.0~dfsg1-0ubuntu1
 _ZN9tesseract27devanagari_split_debugimageE@Base 9.55.0~dfsg1-0ubuntu1
 _ZN9tesseract27devanagari_split_debuglevelE@Base 9.55.0~dfsg1-0ubuntu1
 _ZN9tesseract27textord_new_initial_xheightE@Base 9.55.0~dfsg1-0ubuntu1
 _ZN9tesseract27textord_occupancy_thresholdE@Base 9.55.0~dfsg1-0ubuntu1
 _ZN9tesseract27textord_pitch_rowsimilarityE@Base 9.55.0~dfsg1-0ubuntu1
 _ZN9tesseract27textord_pitch_scalebigwordsE@Base 9.55.0~dfsg1-0ubuntu1
 _ZN9tesseract27textord_spacesize_ratiopropE@Base 9.55.0~dfsg1-0ubuntu1
 _ZN9tesseract27textord_underline_thresholdE@Base 9.55.0~dfsg1-0ubuntu1
 _ZN9tesseract27textord_width_smooth_factorE@Base 9.55.0~dfsg1-0ubuntu1
 _ZN9tesseract27textord_words_initial_lowerE@Base 9.55.0~dfsg1-0ubuntu1
 _ZN9tesseract27textord_words_initial_upperE@Base 9.55.0~dfsg1-0ubuntu1
 _ZN9tesseract27words_default_prop_nonspaceE@Base 9.55.0~dfsg1-0ubuntu1
 _ZN9tesseract28CanonicalizeDetectionResultsEPNS_13GenericVectorIPNS_4PARAEEEPNS_9PARA_LISTE@Base 9.55.0~dfsg1-0ubuntu1
 _ZN9tesseract28ExtractBlobsFromSegmentationEPNS_10BLOCK_LISTEPNS_11C_BLOB_LISTE@Base 9.55.0~dfsg1-0ubuntu1
 _ZN9tesseract28RefreshWordBlobsFromNewBlobsEPNS_10BLOCK_LISTEPNS_11C_BLOB_LISTES3_@Base 9.55.0~dfsg1-0ubuntu1
 _ZN9tesseract28classify_pico_feature_lengthE@Base 9.55.0~dfsg1-0ubuntu1
 _ZN9tesseract28compute_occupation_thresholdEiiiPiS0_@Base 9.55.0~dfsg1-0ubuntu1
 _ZN9tesseract28textord_xheight_error_marginE@Base 9.55.0~dfsg1-0ubuntu1
 _ZN9tesseract28vertical_coutline_projectionEPNS_9C_OUTLINEEPNS_5STATSE@Base 9.55.0~dfsg1-0ubuntu1
 _ZN9tesseract29textord_force_make_prop_wordsE@Base 9.55.0~dfsg1-0ubuntu1
 _ZN9tesseract29textord_spline_shift_fractionE@Base 9.55.0~dfsg1-0ubuntu1
 _ZN9tesseract29textord_words_definite_spreadE@Base 9.55.0~dfsg1-0ubuntu1
 _ZN9tesseract29textord_xheight_mode_fractionE@Base 9.55.0~dfsg1-0ubuntu1
 _ZN9tesseract30textord_words_default_maxspaceE@Base 9.55.0~dfsg1-0ubuntu1
 _ZN9tesseract30textord_words_default_minspaceE@Base 9.55.0~dfsg1-0ubuntu1
 _ZN9tesseract30textord_words_default_nonspaceE@Base 9.55.0~dfsg1-0ubuntu1
 _ZN9tesseract30vertical_cunderline_projectionEPNS_9C_OUTLINEEPNS_7QSPLINEEffPNS_5STATSES5_S5_@Base 9.55.0~dfsg1-0ubuntu1
 _ZN9tesseract31pitsync_offset_freecut_fractionE@Base 9.55.0~dfsg1-0ubuntu1
 _ZN9tesseract31textord_ascheight_mode_fractionE@Base 9.55.0~dfsg1-0ubuntu1
 _ZN9tesseract31textord_spline_outlier_fractionE@Base 9.55.0~dfsg1-0ubuntu1
 _ZN9tesseract31textord_words_pitchsd_thresholdE@Base 9.55.0~dfsg1-0ubuntu1
 _ZN9tesseract31textord_wordstats_smooth_factorE@Base 9.55.0~dfsg1-0ubuntu1
 _ZN9tesseract32orientation_and_script_detectionEPKcPNS_9OSResultsEPNS_9TesseractE@Base 9.55.0~dfsg1-0ubuntu1
 _ZN9tesseract32textord_min_blob_height_fractionE@Base 9.55.0~dfsg1-0ubuntu1
 _ZN9tesseract33EqualIgnoringCaseAndTerminalPunctERKNS_11WERD_CHOICEES2_@Base 9.55.0~dfsg1-0ubuntu1
 _ZN9tesseract34RecomputeMarginsAndClearHypothesesEPNS_13GenericVectorINS_19RowScratchRegistersEEEiii@Base 9.55.0~dfsg1-0ubuntu1
 _ZN9tesseract36textord_tabvector_vertical_box_ratioE@Base 9.55.0~dfsg1-0ubuntu1
 _ZN9tesseract39textord_tabvector_vertical_gap_fractionE@Base 9.55.0~dfsg1-0ubuntu1
 _ZN9tesseract3REJ10full_printEP8_IO_FILE@Base 9.55.0~dfsg1-0ubuntu1
 _ZN9tesseract3REJ13perm_rejectedEv@Base 9.55.0~dfsg1-0ubuntu1
 _ZN9tesseract3REJ13setrej_hyphenEv@Base 9.55.0~dfsg1-0ubuntu1
 _ZN9tesseract3REJ14setrej_doc_rejEv@Base 9.55.0~dfsg1-0ubuntu1
 _ZN9tesseract3REJ14setrej_dubiousEv@Base 9.55.0~dfsg1-0ubuntu1
 _ZN9tesseract3REJ14setrej_row_rejEv@Base 9.55.0~dfsg1-0ubuntu1
 _ZN9tesseract3REJ15setrej_unlv_rejEv@Base 9.55.0~dfsg1-0ubuntu1
 _ZN9tesseract3REJ16setrej_block_rejEv@Base 9.55.0~dfsg1-0ubuntu1
 _ZN9tesseract3REJ16setrej_edge_charEv@Base 9.55.0~dfsg1-0ubuntu1
 _ZN9tesseract3REJ16setrej_mm_acceptEv@Base 9.55.0~dfsg1-0ubuntu1
 _ZN9tesseract3REJ16setrej_mm_rejectEv@Base 9.55.0~dfsg1-0ubuntu1
 _ZN9tesseract3REJ16setrej_nn_acceptEv@Base 9.55.0~dfsg1-0ubuntu1
 _ZN9tesseract3REJ16setrej_rej_cblobEv@Base 9.55.0~dfsg1-0ubuntu1
 _ZN9tesseract3REJ16setrej_small_xhtEv@Base 9.55.0~dfsg1-0ubuntu1
 _ZN9tesseract3REJ16setrej_xht_fixupEv@Base 9.55.0~dfsg1-0ubuntu1
 _ZN9tesseract3REJ17setrej_mostly_rejEv@Base 9.55.0~dfsg1-0ubuntu1
 _ZN9tesseract3REJ17setrej_poor_matchEv@Base 9.55.0~dfsg1-0ubuntu1
 _ZN9tesseract3REJ17setrej_postNN_1IlEv@Base 9.55.0~dfsg1-0ubuntu1
 _ZN9tesseract3REJ18setrej_bad_qualityEv@Base 9.55.0~dfsg1-0ubuntu1
 _ZN9tesseract3REJ19setrej_1Il_conflictEv@Base 9.55.0~dfsg1-0ubuntu1
 _ZN9tesseract3REJ19setrej_bad_permuterEv@Base 9.55.0~dfsg1-0ubuntu1
 _ZN9tesseract3REJ19setrej_no_alphanumsEv@Base 9.55.0~dfsg1-0ubuntu1
 _ZN9tesseract3REJ19setrej_tess_failureEv@Base 9.55.0~dfsg1-0ubuntu1
 _ZN9tesseract3REJ20rej_before_mm_acceptEv@Base 9.55.0~dfsg1-0ubuntu1
 _ZN9tesseract3REJ20rej_before_nn_acceptEv@Base 9.55.0~dfsg1-0ubuntu1
 _ZN9tesseract3REJ20setrej_hyphen_acceptEv@Base 9.55.0~dfsg1-0ubuntu1
 _ZN9tesseract3REJ21rej_between_nn_and_mmEv@Base 9.55.0~dfsg1-0ubuntu1
 _ZN9tesseract3REJ21setrej_bad_repetitionEv@Base 9.55.0~dfsg1-0ubuntu1
 _ZN9tesseract3REJ21setrej_quality_acceptEv@Base 9.55.0~dfsg1-0ubuntu1
 _ZN9tesseract3REJ22accept_if_good_qualityEv@Base 9.55.0~dfsg1-0ubuntu1
 _ZN9tesseract3REJ22setrej_contains_blanksEv@Base 9.55.0~dfsg1-0ubuntu1
 _ZN9tesseract3REJ24setrej_not_tess_acceptedEv@Base 9.55.0~dfsg1-0ubuntu1
 _ZN9tesseract3REJ25rej_before_quality_acceptEv@Base 9.55.0~dfsg1-0ubuntu1
 _ZN9tesseract3REJ25setrej_minimal_rej_acceptEv@Base 9.55.0~dfsg1-0ubuntu1
 _ZN9tesseract3REJ33rej_between_mm_and_quality_acceptEv@Base 9.55.0~dfsg1-0ubuntu1
 _ZN9tesseract3REJ42rej_between_quality_and_minimal_rej_acceptEv@Base 9.55.0~dfsg1-0ubuntu1
 _ZN9tesseract3REJ8rejectedEv@Base 9.55.0~dfsg1-0ubuntu1
 _ZN9tesseract3ROW19recalc_bounding_boxEv@Base 9.55.0~dfsg1-0ubuntu1
 _ZN9tesseract3ROW4moveENS_6ICOORDE@Base 9.55.0~dfsg1-0ubuntu1
 _ZN9tesseract3ROW5printEP8_IO_FILE@Base 9.55.0~dfsg1-0ubuntu1
 _ZN9tesseract3ROWC1EPNS_6TO_ROWEss@Base 9.55.0~dfsg1-0ubuntu1
 _ZN9tesseract3ROWC1EiPiPdfffss@Base 9.55.0~dfsg1-0ubuntu1
 _ZN9tesseract3ROWC2EPNS_6TO_ROWEss@Base 9.55.0~dfsg1-0ubuntu1
 _ZN9tesseract3ROWC2EiPiPdfffss@Base 9.55.0~dfsg1-0ubuntu1
 _ZN9tesseract3ROWaSERKS0_@Base 9.55.0~dfsg1-0ubuntu1
 _ZN9tesseract3popEPNS_8list_recE@Base 9.55.0~dfsg1-0ubuntu1
 _ZN9tesseract4Dawg4initEi@Base 9.55.0~dfsg1-0ubuntu1
 _ZN9tesseract4DawgD0Ev@Base 9.55.0~dfsg1-0ubuntu1
 _ZN9tesseract4DawgD1Ev@Base 9.55.0~dfsg1-0ubuntu1
 _ZN9tesseract4DawgD2Ev@Base 9.55.0~dfsg1-0ubuntu1
 _ZN9tesseract4Dict10FinishLoadEv@Base 9.55.0~dfsg1-0ubuntu1
 _ZN9tesseract4Dict11adjust_wordEPNS_11WERD_CHOICEEbNS_22XHeightConsistencyEnumEfbb@Base 9.55.0~dfsg1-0ubuntu1
 _ZN9tesseract4Dict12ReplaceAmbigEiiiPNS_11WERD_CHOICEEPNS_6MATRIXE@Base 9.55.0~dfsg1-0ubuntu1
 _ZN9tesseract4Dict12SetupForLoadEPNS_9DawgCacheE@Base 9.55.0~dfsg1-0ubuntu1
 _ZN9tesseract4Dict14append_choicesEPKcRKNS_13GenericVectorIPNS_16BLOB_CHOICE_LISTEEERKNS_11BLOB_CHOICEEiPKNS_18CHAR_FRAGMENT_INFOEPNS_11WERD_CHOICEEPfSH_SG_PiPv@Base 9.55.0~dfsg1-0ubuntu1
 _ZN9tesseract4Dict15GlobalDawgCacheEv@Base 9.55.0~dfsg1-0ubuntu1
 _ZN9tesseract4Dict15permute_choicesEPKcRKNS_13GenericVectorIPNS_16BLOB_CHOICE_LISTEEEiPKNS_18CHAR_FRAGMENT_INFOEPNS_11WERD_CHOICEEPfSE_SD_PiPv@Base 9.55.0~dfsg1-0ubuntu1
 _ZN9tesseract4Dict15set_hyphen_wordERKNS_11WERD_CHOICEERKNS_18DawgPositionVectorE@Base 9.55.0~dfsg1-0ubuntu1
 _ZN9tesseract4Dict16AcceptableChoiceERKNS_11WERD_CHOICEENS_22XHeightConsistencyEnumE@Base 9.55.0~dfsg1-0ubuntu1
 _ZN9tesseract4Dict16NoDangerousAmbigEPNS_11WERD_CHOICEEPNS_13GenericVectorINS_12DANGERR_INFOEEEbPNS_6MATRIXE@Base 9.55.0~dfsg1-0ubuntu1
 _ZN9tesseract4Dict16absolute_garbageERKNS_11WERD_CHOICEERKNS_10UNICHARSETE@Base 9.55.0~dfsg1-0ubuntu1
 _ZN9tesseract4Dict17add_document_wordERKNS_11WERD_CHOICEE@Base 9.55.0~dfsg1-0ubuntu1
 _ZN9tesseract4Dict17reset_hyphen_varsEb@Base 9.55.0~dfsg1-0ubuntu1
 _ZN9tesseract4Dict17valid_punctuationERKNS_11WERD_CHOICEE@Base 9.55.0~dfsg1-0ubuntu1
 _ZN9tesseract4Dict18EndDangerousAmbigsEv@Base 9.55.0~dfsg1-0ubuntu1
 _ZN9tesseract4Dict18SettupStopperPass1Ev@Base 9.55.0~dfsg1-0ubuntu1
 _ZN9tesseract4Dict18SettupStopperPass2Ev@Base 9.55.0~dfsg1-0ubuntu1
 _ZN9tesseract4Dict18UniformCertaintiesERKNS_11WERD_CHOICEE@Base 9.55.0~dfsg1-0ubuntu1
 _ZN9tesseract4Dict18go_deeper_dawg_fxnEPKcRKNS_13GenericVectorIPNS_16BLOB_CHOICE_LISTEEEiPKNS_18CHAR_FRAGMENT_INFOEbPNS_11WERD_CHOICEEPfSE_SD_PiPv@Base 9.55.0~dfsg1-0ubuntu1
 _ZN9tesseract4Dict19fragment_state_okayEiffPKNS_18CHAR_FRAGMENT_INFOEPKciPS1_@Base 9.55.0~dfsg1-0ubuntu1
 _ZN9tesseract4Dict23dawg_permute_and_selectERKNS_13GenericVectorIPNS_16BLOB_CHOICE_LISTEEEf@Base 9.55.0~dfsg1-0ubuntu1
 _ZN9tesseract4Dict26def_probability_in_contextEPKcS2_iS2_i@Base 9.55.0~dfsg1-0ubuntu1
 _ZN9tesseract4Dict3EndEv@Base 9.55.0~dfsg1-0ubuntu1
 _ZN9tesseract4Dict4LoadERKNS_6STRINGEPNS_15TessdataManagerE@Base 9.55.0~dfsg1-0ubuntu1
 _ZN9tesseract4Dict8LoadLSTMERKNS_6STRINGEPNS_15TessdataManagerE@Base 9.55.0~dfsg1-0ubuntu1
 _ZN9tesseract4DictC1EPNS_6CCUtilE@Base 9.55.0~dfsg1-0ubuntu1
 _ZN9tesseract4DictC2EPNS_6CCUtilE@Base 9.55.0~dfsg1-0ubuntu1
 _ZN9tesseract4DictD1Ev@Base 9.55.0~dfsg1-0ubuntu1
 _ZN9tesseract4DictD2Ev@Base 9.55.0~dfsg1-0ubuntu1
 _ZN9tesseract4LLSQ3addERKS0_@Base 9.55.0~dfsg1-0ubuntu1
 _ZN9tesseract4LLSQ3addEdd@Base 9.55.0~dfsg1-0ubuntu1
 _ZN9tesseract4LLSQ3addEddd@Base 9.55.0~dfsg1-0ubuntu1
 _ZN9tesseract4LLSQ5clearEv@Base 9.55.0~dfsg1-0ubuntu1
 _ZN9tesseract4LLSQ6removeEdd@Base 9.55.0~dfsg1-0ubuntu1
 _ZN9tesseract4LSTM11DeSerializeEPNS_5TFileE@Base 9.55.0~dfsg1-0ubuntu1
 _ZN9tesseract4LSTM11InitWeightsEfPNS_5TRandE@Base 9.55.0~dfsg1-0ubuntu1
 _ZN9tesseract4LSTM12ConvertToIntEv@Base 9.55.0~dfsg1-0ubuntu1
 _ZN9tesseract4LSTM12DebugWeightsEv@Base 9.55.0~dfsg1-0ubuntu1
 _ZN9tesseract4LSTM12RemapOutputsEiRKSt6vectorIiSaIiEE@Base 9.55.0~dfsg1-0ubuntu1
 _ZN9tesseract4LSTM13ResizeForwardERKNS_9NetworkIOE@Base 9.55.0~dfsg1-0ubuntu1
 _ZN9tesseract4LSTM17SetEnableTrainingENS_13TrainingStateE@Base 9.55.0~dfsg1-0ubuntu1
 _ZN9tesseract4LSTM6PrintWEv@Base 9.55.0~dfsg1-0ubuntu1
 _ZN9tesseract4LSTM6UpdateEfffi@Base 9.55.0~dfsg1-0ubuntu1
 _ZN9tesseract4LSTM7ForwardEbRKNS_9NetworkIOEPKNS_15TransposedArrayEPNS_14NetworkScratchEPS1_@Base 9.55.0~dfsg1-0ubuntu1
 _ZN9tesseract4LSTM7PrintDWEv@Base 9.55.0~dfsg1-0ubuntu1
 _ZN9tesseract4LSTM8BackwardEbRKNS_9NetworkIOEPNS_14NetworkScratchEPS1_@Base 9.55.0~dfsg1-0ubuntu1
 _ZN9tesseract4LSTMC1ERKNSt7__cxx1112basic_stringIcSt11char_traitsIcESaIcEEEiiibNS_11NetworkTypeE@Base 9.55.0~dfsg1-0ubuntu1
 _ZN9tesseract4LSTMC2ERKNSt7__cxx1112basic_stringIcSt11char_traitsIcESaIcEEEiiibNS_11NetworkTypeE@Base 9.55.0~dfsg1-0ubuntu1
 _ZN9tesseract4LSTMD0Ev@Base 9.55.0~dfsg1-0ubuntu1
 _ZN9tesseract4LSTMD1Ev@Base 9.55.0~dfsg1-0ubuntu1
 _ZN9tesseract4LSTMD2Ev@Base 9.55.0~dfsg1-0ubuntu1
 _ZN9tesseract4MeanEPNS_9PROTOTYPEEt@Base 9.55.0~dfsg1-0ubuntu1
 _ZN9tesseract4QLSQ3addEdd@Base 9.55.0~dfsg1-0ubuntu1
 _ZN9tesseract4QLSQ3fitEi@Base 9.55.0~dfsg1-0ubuntu1
 _ZN9tesseract4QLSQ5clearEv@Base 9.55.0~dfsg1-0ubuntu1
 _ZN9tesseract4QLSQ6removeEdd@Base 9.55.0~dfsg1-0ubuntu1
 _ZN9tesseract4SEAM10JoinPiecesERKNS_13GenericVectorIPS0_EERKNS1_IPNS_5TBLOBEEEii@Base 9.55.0~dfsg1-0ubuntu1
 _ZN9tesseract4SEAM10PrintSeamsEPKcRKNS_13GenericVectorIPS0_EE@Base 9.55.0~dfsg1-0ubuntu1
 _ZN9tesseract4SEAM11BreakPiecesERKNS_13GenericVectorIPS0_EERKNS1_IPNS_5TBLOBEEEii@Base 9.55.0~dfsg1-0ubuntu1
 _ZN9tesseract4SEAM13FindBlobWidthERKNS_13GenericVectorIPNS_5TBLOBEEEib@Base 9.55.0~dfsg1-0ubuntu1
 _ZN9tesseract4SEAM19PrepareToInsertSeamERKNS_13GenericVectorIPS0_EERKNS1_IPNS_5TBLOBEEEib@Base 9.55.0~dfsg1-0ubuntu1
 _ZN9tesseract4TBOX11DeSerializeEbP8_IO_FILE@Base 9.55.0~dfsg1-0ubuntu1
 _ZN9tesseract4TBOX12rotate_largeERKNS_6FCOORDE@Base 9.55.0~dfsg1-0ubuntu1
 _ZN9tesseract4TBOXC1ENS_6ICOORDES1_@Base 9.55.0~dfsg1-0ubuntu1
 _ZN9tesseract4TBOXC2ENS_6ICOORDES1_@Base 9.55.0~dfsg1-0ubuntu1
 _ZN9tesseract4Trie10sort_edgesEPNS_13GenericVectorImEE@Base 9.55.0~dfsg1-0ubuntu1
 _ZN9tesseract4Trie12trie_to_dawgEv@Base 9.55.0~dfsg1-0ubuntu1
 _ZN9tesseract4Trie13add_word_listERKSt6vectorINS_6STRINGESaIS2_EERKNS_10UNICHARSETENS0_16RTLReversePolicyE@Base 9.55.0~dfsg1-0ubuntu1
 _ZN9tesseract4Trie13new_dawg_nodeEv@Base 9.55.0~dfsg1-0ubuntu1
 _ZN9tesseract4Trie14read_word_listEPKcPSt6vectorINS_6STRINGESaIS4_EE@Base 9.55.0~dfsg1-0ubuntu1
 _ZN9tesseract4Trie15add_word_endingEPmlbi@Base 9.55.0~dfsg1-0ubuntu1
 _ZN9tesseract4Trie16add_edge_linkageEllbibi@Base 9.55.0~dfsg1-0ubuntu1
 _ZN9tesseract4Trie16add_word_to_dawgERKNS_11WERD_CHOICEEPKNS_13GenericVectorIbEE@Base 9.55.0~dfsg1-0ubuntu1
 _ZN9tesseract4Trie17read_pattern_listEPKcRKNS_10UNICHARSETE@Base 9.55.0~dfsg1-0ubuntu1
 _ZN9tesseract4Trie17reduce_node_inputElPb@Base 9.55.0~dfsg1-0ubuntu1
 _ZN9tesseract4Trie19initialize_patternsEPNS_10UNICHARSETE@Base 9.55.0~dfsg1-0ubuntu1
 _ZN9tesseract4Trie19kPuncPatternUnicodeE@Base 9.55.0~dfsg1-0ubuntu1
 _ZN9tesseract4Trie19remove_edge_linkageEllibi@Base 9.55.0~dfsg1-0ubuntu1
 _ZN9tesseract4Trie20kAlphaPatternUnicodeE@Base 9.55.0~dfsg1-0ubuntu1
 _ZN9tesseract4Trie20kDigitPatternUnicodeE@Base 9.55.0~dfsg1-0ubuntu1
 _ZN9tesseract4Trie20kLowerPatternUnicodeE@Base 9.55.0~dfsg1-0ubuntu1
 _ZN9tesseract4Trie20kUpperPatternUnicodeE@Base 9.55.0~dfsg1-0ubuntu1
 _ZN9tesseract4Trie21reduce_lettered_edgesElilPNS_13GenericVectorImEEPb@Base 9.55.0~dfsg1-0ubuntu1
 _ZN9tesseract4Trie22read_and_add_word_listEPKcRKNS_10UNICHARSETENS0_16RTLReversePolicyE@Base 9.55.0~dfsg1-0ubuntu1
 _ZN9tesseract4Trie23get_reverse_policy_nameENS0_16RTLReversePolicyE@Base 9.55.0~dfsg1-0ubuntu1
 _ZN9tesseract4Trie23kAlphanumPatternUnicodeE@Base 9.55.0~dfsg1-0ubuntu1
 _ZN9tesseract4Trie25eliminate_redundant_edgesElRKmS2_@Base 9.55.0~dfsg1-0ubuntu1
 _ZN9tesseract4Trie26character_class_to_patternEc@Base 9.55.0~dfsg1-0ubuntu1
 _ZN9tesseract4Trie5clearEv@Base 9.55.0~dfsg1-0ubuntu1
 _ZN9tesseract4WERD10CleanNoiseEf@Base 9.55.0~dfsg1-0ubuntu1
 _ZN9tesseract4WERD12shallow_copyEv@Base 9.55.0~dfsg1-0ubuntu1
 _ZN9tesseract4WERD16GetNoiseOutlinesEPNS_13GenericVectorIPNS_9C_OUTLINEEEE@Base 9.55.0~dfsg1-0ubuntu1
 _ZN9tesseract4WERD19AddSelectedOutlinesERKNS_13GenericVectorIbEERKNS1_IPNS_6C_BLOBEEERKNS1_IPNS_9C_OUTLINEEEEPb@Base 9.55.0~dfsg1-0ubuntu1
 _ZN9tesseract4WERD23ConstructFromSingleBlobEbbPNS_6C_BLOBE@Base 9.55.0~dfsg1-0ubuntu1
 _ZN9tesseract4WERD25ConstructWerdWithNewBlobsEPNS_11C_BLOB_LISTES2_@Base 9.55.0~dfsg1-0ubuntu1
 _ZN9tesseract4WERD4moveENS_6ICOORDE@Base 9.55.0~dfsg1-0ubuntu1
 _ZN9tesseract4WERD5printEv@Base 9.55.0~dfsg1-0ubuntu1
 _ZN9tesseract4WERD7copy_onEPS0_@Base 9.55.0~dfsg1-0ubuntu1
 _ZN9tesseract4WERD7join_onEPS0_@Base 9.55.0~dfsg1-0ubuntu1
 _ZN9tesseract4WERDC1EPNS_11C_BLOB_LISTEPS0_@Base 9.55.0~dfsg1-0ubuntu1
 _ZN9tesseract4WERDC1EPNS_11C_BLOB_LISTEhPKc@Base 9.55.0~dfsg1-0ubuntu1
 _ZN9tesseract4WERDC2EPNS_11C_BLOB_LISTEPS0_@Base 9.55.0~dfsg1-0ubuntu1
 _ZN9tesseract4WERDC2EPNS_11C_BLOB_LISTEhPKc@Base 9.55.0~dfsg1-0ubuntu1
 _ZN9tesseract4WERDaSERKS0_@Base 9.55.0~dfsg1-0ubuntu1
 _ZN9tesseract4WalkEPNS_6KDTREEEPFvzEPvPNS_6KDNODEEi@Base 9.55.0~dfsg1-0ubuntu1
 _ZN9tesseract4fix2EPNS_6EDGEPTEi@Base 9.55.0~dfsg1-0ubuntu1
 _ZN9tesseract4lastEPNS_8list_recE@Base 9.55.0~dfsg1-0ubuntu1
 _ZN9tesseract4pushEPNS_8list_recEPv@Base 9.55.0~dfsg1-0ubuntu1
 _ZN9tesseract5BLOCK11check_pitchEv@Base 9.55.0~dfsg1-0ubuntu1
 _ZN9tesseract5BLOCK19compute_row_marginsEv@Base 9.55.0~dfsg1-0ubuntu1
 _ZN9tesseract5BLOCK25reflect_polygon_in_y_axisEv@Base 9.55.0~dfsg1-0ubuntu1
 _ZN9tesseract5BLOCK5printEP8_IO_FILEb@Base 9.55.0~dfsg1-0ubuntu1
 _ZN9tesseract5BLOCK6rotateERKNS_6FCOORDE@Base 9.55.0~dfsg1-0ubuntu1
 _ZN9tesseract5BLOCK8compressENS_6ICOORDE@Base 9.55.0~dfsg1-0ubuntu1
 _ZN9tesseract5BLOCK8compressEv@Base 9.55.0~dfsg1-0ubuntu1
 _ZN9tesseract5BLOCK9sort_rowsEv@Base 9.55.0~dfsg1-0ubuntu1
 _ZN9tesseract5BLOCKC1EPKcbssssss@Base 9.55.0~dfsg1-0ubuntu1
 _ZN9tesseract5BLOCKC2EPKcbssssss@Base 9.55.0~dfsg1-0ubuntu1
 _ZN9tesseract5BLOCKaSERKS0_@Base 9.55.0~dfsg1-0ubuntu1
 _ZN9tesseract5CLIST10add_sortedEPFiPKvS2_EbPv@Base 9.55.0~dfsg1-0ubuntu1
 _ZN9tesseract5CLIST12set_subtractEPFiPKvS2_EbPS0_S5_@Base 9.55.0~dfsg1-0ubuntu1
 _ZN9tesseract5CLIST13shallow_clearEv@Base 9.55.0~dfsg1-0ubuntu1
 _ZN9tesseract5CLIST17assign_to_sublistEPNS_14CLIST_ITERATORES2_@Base 9.55.0~dfsg1-0ubuntu1
 _ZN9tesseract5CLIST19internal_deep_clearEPFvPvE@Base 9.55.0~dfsg1-0ubuntu1
 _ZN9tesseract5CLIST4sortEPFiPKvS2_E@Base 9.55.0~dfsg1-0ubuntu1
 _ZN9tesseract5ELIST14internal_clearEPFvPNS_10ELIST_LINKEE@Base 9.55.0~dfsg1-0ubuntu1
 _ZN9tesseract5ELIST17assign_to_sublistEPNS_14ELIST_ITERATORES2_@Base 9.55.0~dfsg1-0ubuntu1
 _ZN9tesseract5ELIST19add_sorted_and_findEPFiPKvS2_EbPNS_10ELIST_LINKE@Base 9.55.0~dfsg1-0ubuntu1
 _ZN9tesseract5ELIST4sortEPFiPKvS2_E@Base 9.55.0~dfsg1-0ubuntu1
 _ZN9tesseract5FPRow12Pass1AnalyzeEv@Base 9.55.0~dfsg1-0ubuntu1
 _ZN9tesseract5FPRow12Pass2AnalyzeEv@Base 9.55.0~dfsg1-0ubuntu1
 _ZN9tesseract5FPRow13EstimatePitchEb@Base 9.55.0~dfsg1-0ubuntu1
 _ZN9tesseract5FPRow14MergeFragmentsEv@Base 9.55.0~dfsg1-0ubuntu1
 _ZN9tesseract5FPRow17DebugOutputResultEi@Base 9.55.0~dfsg1-0ubuntu1
 _ZN9tesseract5FPRow17OutputEstimationsEv@Base 9.55.0~dfsg1-0ubuntu1
 _ZN9tesseract5FPRow18FinalizeLargeCharsEv@Base 9.55.0~dfsg1-0ubuntu1
 _ZN9tesseract5FPRow4InitEPNS_6TO_ROWE@Base 9.55.0~dfsg1-0ubuntu1
 _ZN9tesseract5Input11DeSerializeEPNS_5TFileE@Base 9.55.0~dfsg1-0ubuntu1
 _ZN9tesseract5Input15PreparePixInputERKNS_11StaticShapeEPK3PixPNS_5TRandEPNS_9NetworkIOE@Base 9.55.0~dfsg1-0ubuntu1
 _ZN9tesseract5Input17CacheXScaleFactorEi@Base 9.55.0~dfsg1-0ubuntu1
 _ZN9tesseract5Input17PrepareLSTMInputsERKNS_9ImageDataEPKNS_7NetworkEiPNS_5TRandEPf@Base 9.55.0~dfsg1-0ubuntu1
 _ZN9tesseract5Input7ForwardEbRKNS_9NetworkIOEPKNS_15TransposedArrayEPNS_14NetworkScratchEPS1_@Base 9.55.0~dfsg1-0ubuntu1
 _ZN9tesseract5Input8BackwardEbRKNS_9NetworkIOEPNS_14NetworkScratchEPS1_@Base 9.55.0~dfsg1-0ubuntu1
 _ZN9tesseract5InputC1ERKNSt7__cxx1112basic_stringIcSt11char_traitsIcESaIcEEERKNS_11StaticShapeE@Base 9.55.0~dfsg1-0ubuntu1
 _ZN9tesseract5InputC1ERKNSt7__cxx1112basic_stringIcSt11char_traitsIcESaIcEEEii@Base 9.55.0~dfsg1-0ubuntu1
 _ZN9tesseract5InputC2ERKNSt7__cxx1112basic_stringIcSt11char_traitsIcESaIcEEERKNS_11StaticShapeE@Base 9.55.0~dfsg1-0ubuntu1
 _ZN9tesseract5InputC2ERKNSt7__cxx1112basic_stringIcSt11char_traitsIcESaIcEEEii@Base 9.55.0~dfsg1-0ubuntu1
 _ZN9tesseract5PDBLK11render_maskERKNS_6FCOORDEPNS_4TBOXE@Base 9.55.0~dfsg1-0ubuntu1
 _ZN9tesseract5PDBLK4moveENS_6ICOORDE@Base 9.55.0~dfsg1-0ubuntu1
 _ZN9tesseract5PDBLK8containsENS_6ICOORDE@Base 9.55.0~dfsg1-0ubuntu1
 _ZN9tesseract5PDBLK9set_sidesEPNS_14ICOORDELT_LISTES2_@Base 9.55.0~dfsg1-0ubuntu1
 _ZN9tesseract5PDBLKC1Essss@Base 9.55.0~dfsg1-0ubuntu1
 _ZN9tesseract5PDBLKC2Essss@Base 9.55.0~dfsg1-0ubuntu1
 _ZN9tesseract5PDBLKaSERKS0_@Base 9.55.0~dfsg1-0ubuntu1
 _ZN9tesseract5STATS3addEii@Base 9.55.0~dfsg1-0ubuntu1
 _ZN9tesseract5STATS5clearEv@Base 9.55.0~dfsg1-0ubuntu1
 _ZN9tesseract5STATS6smoothEi@Base 9.55.0~dfsg1-0ubuntu1
 _ZN9tesseract5STATS7clusterEfffiPS0_@Base 9.55.0~dfsg1-0ubuntu1
 _ZN9tesseract5STATS9set_rangeEii@Base 9.55.0~dfsg1-0ubuntu1
 _ZN9tesseract5STATSC1Eii@Base 9.55.0~dfsg1-0ubuntu1
 _ZN9tesseract5STATSC2Eii@Base 9.55.0~dfsg1-0ubuntu1
 _ZN9tesseract5STATSD1Ev@Base 9.55.0~dfsg1-0ubuntu1
 _ZN9tesseract5STATSD2Ev@Base 9.55.0~dfsg1-0ubuntu1
 _ZN9tesseract5Shape10AddToShapeEii@Base 9.55.0~dfsg1-0ubuntu1
 _ZN9tesseract5Shape11DeSerializeEPNS_5TFileE@Base 9.55.0~dfsg1-0ubuntu1
 _ZN9tesseract5Shape12SortUnicharsEv@Base 9.55.0~dfsg1-0ubuntu1
 _ZN9tesseract5Shape15IsEqualUnicharsEPS0_@Base 9.55.0~dfsg1-0ubuntu1
 _ZN9tesseract5Shape8AddShapeERKS0_@Base 9.55.0~dfsg1-0ubuntu1
 _ZN9tesseract5TBLOB11ShallowCopyERKS0_@Base 9.55.0~dfsg1-0ubuntu1
 _ZN9tesseract5TBLOB13PolygonalCopyEbPNS_6C_BLOBE@Base 9.55.0~dfsg1-0ubuntu1
 _ZN9tesseract5TBLOB16CorrectBlobOrderEPS0_@Base 9.55.0~dfsg1-0ubuntu1
 _ZN9tesseract5TBLOB20ComputeBoundingBoxesEv@Base 9.55.0~dfsg1-0ubuntu1
 _ZN9tesseract5TBLOB26EliminateDuplicateOutlinesEv@Base 9.55.0~dfsg1-0ubuntu1
 _ZN9tesseract5TBLOB4MoveENS_6ICOORDE@Base 9.55.0~dfsg1-0ubuntu1
 _ZN9tesseract5TBLOB5ClearEv@Base 9.55.0~dfsg1-0ubuntu1
 _ZN9tesseract5TBLOB5ScaleEf@Base 9.55.0~dfsg1-0ubuntu1
 _ZN9tesseract5TBLOB6RotateENS_6FCOORDE@Base 9.55.0~dfsg1-0ubuntu1
 _ZN9tesseract5TBLOB8CopyFromERKS0_@Base 9.55.0~dfsg1-0ubuntu1
 _ZN9tesseract5TBLOB9NormalizeEPKNS_5BLOCKEPKNS_6FCOORDEPKNS_6DENORMEffffffbP3Pix@Base 9.55.0~dfsg1-0ubuntu1
 _ZN9tesseract5TFile10CloseWriteEPKcPFbRKSt6vectorIcSaIcEES2_E@Base 9.55.0~dfsg1-0ubuntu1
 _ZN9tesseract5TFile11DeSerializeERNSt7__cxx1112basic_stringIcSt11char_traitsIcESaIcEEE@Base 9.55.0~dfsg1-0ubuntu1
 _ZN9tesseract5TFile11DeSerializeERSt6vectorIcSaIcEE@Base 9.55.0~dfsg1-0ubuntu1
 _ZN9tesseract5TFile11DeSerializeIdEEbRSt6vectorIT_SaIS3_EE@Base 9.55.0~dfsg1-0ubuntu1
 _ZN9tesseract5TFile11DeSerializeIiEEbRSt6vectorIT_SaIS3_EE@Base 9.55.0~dfsg1-0ubuntu1
 _ZN9tesseract5TFile11FReadEndianEPvmi@Base 9.55.0~dfsg1-0ubuntu1
 _ZN9tesseract5TFile4OpenEP8_IO_FILEl@Base 9.55.0~dfsg1-0ubuntu1
 _ZN9tesseract5TFile4OpenEPKcPFbS2_PSt6vectorIcSaIcEEE@Base 9.55.0~dfsg1-0ubuntu1
 _ZN9tesseract5TFile4OpenEPKci@Base 9.55.0~dfsg1-0ubuntu1
 _ZN9tesseract5TFile4SkipEm@Base 9.55.0~dfsg1-0ubuntu1
 _ZN9tesseract5TFile5FGetsEPci@Base 9.55.0~dfsg1-0ubuntu1
 _ZN9tesseract5TFile5FReadEPvmi@Base 9.55.0~dfsg1-0ubuntu1
 _ZN9tesseract5TFile6FWriteEPKvmi@Base 9.55.0~dfsg1-0ubuntu1
 _ZN9tesseract5TFile6RewindEv@Base 9.55.0~dfsg1-0ubuntu1
 _ZN9tesseract5TFile9OpenWriteEPSt6vectorIcSaIcEE@Base 9.55.0~dfsg1-0ubuntu1
 _ZN9tesseract5TFile9SerializeERKNSt7__cxx1112basic_stringIcSt11char_traitsIcESaIcEEE@Base 9.55.0~dfsg1-0ubuntu1
 _ZN9tesseract5TFile9SerializeERKSt6vectorIcSaIcEE@Base 9.55.0~dfsg1-0ubuntu1
 _ZN9tesseract5TFile9SerializeIdEEbRKSt6vectorIT_SaIS3_EE@Base 9.55.0~dfsg1-0ubuntu1
 _ZN9tesseract5TFile9SerializeIiEEbRKSt6vectorIT_SaIS3_EE@Base 9.55.0~dfsg1-0ubuntu1
 _ZN9tesseract5TFileC1Ev@Base 9.55.0~dfsg1-0ubuntu1
 _ZN9tesseract5TFileC2Ev@Base 9.55.0~dfsg1-0ubuntu1
 _ZN9tesseract5TFileD1Ev@Base 9.55.0~dfsg1-0ubuntu1
 _ZN9tesseract5TFileD2Ev@Base 9.55.0~dfsg1-0ubuntu1
 _ZN9tesseract5TWERD10MergeBlobsEii@Base 9.55.0~dfsg1-0ubuntu1
 _ZN9tesseract5TWERD11BLNormalizeEPKNS_5BLOCKEPKNS_3ROWEP3PixbffbNS_13OcrEngineModeEPKNS_4TBOXEPNS_6DENORME@Base 9.55.0~dfsg1-0ubuntu1
 _ZN9tesseract5TWERD13PolygonalCopyEbPNS_4WERDE@Base 9.55.0~dfsg1-0ubuntu1
 _ZN9tesseract5TWERD20ComputeBoundingBoxesEv@Base 9.55.0~dfsg1-0ubuntu1
 _ZN9tesseract5TWERD5ClearEv@Base 9.55.0~dfsg1-0ubuntu1
 _ZN9tesseract5TWERD8CopyFromERKS0_@Base 9.55.0~dfsg1-0ubuntu1
 _ZN9tesseract5countEPNS_8list_recE@Base 9.55.0~dfsg1-0ubuntu1
 _ZN9tesseract5poly2EPNS_6EDGEPTEi@Base 9.55.0~dfsg1-0ubuntu1
 _ZN9tesseract6CCUtil10main_setupEPKcS2_@Base 9.55.0~dfsg1-0ubuntu1
 _ZN9tesseract6CCUtilC1Ev@Base 9.55.0~dfsg1-0ubuntu1
 _ZN9tesseract6CCUtilC2Ev@Base 9.55.0~dfsg1-0ubuntu1
 _ZN9tesseract6CCUtilD0Ev@Base 9.55.0~dfsg1-0ubuntu1
 _ZN9tesseract6CCUtilD1Ev@Base 9.55.0~dfsg1-0ubuntu1
 _ZN9tesseract6CCUtilD2Ev@Base 9.55.0~dfsg1-0ubuntu1
 _ZN9tesseract6C_BLOB10outer_areaEv@Base 9.55.0~dfsg1-0ubuntu1
 _ZN9tesseract6C_BLOB13SortByXMiddleEPKvS2_@Base 9.55.0~dfsg1-0ubuntu1
 _ZN9tesseract6C_BLOB14render_outlineEv@Base 9.55.0~dfsg1-0ubuntu1
 _ZN9tesseract6C_BLOB17count_transitionsEi@Base 9.55.0~dfsg1-0ubuntu1
 _ZN9tesseract6C_BLOB18ComputeEdgeOffsetsEiP3Pix@Base 9.55.0~dfsg1-0ubuntu1
 _ZN9tesseract6C_BLOB24EstimateBaselinePositionEv@Base 9.55.0~dfsg1-0ubuntu1
 _ZN9tesseract6C_BLOB26ConstructBlobsFromOutlinesEbPNS_14C_OUTLINE_LISTEPNS_9C_BLOB_ITES4_@Base 9.55.0~dfsg1-0ubuntu1
 _ZN9tesseract6C_BLOB28CheckInverseFlagAndDirectionEv@Base 9.55.0~dfsg1-0ubuntu1
 _ZN9tesseract6C_BLOB4areaEv@Base 9.55.0~dfsg1-0ubuntu1
 _ZN9tesseract6C_BLOB4moveENS_6ICOORDE@Base 9.55.0~dfsg1-0ubuntu1
 _ZN9tesseract6C_BLOB6renderEv@Base 9.55.0~dfsg1-0ubuntu1
 _ZN9tesseract6C_BLOB6rotateERKNS_6FCOORDE@Base 9.55.0~dfsg1-0ubuntu1
 _ZN9tesseract6C_BLOB8FakeBlobERKNS_4TBOXE@Base 9.55.0~dfsg1-0ubuntu1
 _ZN9tesseract6C_BLOB9deep_copyEPKS0_@Base 9.55.0~dfsg1-0ubuntu1
 _ZN9tesseract6C_BLOB9perimeterEv@Base 9.55.0~dfsg1-0ubuntu1
 _ZN9tesseract6C_BLOBC1EPNS_14C_OUTLINE_LISTE@Base 9.55.0~dfsg1-0ubuntu1
 _ZN9tesseract6C_BLOBC1EPNS_9C_OUTLINEE@Base 9.55.0~dfsg1-0ubuntu1
 _ZN9tesseract6C_BLOBC2EPNS_14C_OUTLINE_LISTE@Base 9.55.0~dfsg1-0ubuntu1
 _ZN9tesseract6C_BLOBC2EPNS_9C_OUTLINEE@Base 9.55.0~dfsg1-0ubuntu1
 _ZN9tesseract6DENORM14SetupNonLinearEPKS0_RKNS_4TBOXEffffRKNS_13GenericVectorINS6_IiEEEESA_@Base 9.55.0~dfsg1-0ubuntu1
 _ZN9tesseract6DENORM18SetupNormalizationEPKNS_5BLOCKEPKNS_6FCOORDEPKS0_ffffff@Base 9.55.0~dfsg1-0ubuntu1
 _ZN9tesseract6DENORM4InitEv@Base 9.55.0~dfsg1-0ubuntu1
 _ZN9tesseract6DENORM5ClearEv@Base 9.55.0~dfsg1-0ubuntu1
 _ZN9tesseract6DENORMC1ERKS0_@Base 9.55.0~dfsg1-0ubuntu1
 _ZN9tesseract6DENORMC1Ev@Base 9.55.0~dfsg1-0ubuntu1
 _ZN9tesseract6DENORMC2ERKS0_@Base 9.55.0~dfsg1-0ubuntu1
 _ZN9tesseract6DENORMC2Ev@Base 9.55.0~dfsg1-0ubuntu1
 _ZN9tesseract6DENORMD1Ev@Base 9.55.0~dfsg1-0ubuntu1
 _ZN9tesseract6DENORMD2Ev@Base 9.55.0~dfsg1-0ubuntu1
 _ZN9tesseract6DENORMaSERKS0_@Base 9.55.0~dfsg1-0ubuntu1
 _ZN9tesseract6DIR128C1ENS_6FCOORDE@Base 9.55.0~dfsg1-0ubuntu1
 _ZN9tesseract6DIR128C2ENS_6FCOORDE@Base 9.55.0~dfsg1-0ubuntu1
 _ZN9tesseract6DoFillEPNS_9FILL_SPECEPNS_19CLASS_PRUNER_STRUCTEjjj@Base 9.55.0~dfsg1-0ubuntu1
 _ZN9tesseract6ELIST210add_sortedEPFiPKvS2_EPNS_11ELIST2_LINKE@Base 9.55.0~dfsg1-0ubuntu1
 _ZN9tesseract6ELIST214internal_clearEPFvPNS_11ELIST2_LINKEE@Base 9.55.0~dfsg1-0ubuntu1
 _ZN9tesseract6ELIST217assign_to_sublistEPNS_15ELIST2_ITERATORES2_@Base 9.55.0~dfsg1-0ubuntu1
 _ZN9tesseract6ELIST24sortEPFiPKvS2_E@Base 9.55.0~dfsg1-0ubuntu1
 _ZN9tesseract6FCOORD14from_directionEh@Base 9.55.0~dfsg1-0ubuntu1
 _ZN9tesseract6FCOORD20angle_from_directionEh@Base 9.55.0~dfsg1-0ubuntu1
 _ZN9tesseract6FCOORD20binary_angle_plus_piEd@Base 9.55.0~dfsg1-0ubuntu1
 _ZN9tesseract6FCOORD9normaliseEv@Base 9.55.0~dfsg1-0ubuntu1
 _ZN9tesseract6GAPMAP9table_gapEss@Base 9.55.0~dfsg1-0ubuntu1
 _ZN9tesseract6GAPMAPC1EPNS_8TO_BLOCKE@Base 9.55.0~dfsg1-0ubuntu1
 _ZN9tesseract6GAPMAPC2EPNS_8TO_BLOCKE@Base 9.55.0~dfsg1-0ubuntu1
 _ZN9tesseract6ICOORD11DeSerializeEbP8_IO_FILE@Base 9.55.0~dfsg1-0ubuntu1
 _ZN9tesseract6ICOORD15set_with_shrinkEii@Base 9.55.0~dfsg1-0ubuntu1
 _ZN9tesseract6KDWalkEPNS_6KDTREEEPFvzEPv@Base 9.55.0~dfsg1-0ubuntu1
 _ZN9tesseract6MATRIX16IncreaseBandSizeEi@Base 9.55.0~dfsg1-0ubuntu1
 _ZN9tesseract6MATRIX20ConsumeAndMakeBiggerEi@Base 9.55.0~dfsg1-0ubuntu1
 _ZN9tesseract6MATRIXD0Ev@Base 9.55.0~dfsg1-0ubuntu1
 _ZN9tesseract6MATRIXD1Ev@Base 9.55.0~dfsg1-0ubuntu1
 _ZN9tesseract6MATRIXD2Ev@Base 9.55.0~dfsg1-0ubuntu1
 _ZN9tesseract6REJMAP10full_printEP8_IO_FILE@Base 9.55.0~dfsg1-0ubuntu1
 _ZN9tesseract6REJMAP10initialiseEs@Base 9.55.0~dfsg1-0ubuntu1
 _ZN9tesseract6REJMAP10remove_posEs@Base 9.55.0~dfsg1-0ubuntu1
 _ZN9tesseract6REJMAP12accept_countEv@Base 9.55.0~dfsg1-0ubuntu1
 _ZN9tesseract6REJMAP16rej_word_doc_rejEv@Base 9.55.0~dfsg1-0ubuntu1
 _ZN9tesseract6REJMAP16rej_word_row_rejEv@Base 9.55.0~dfsg1-0ubuntu1
 _ZN9tesseract6REJMAP18rej_word_block_rejEv@Base 9.55.0~dfsg1-0ubuntu1
 _ZN9tesseract6REJMAP18rej_word_small_xhtEv@Base 9.55.0~dfsg1-0ubuntu1
 _ZN9tesseract6REJMAP18rej_word_xht_fixupEv@Base 9.55.0~dfsg1-0ubuntu1
 _ZN9tesseract6REJMAP19recoverable_rejectsEv@Base 9.55.0~dfsg1-0ubuntu1
 _ZN9tesseract6REJMAP19rej_word_mostly_rejEv@Base 9.55.0~dfsg1-0ubuntu1
 _ZN9tesseract6REJMAP20rej_word_bad_qualityEv@Base 9.55.0~dfsg1-0ubuntu1
 _ZN9tesseract6REJMAP21rej_word_bad_permuterEv@Base 9.55.0~dfsg1-0ubuntu1
 _ZN9tesseract6REJMAP21rej_word_no_alphanumsEv@Base 9.55.0~dfsg1-0ubuntu1
 _ZN9tesseract6REJMAP21rej_word_tess_failureEv@Base 9.55.0~dfsg1-0ubuntu1
 _ZN9tesseract6REJMAP24rej_word_contains_blanksEv@Base 9.55.0~dfsg1-0ubuntu1
 _ZN9tesseract6REJMAP26rej_word_not_tess_acceptedEv@Base 9.55.0~dfsg1-0ubuntu1
 _ZN9tesseract6REJMAP27quality_recoverable_rejectsEv@Base 9.55.0~dfsg1-0ubuntu1
 _ZN9tesseract6REJMAP5printEP8_IO_FILE@Base 9.55.0~dfsg1-0ubuntu1
 _ZN9tesseract6REJMAPaSERKS0_@Base 9.55.0~dfsg1-0ubuntu1
 _ZN9tesseract6STRING11DeSerializeEPNS_5TFileE@Base 9.55.0~dfsg1-0ubuntu1
 _ZN9tesseract6STRING11DeSerializeEbP8_IO_FILE@Base 9.55.0~dfsg1-0ubuntu1
 _ZN9tesseract6STRING11add_str_intEPKci@Base 9.55.0~dfsg1-0ubuntu1
 _ZN9tesseract6STRING11truncate_atEi@Base 9.55.0~dfsg1-0ubuntu1
 _ZN9tesseract6STRING14add_str_doubleEPKcd@Base 9.55.0~dfsg1-0ubuntu1
 _ZN9tesseract6STRING15SkipDeSerializeEPNS_5TFileE@Base 9.55.0~dfsg1-0ubuntu1
 _ZN9tesseract6STRING5splitEcPSt6vectorIS0_SaIS0_EE@Base 9.55.0~dfsg1-0ubuntu1
 _ZN9tesseract6Series11InitWeightsEfPNS_5TRandE@Base 9.55.0~dfsg1-0ubuntu1
 _ZN9tesseract6Series12AppendSeriesEPNS_7NetworkE@Base 9.55.0~dfsg1-0ubuntu1
 _ZN9tesseract6Series12RemapOutputsEiRKSt6vectorIiSaIiEE@Base 9.55.0~dfsg1-0ubuntu1
 _ZN9tesseract6Series17CacheXScaleFactorEi@Base 9.55.0~dfsg1-0ubuntu1
 _ZN9tesseract6Series18SetupNeedsBackpropEb@Base 9.55.0~dfsg1-0ubuntu1
 _ZN9tesseract6Series7ForwardEbRKNS_9NetworkIOEPKNS_15TransposedArrayEPNS_14NetworkScratchEPS1_@Base 9.55.0~dfsg1-0ubuntu1
 _ZN9tesseract6Series7SplitAtEiPPS0_S2_@Base 9.55.0~dfsg1-0ubuntu1
 _ZN9tesseract6Series8BackwardEbRKNS_9NetworkIOEPNS_14NetworkScratchEPS1_@Base 9.55.0~dfsg1-0ubuntu1
 _ZN9tesseract6SeriesC1EPKc@Base 9.55.0~dfsg1-0ubuntu1
 _ZN9tesseract6SeriesC2EPKc@Base 9.55.0~dfsg1-0ubuntu1
 _ZN9tesseract6TO_ROW11insert_blobEPNS_8BLOBNBOXE@Base 9.55.0~dfsg1-0ubuntu1
 _ZN9tesseract6TO_ROW27compute_vertical_projectionEv@Base 9.55.0~dfsg1-0ubuntu1
 _ZN9tesseract6TO_ROW5clearEv@Base 9.55.0~dfsg1-0ubuntu1
 _ZN9tesseract6TO_ROW8add_blobEPNS_8BLOBNBOXEfff@Base 9.55.0~dfsg1-0ubuntu1
 _ZN9tesseract6TO_ROWC1EPNS_8BLOBNBOXEfff@Base 9.55.0~dfsg1-0ubuntu1
 _ZN9tesseract6TO_ROWC2EPNS_8BLOBNBOXEfff@Base 9.55.0~dfsg1-0ubuntu1
 _ZN9tesseract6TPOINT9IsCrossedERKS0_S2_S2_S2_@Base 9.55.0~dfsg1-0ubuntu1
 _ZN9tesseract6searchEPNS_8list_recEPvPFiS2_S2_E@Base 9.55.0~dfsg1-0ubuntu1
 _ZN9tesseract6to_winE@Base 9.55.0~dfsg1-0ubuntu1
 _ZN9tesseract7BoxWord10MergeBoxesEii@Base 9.55.0~dfsg1-0ubuntu1
 _ZN9tesseract7BoxWord14DeleteAllBoxesEv@Base 9.55.0~dfsg1-0ubuntu1
 _ZN9tesseract7BoxWord18ClipToOriginalWordEPKNS_5BLOCKEPNS_4WERDE@Base 9.55.0~dfsg1-0ubuntu1
 _ZN9tesseract7BoxWord18ComputeBoundingBoxEv@Base 9.55.0~dfsg1-0ubuntu1
 _ZN9tesseract7BoxWord18CopyFromNormalizedEPNS_5TWERDE@Base 9.55.0~dfsg1-0ubuntu1
 _ZN9tesseract7BoxWord8CopyFromERKS0_@Base 9.55.0~dfsg1-0ubuntu1
 _ZN9tesseract7BoxWord9ChangeBoxEiRKNS_4TBOXE@Base 9.55.0~dfsg1-0ubuntu1
 _ZN9tesseract7BoxWord9DeleteBoxEi@Base 9.55.0~dfsg1-0ubuntu1
 _ZN9tesseract7BoxWord9InsertBoxEiRKNS_4TBOXE@Base 9.55.0~dfsg1-0ubuntu1
 _ZN9tesseract7BoxWordC1ERKS0_@Base 9.55.0~dfsg1-0ubuntu1
 _ZN9tesseract7BoxWordC1Ev@Base 9.55.0~dfsg1-0ubuntu1
 _ZN9tesseract7BoxWordC2ERKS0_@Base 9.55.0~dfsg1-0ubuntu1
 _ZN9tesseract7BoxWordC2Ev@Base 9.55.0~dfsg1-0ubuntu1
 _ZN9tesseract7BoxWordaSERKS0_@Base 9.55.0~dfsg1-0ubuntu1
 _ZN9tesseract7DPPoint14UpdateIfBetterEliPKS0_iil@Base 9.55.0~dfsg1-0ubuntu1
 _ZN9tesseract7DPPoint16CostWithVarianceEPKS0_@Base 9.55.0~dfsg1-0ubuntu1
 _ZN9tesseract7DPPoint5SolveEiibMS0_FlPKS0_EiPS0_@Base 9.55.0~dfsg1-0ubuntu1
 _ZN9tesseract7FPCUTPT12assign_cheapEPS0_ssbbsPNS_5STATSEfsss@Base 9.55.0~dfsg1-0ubuntu1
 _ZN9tesseract7FPCUTPT5setupEPS0_sPNS_5STATSEssss@Base 9.55.0~dfsg1-0ubuntu1
 _ZN9tesseract7FPCUTPT6assignEPS0_ssbbsPNS_5STATSEfsss@Base 9.55.0~dfsg1-0ubuntu1
 _ZN9tesseract7FPSEGPTC1EPNS_7FPCUTPTE@Base 9.55.0~dfsg1-0ubuntu1
 _ZN9tesseract7FPSEGPTC1Es@Base 9.55.0~dfsg1-0ubuntu1
 _ZN9tesseract7FPSEGPTC1EsbssssPNS_12FPSEGPT_LISTE@Base 9.55.0~dfsg1-0ubuntu1
 _ZN9tesseract7FPSEGPTC2EPNS_7FPCUTPTE@Base 9.55.0~dfsg1-0ubuntu1
 _ZN9tesseract7FPSEGPTC2Es@Base 9.55.0~dfsg1-0ubuntu1
 _ZN9tesseract7FPSEGPTC2EsbssssPNS_12FPSEGPT_LISTE@Base 9.55.0~dfsg1-0ubuntu1
 _ZN9tesseract7FillABCEPNS_12PROTO_STRUCTE@Base 9.55.0~dfsg1-0ubuntu1
 _ZN9tesseract7IntGrid4InitEiRKNS_6ICOORDES3_@Base 9.55.0~dfsg1-0ubuntu1
 _ZN9tesseract7IntGrid5ClearEv@Base 9.55.0~dfsg1-0ubuntu1
 _ZN9tesseract7IntGrid6RotateERKNS_6FCOORDE@Base 9.55.0~dfsg1-0ubuntu1
 _ZN9tesseract7IntGridC1EiRKNS_6ICOORDES3_@Base 9.55.0~dfsg1-0ubuntu1
 _ZN9tesseract7IntGridC1Ev@Base 9.55.0~dfsg1-0ubuntu1
 _ZN9tesseract7IntGridC2EiRKNS_6ICOORDES3_@Base 9.55.0~dfsg1-0ubuntu1
 _ZN9tesseract7IntGridC2Ev@Base 9.55.0~dfsg1-0ubuntu1
 _ZN9tesseract7IntGridD0Ev@Base 9.55.0~dfsg1-0ubuntu1
 _ZN9tesseract7IntGridD1Ev@Base 9.55.0~dfsg1-0ubuntu1
 _ZN9tesseract7IntGridD2Ev@Base 9.55.0~dfsg1-0ubuntu1
 _ZN9tesseract7KDStoreEPNS_6KDTREEEPfPv@Base 9.55.0~dfsg1-0ubuntu1
 _ZN9tesseract7Maxpool11DeSerializeEPNS_5TFileE@Base 9.55.0~dfsg1-0ubuntu1
 _ZN9tesseract7Maxpool7ForwardEbRKNS_9NetworkIOEPKNS_15TransposedArrayEPNS_14NetworkScratchEPS1_@Base 9.55.0~dfsg1-0ubuntu1
 _ZN9tesseract7Maxpool8BackwardEbRKNS_9NetworkIOEPNS_14NetworkScratchEPS1_@Base 9.55.0~dfsg1-0ubuntu1
 _ZN9tesseract7MaxpoolC1EPKciii@Base 9.55.0~dfsg1-0ubuntu1
 _ZN9tesseract7MaxpoolC2EPKciii@Base 9.55.0~dfsg1-0ubuntu1
 _ZN9tesseract7Network11InitWeightsEfPNS_5TRandE@Base 9.55.0~dfsg1-0ubuntu1
 _ZN9tesseract7Network13SetRandomizerEPNS_5TRandE@Base 9.55.0~dfsg1-0ubuntu1
 _ZN9tesseract7Network14CreateFromFileEPNS_5TFileE@Base 9.55.0~dfsg1-0ubuntu1
 _ZN9tesseract7Network15SetNetworkFlagsEj@Base 9.55.0~dfsg1-0ubuntu1
 _ZN9tesseract7Network17SetEnableTrainingENS_13TrainingStateE@Base 9.55.0~dfsg1-0ubuntu1
 _ZN9tesseract7Network18SetupNeedsBackpropEb@Base 9.55.0~dfsg1-0ubuntu1
 _ZN9tesseract7Network6RandomEd@Base 9.55.0~dfsg1-0ubuntu1
 _ZN9tesseract7NetworkC1ENS_11NetworkTypeERKNSt7__cxx1112basic_stringIcSt11char_traitsIcESaIcEEEii@Base 9.55.0~dfsg1-0ubuntu1
 _ZN9tesseract7NetworkC1Ev@Base 9.55.0~dfsg1-0ubuntu1
 _ZN9tesseract7NetworkC2ENS_11NetworkTypeERKNSt7__cxx1112basic_stringIcSt11char_traitsIcESaIcEEEii@Base 9.55.0~dfsg1-0ubuntu1
 _ZN9tesseract7NetworkC2Ev@Base 9.55.0~dfsg1-0ubuntu1
 _ZN9tesseract7QSPLINE11extrapolateEdii@Base 9.55.0~dfsg1-0ubuntu1
 _ZN9tesseract7QSPLINE4moveENS_6ICOORDE@Base 9.55.0~dfsg1-0ubuntu1
 _ZN9tesseract7QSPLINE4stepEdd@Base 9.55.0~dfsg1-0ubuntu1
 _ZN9tesseract7QSPLINE7overlapEPS0_d@Base 9.55.0~dfsg1-0ubuntu1
 _ZN9tesseract7QSPLINEC1EPiiS1_S1_ii@Base 9.55.0~dfsg1-0ubuntu1
 _ZN9tesseract7QSPLINEC1ERKS0_@Base 9.55.0~dfsg1-0ubuntu1
 _ZN9tesseract7QSPLINEC1EiPiPd@Base 9.55.0~dfsg1-0ubuntu1
 _ZN9tesseract7QSPLINEC2EPiiS1_S1_ii@Base 9.55.0~dfsg1-0ubuntu1
 _ZN9tesseract7QSPLINEC2ERKS0_@Base 9.55.0~dfsg1-0ubuntu1
 _ZN9tesseract7QSPLINEC2EiPiPd@Base 9.55.0~dfsg1-0ubuntu1
 _ZN9tesseract7QSPLINED1Ev@Base 9.55.0~dfsg1-0ubuntu1
 _ZN9tesseract7QSPLINED2Ev@Base 9.55.0~dfsg1-0ubuntu1
 _ZN9tesseract7QSPLINEaSERKS0_@Base 9.55.0~dfsg1-0ubuntu1
 _ZN9tesseract7ROW_RESC1EbPNS_3ROWE@Base 9.55.0~dfsg1-0ubuntu1
 _ZN9tesseract7ROW_RESC2EbPNS_3ROWE@Base 9.55.0~dfsg1-0ubuntu1
 _ZN9tesseract7SVEvent4copyEv@Base 9.55.0~dfsg1-0ubuntu1
 _ZN9tesseract7TabFind10InsertBlobEbbPNS_8BLOBNBOXEPNS_6BBGridIS1_NS_14BLOBNBOX_CLISTENS_13BLOBNBOX_C_ITEEE@Base 9.55.0~dfsg1-0ubuntu1
 _ZN9tesseract7TabFind11CleanupTabsEv@Base 9.55.0~dfsg1-0ubuntu1
 _ZN9tesseract7TabFind11CommonWidthEi@Base 9.55.0~dfsg1-0ubuntu1
 _ZN9tesseract7TabFind11GutterWidthEiiRKNS_9TabVectorEbiPi@Base 9.55.0~dfsg1-0ubuntu1
 _ZN9tesseract7TabFind11SortVectorsEv@Base 9.55.0~dfsg1-0ubuntu1
 _ZN9tesseract7TabFind12AdjacentBlobEPKNS_8BLOBNBOXEbbdiii@Base 9.55.0~dfsg1-0ubuntu1
 _ZN9tesseract7TabFind12EvaluateTabsEv@Base 9.55.0~dfsg1-0ubuntu1
 _ZN9tesseract7TabFind12FindTabBoxesEid@Base 9.55.0~dfsg1-0ubuntu1
 _ZN9tesseract7TabFind13FindTabVectorEiiNS_12TabAlignmentEPNS_8BLOBNBOXEPiS4_@Base 9.55.0~dfsg1-0ubuntu1
 _ZN9tesseract7TabFind13LeftTabForBoxERKNS_4TBOXEbb@Base 9.55.0~dfsg1-0ubuntu1
 _ZN9tesseract7TabFind14DifferentSizesEii@Base 9.55.0~dfsg1-0ubuntu1
 _ZN9tesseract7TabFind14FindTabVectorsEPNS_14TabVector_LISTEPNS_13BLOBNBOX_LISTEPNS_8TO_BLOCKEidPNS_16ColPartitionGridEPNS_6FCOORDESA_@Base 9.55.0~dfsg1-0ubuntu1
 _ZN9tesseract7TabFind14FindTabVectorsEiNS_12TabAlignmentEiPNS_14TabVector_LISTEPiS4_@Base 9.55.0~dfsg1-0ubuntu1
 _ZN9tesseract7TabFind14LeftEdgeForBoxERKNS_4TBOXEbb@Base 9.55.0~dfsg1-0ubuntu1
 _ZN9tesseract7TabFind14ReflectInYAxisEv@Base 9.55.0~dfsg1-0ubuntu1
 _ZN9tesseract7TabFind14RightTabForBoxERKNS_4TBOXEbb@Base 9.55.0~dfsg1-0ubuntu1
 _ZN9tesseract7TabFind14RotateBlobListERKNS_6FCOORDEPNS_13BLOBNBOX_LISTE@Base 9.55.0~dfsg1-0ubuntu1
 _ZN9tesseract7TabFind14SetupTabSearchEiiPiS1_@Base 9.55.0~dfsg1-0ubuntu1
 _ZN9tesseract7TabFind14TestBoxForTabsEPNS_8BLOBNBOXEid@Base 9.55.0~dfsg1-0ubuntu1
 _ZN9tesseract7TabFind15RightEdgeForBoxERKNS_4TBOXEbb@Base 9.55.0~dfsg1-0ubuntu1
 _ZN9tesseract7TabFind16AddPartnerVectorEPNS_8BLOBNBOXES2_PNS_9TabVectorES4_@Base 9.55.0~dfsg1-0ubuntu1
 _ZN9tesseract7TabFind16MakeColumnWidthsEiPNS_5STATSE@Base 9.55.0~dfsg1-0ubuntu1
 _ZN9tesseract7TabFind16MarkVerticalTextEv@Base 9.55.0~dfsg1-0ubuntu1
 _ZN9tesseract7TabFind16SetBlobRuleEdgesEPNS_13BLOBNBOX_LISTE@Base 9.55.0~dfsg1-0ubuntu1
 _ZN9tesseract7TabFind17ConfirmRaggedLeftEPNS_8BLOBNBOXEi@Base 9.55.0~dfsg1-0ubuntu1
 _ZN9tesseract7TabFind17FindAllTabVectorsEi@Base 9.55.0~dfsg1-0ubuntu1
 _ZN9tesseract7TabFind17InsertBlobsToGridEbbPNS_13BLOBNBOX_LISTEPNS_6BBGridINS_8BLOBNBOXENS_14BLOBNBOX_CLISTENS_13BLOBNBOX_C_ITEEE@Base 9.55.0~dfsg1-0ubuntu1
 _ZN9tesseract7TabFind17SetBlockRuleEdgesEPNS_8TO_BLOCKE@Base 9.55.0~dfsg1-0ubuntu1
 _ZN9tesseract7TabFind18ConfirmRaggedRightEPNS_8BLOBNBOXEi@Base 9.55.0~dfsg1-0ubuntu1
 _ZN9tesseract7TabFind18DontFindTabVectorsEPNS_13BLOBNBOX_LISTEPNS_8TO_BLOCKEPNS_6FCOORDES6_@Base 9.55.0~dfsg1-0ubuntu1
 _ZN9tesseract7TabFind18VeryDifferentSizesEii@Base 9.55.0~dfsg1-0ubuntu1
 _ZN9tesseract7TabFind19ApplyTabConstraintsEv@Base 9.55.0~dfsg1-0ubuntu1
 _ZN9tesseract7TabFind19ComputeColumnWidthsEPNS_10ScrollViewEPNS_16ColPartitionGridE@Base 9.55.0~dfsg1-0ubuntu1
 _ZN9tesseract7TabFind20ComputeDeskewVectorsEPNS_6FCOORDES2_@Base 9.55.0~dfsg1-0ubuntu1
 _ZN9tesseract7TabFind20ResetForVerticalTextERKNS_6FCOORDES3_PNS_14TabVector_LISTEPi@Base 9.55.0~dfsg1-0ubuntu1
 _ZN9tesseract7TabFind21FindInitialTabVectorsEPNS_13BLOBNBOX_LISTEidPNS_8TO_BLOCKE@Base 9.55.0~dfsg1-0ubuntu1
 _ZN9tesseract7TabFind21FindMedianGutterWidthEPNS_14TabVector_LISTE@Base 9.55.0~dfsg1-0ubuntu1
 _ZN9tesseract7TabFind21NothingYOverlapsInBoxERKNS_4TBOXES3_@Base 9.55.0~dfsg1-0ubuntu1
 _ZN9tesseract7TabFind26GutterWidthAndNeighbourGapEiiibPNS_8BLOBNBOXEPiS3_@Base 9.55.0~dfsg1-0ubuntu1
 _ZN9tesseract7TabFind29ApplyPartitionsToColumnWidthsEPNS_16ColPartitionGridEPNS_5STATSE@Base 9.55.0~dfsg1-0ubuntu1
 _ZN9tesseract7TabFind29SetVerticalSkewAndParallelizeEii@Base 9.55.0~dfsg1-0ubuntu1
 _ZN9tesseract7TabFind5ResetEv@Base 9.55.0~dfsg1-0ubuntu1
 _ZN9tesseract7TabFind6DeskewEPNS_14TabVector_LISTEPNS_13BLOBNBOX_LISTEPNS_8TO_BLOCKEPNS_6FCOORDES8_@Base 9.55.0~dfsg1-0ubuntu1
 _ZN9tesseract7TabFind9TidyBlobsEPNS_8TO_BLOCKE@Base 9.55.0~dfsg1-0ubuntu1
 _ZN9tesseract7TabFindC1EiRKNS_6ICOORDES3_PNS_14TabVector_LISTEiii@Base 9.55.0~dfsg1-0ubuntu1
 _ZN9tesseract7TabFindC2EiRKNS_6ICOORDES3_PNS_14TabVector_LISTEiii@Base 9.55.0~dfsg1-0ubuntu1
 _ZN9tesseract7TabFindD0Ev@Base 9.55.0~dfsg1-0ubuntu1
 _ZN9tesseract7TabFindD1Ev@Base 9.55.0~dfsg1-0ubuntu1
 _ZN9tesseract7TabFindD2Ev@Base 9.55.0~dfsg1-0ubuntu1
 _ZN9tesseract7Textord10to_spacingENS_6ICOORDEPNS_13TO_BLOCK_LISTE@Base 9.55.0~dfsg1-0ubuntu1
 _ZN9tesseract7Textord11TextordPageENS_11PageSegModeERKNS_6FCOORDEiiP3PixS6_S6_bPNS_13BLOBNBOX_LISTEPNS_10BLOCK_LISTEPNS_13TO_BLOCK_LISTE@Base 9.55.0~dfsg1-0ubuntu1
 _ZN9tesseract7Textord11narrow_blobEPNS_6TO_ROWENS_4TBOXE@Base 9.55.0~dfsg1-0ubuntu1
 _ZN9tesseract7Textord12filter_blobsENS_6ICOORDEPNS_13TO_BLOCK_LISTEb@Base 9.55.0~dfsg1-0ubuntu1
 _ZN9tesseract7Textord13old_to_methodEPNS_6TO_ROWEPNS_5STATSES4_S4_ss@Base 9.55.0~dfsg1-0ubuntu1
 _ZN9tesseract7Textord14cleanup_blocksEbPNS_10BLOCK_LISTE@Base 9.55.0~dfsg1-0ubuntu1
 _ZN9tesseract7Textord14find_textlinesEPNS_8TO_BLOCKEPNS_6TO_ROWEiPNS_7QSPLINEE@Base 9.55.0~dfsg1-0ubuntu1
 _ZN9tesseract7Textord14ignore_big_gapEPNS_6TO_ROWEiPNS_6GAPMAPEss@Base 9.55.0~dfsg1-0ubuntu1
 _ZN9tesseract7Textord15correlate_linesEPNS_8TO_BLOCKEf@Base 9.55.0~dfsg1-0ubuntu1
 _ZN9tesseract7Textord15find_componentsEP3PixPNS_10BLOCK_LISTEPNS_13TO_BLOCK_LISTE@Base 9.55.0~dfsg1-0ubuntu1
 _ZN9tesseract7Textord15make_blob_wordsEPNS_6TO_ROWENS_6FCOORDE@Base 9.55.0~dfsg1-0ubuntu1
 _ZN9tesseract7Textord15make_prop_wordsEPNS_6TO_ROWENS_6FCOORDE@Base 9.55.0~dfsg1-0ubuntu1
 _ZN9tesseract7Textord16make_spline_rowsEPNS_8TO_BLOCKEfb@Base 9.55.0~dfsg1-0ubuntu1
 _ZN9tesseract7Textord16peek_at_next_gapEPNS_6TO_ROWENS_11BLOBNBOX_ITERNS_4TBOXERsS6_@Base 9.55.0~dfsg1-0ubuntu1
 _ZN9tesseract7Textord16reduced_box_nextEPNS_6TO_ROWEPNS_11BLOBNBOX_ITE@Base 9.55.0~dfsg1-0ubuntu1
 _ZN9tesseract7Textord17make_a_word_breakEPNS_6TO_ROWENS_4TBOXEsS3_ssS3_sRhRbS5_S5_S5_@Base 9.55.0~dfsg1-0ubuntu1
 _ZN9tesseract7Textord17row_spacing_statsEPNS_6TO_ROWEPNS_6GAPMAPEssss@Base 9.55.0~dfsg1-0ubuntu1
 _ZN9tesseract7Textord17stats_count_underEPNS_5STATSEs@Base 9.55.0~dfsg1-0ubuntu1
 _ZN9tesseract7Textord18filter_noise_blobsEPNS_13BLOBNBOX_LISTES2_S2_S2_@Base 9.55.0~dfsg1-0ubuntu1
 _ZN9tesseract7Textord18isolated_row_statsEPNS_6TO_ROWEPNS_6GAPMAPEPNS_5STATSEbss@Base 9.55.0~dfsg1-0ubuntu1
 _ZN9tesseract7Textord18make_old_baselinesEPNS_8TO_BLOCKEbf@Base 9.55.0~dfsg1-0ubuntu1
 _ZN9tesseract7Textord19block_spacing_statsEPNS_8TO_BLOCKEPNS_6GAPMAPERbRsS6_@Base 9.55.0~dfsg1-0ubuntu1
 _ZN9tesseract7Textord19compute_row_xheightEPNS_6TO_ROWERKNS_6FCOORDEfi@Base 9.55.0~dfsg1-0ubuntu1
 _ZN9tesseract7Textord20clean_noise_from_rowEPNS_3ROWE@Base 9.55.0~dfsg1-0ubuntu1
 _ZN9tesseract7Textord20correlate_neighboursEPNS_8TO_BLOCKEPPNS_6TO_ROWEi@Base 9.55.0~dfsg1-0ubuntu1
 _ZN9tesseract7Textord20correlate_with_statsEPPNS_6TO_ROWEiPNS_8TO_BLOCKE@Base 9.55.0~dfsg1-0ubuntu1
 _ZN9tesseract7Textord20reduced_box_for_blobEPNS_8BLOBNBOXEPNS_6TO_ROWEPs@Base 9.55.0~dfsg1-0ubuntu1
 _ZN9tesseract7Textord20suspected_punct_blobEPNS_6TO_ROWENS_4TBOXE@Base 9.55.0~dfsg1-0ubuntu1
 _ZN9tesseract7Textord21cleanup_nontext_blockEPNS_5BLOCKE@Base 9.55.0~dfsg1-0ubuntu1
 _ZN9tesseract7Textord21compute_block_xheightEPNS_8TO_BLOCKEf@Base 9.55.0~dfsg1-0ubuntu1
 _ZN9tesseract7Textord21improve_row_thresholdEPNS_6TO_ROWEPNS_5STATSE@Base 9.55.0~dfsg1-0ubuntu1
 _ZN9tesseract7Textord22CleanupSingleRowResultENS_11PageSegModeEPNS_8PAGE_RESE@Base 9.55.0~dfsg1-0ubuntu1
 _ZN9tesseract7Textord22clean_noise_from_wordsEPNS_3ROWE@Base 9.55.0~dfsg1-0ubuntu1
 _ZN9tesseract7Textord22find_mean_blob_spacingEPNS_4WERDE@Base 9.55.0~dfsg1-0ubuntu1
 _ZN9tesseract7Textord25TransferDiacriticsToWordsEPNS_13BLOBNBOX_LISTERKNS_6FCOORDEPNS_6BBGridINS_11WordWithBoxENS_17WordWithBox_CLISTENS_16WordWithBox_C_ITEEE@Base 9.55.0~dfsg1-0ubuntu1
 _ZN9tesseract7Textord28clean_small_noise_from_wordsEPNS_3ROWE@Base 9.55.0~dfsg1-0ubuntu1
 _ZN9tesseract7Textord31TransferDiacriticsToBlockGroupsEPNS_13BLOBNBOX_LISTEPNS_10BLOCK_LISTE@Base 9.55.0~dfsg1-0ubuntu1
 _ZN9tesseract7Textord9wide_blobEPNS_6TO_ROWENS_4TBOXE@Base 9.55.0~dfsg1-0ubuntu1
 _ZN9tesseract7TextordC1EPNS_8CCStructE@Base 9.55.0~dfsg1-0ubuntu1
 _ZN9tesseract7TextordC2EPNS_8CCStructE@Base 9.55.0~dfsg1-0ubuntu1
 _ZN9tesseract7UNICHAR11UTF32ToUTF8B5cxx11ERKSt6vectorIiSaIiEE@Base 9.55.0~dfsg1-0ubuntu1
 _ZN9tesseract7UNICHAR11UTF8ToUTF32EPKc@Base 9.55.0~dfsg1-0ubuntu1
 _ZN9tesseract7UNICHAR14const_iteratorppEv@Base 9.55.0~dfsg1-0ubuntu1
 _ZN9tesseract7UNICHAR3endEPKci@Base 9.55.0~dfsg1-0ubuntu1
 _ZN9tesseract7UNICHAR5beginEPKci@Base 9.55.0~dfsg1-0ubuntu1
 _ZN9tesseract7UNICHAR9utf8_stepEPKc@Base 9.55.0~dfsg1-0ubuntu1
 _ZN9tesseract7UNICHARC1EPKci@Base 9.55.0~dfsg1-0ubuntu1
 _ZN9tesseract7UNICHARC1Ei@Base 9.55.0~dfsg1-0ubuntu1
 _ZN9tesseract7UNICHARC2EPKci@Base 9.55.0~dfsg1-0ubuntu1
 _ZN9tesseract7UNICHARC2Ei@Base 9.55.0~dfsg1-0ubuntu1
 _ZN9tesseract7Wordrec10near_pointEPNS_6EDGEPTES2_S2_PS2_@Base 9.55.0~dfsg1-0ubuntu1
 _ZN9tesseract7Wordrec11DoSegSearchEPNS_8WERD_RESE@Base 9.55.0~dfsg1-0ubuntu1
 _ZN9tesseract7Wordrec12angle_changeEPNS_6EDGEPTES2_S2_@Base 9.55.0~dfsg1-0ubuntu1
 _ZN9tesseract7Wordrec12call_matcherEPNS_5TBLOBE@Base 9.55.0~dfsg1-0ubuntu1
 _ZN9tesseract7Wordrec12combine_seamERKNS_11GenericHeapINS_12KDPtrPairDecIfNS_4SEAMEEEEEPKS3_PNS1_INS_12KDPtrPairIncIfS3_EEEE@Base 9.55.0~dfsg1-0ubuntu1
 _ZN9tesseract7Wordrec13chop_one_blobERKSt6vectorINS_4TBOXESaIS2_EERKNS_13GenericVectorIPNS_11BLOB_CHOICEEEEPNS_8WERD_RESEPi@Base 9.55.0~dfsg1-0ubuntu1
 _ZN9tesseract7Wordrec13classify_blobEPNS_5TBLOBEPKcNS_10ScrollView5ColorEPNS_12BlamerBundleE@Base 9.55.0~dfsg1-0ubuntu1
 _ZN9tesseract7Wordrec13new_max_pointEPNS_6EDGEPTEPNS_11GenericHeapINS_9KDPairIncIfS2_EEEE@Base 9.55.0~dfsg1-0ubuntu1
 _ZN9tesseract7Wordrec13new_min_pointEPNS_6EDGEPTEPNS_11GenericHeapINS_9KDPairIncIfS2_EEEE@Base 9.55.0~dfsg1-0ubuntu1
 _ZN9tesseract7Wordrec14chop_word_mainEPNS_8WERD_RESE@Base 9.55.0~dfsg1-0ubuntu1
 _ZN9tesseract7Wordrec14classify_pieceERKNS_13GenericVectorIPNS_4SEAMEEEssPKcPNS_5TWERDEPNS_12BlamerBundleE@Base 9.55.0~dfsg1-0ubuntu1
 _ZN9tesseract7Wordrec14pick_good_seamEPNS_5TBLOBE@Base 9.55.0~dfsg1-0ubuntu1
 _ZN9tesseract7Wordrec14point_priorityEPNS_6EDGEPTE@Base 9.55.0~dfsg1-0ubuntu1
 _ZN9tesseract7Wordrec14program_editupEPKcPNS_15TessdataManagerES4_@Base 9.55.0~dfsg1-0ubuntu1
 _ZN9tesseract7Wordrec15grade_sharpnessEPNS_5SPLITE@Base 9.55.0~dfsg1-0ubuntu1
 _ZN9tesseract7Wordrec15is_inside_angleEPNS_6EDGEPTE@Base 9.55.0~dfsg1-0ubuntu1
 _ZN9tesseract7Wordrec15merge_fragmentsEPNS_6MATRIXEs@Base 9.55.0~dfsg1-0ubuntu1
 _ZN9tesseract7Wordrec15try_point_pairsEPPNS_6EDGEPTEsPNS_11GenericHeapINS_12KDPtrPairIncIfNS_4SEAMEEEEEPNS4_INS_12KDPtrPairDecIfS6_EEEEPPS6_PNS_5TBLOBE@Base 9.55.0~dfsg1-0ubuntu1
 _ZN9tesseract7Wordrec16InitialSegSearchEPNS_8WERD_RESEPNS_12LMPainPointsEPNS_13GenericVectorINS_16SegSearchPendingEEEPNS_16BestChoiceBundleEPNS_12BlamerBundleE@Base 9.55.0~dfsg1-0ubuntu1
 _ZN9tesseract7Wordrec16ResetNGramSearchEPNS_8WERD_RESEPNS_16BestChoiceBundleEPNS_13GenericVectorINS_16SegSearchPendingEEE@Base 9.55.0~dfsg1-0ubuntu1
 _ZN9tesseract7Wordrec16choose_best_seamEPNS_11GenericHeapINS_12KDPtrPairIncIfNS_4SEAMEEEEEPKNS_5SPLITEfPPS3_PNS_5TBLOBEPNS1_INS_12KDPtrPairDecIfS3_EEEE@Base 9.55.0~dfsg1-0ubuntu1
 _ZN9tesseract7Wordrec16improve_one_blobERKNS_13GenericVectorIPNS_11BLOB_CHOICEEEEPNS1_INS_12DANGERR_INFOEEEbbPNS_8WERD_RESEPi@Base 9.55.0~dfsg1-0ubuntu1
 _ZN9tesseract7Wordrec16pick_close_pointEPNS_6EDGEPTES2_Pi@Base 9.55.0~dfsg1-0ubuntu1
 _ZN9tesseract7Wordrec16program_editdownEi@Base 9.55.0~dfsg1-0ubuntu1
 _ZN9tesseract7Wordrec17add_point_to_listEPNS_11GenericHeapINS_9KDPairIncIfPNS_6EDGEPTEEEEES4_@Base 9.55.0~dfsg1-0ubuntu1
 _ZN9tesseract7Wordrec17add_seam_to_queueEfPNS_4SEAMEPNS_11GenericHeapINS_12KDPtrPairIncIfS1_EEEE@Base 9.55.0~dfsg1-0ubuntu1
 _ZN9tesseract7Wordrec17attempt_blob_chopEPNS_5TWERDEPNS_5TBLOBEibRKNS_13GenericVectorIPNS_4SEAMEEE@Base 9.55.0~dfsg1-0ubuntu1
 _ZN9tesseract7Wordrec17prioritize_pointsEPNS_8TESSLINEEPNS_11GenericHeapINS_9KDPairIncIfPNS_6EDGEPTEEEEE@Base 9.55.0~dfsg1-0ubuntu1
 _ZN9tesseract7Wordrec18chop_numbered_blobEPNS_5TWERDEibRKNS_13GenericVectorIPNS_4SEAMEEE@Base 9.55.0~dfsg1-0ubuntu1
 _ZN9tesseract7Wordrec18get_fragment_listsEsssssPNS_6MATRIXEPNS_16BLOB_CHOICE_LISTE@Base 9.55.0~dfsg1-0ubuntu1
 _ZN9tesseract7Wordrec18grade_split_lengthEPNS_5SPLITE@Base 9.55.0~dfsg1-0ubuntu1
 _ZN9tesseract7Wordrec19improve_by_choppingEfPNS_8WERD_RESEPNS_16BestChoiceBundleEPNS_12BlamerBundleEPNS_12LMPainPointsEPNS_13GenericVectorINS_16SegSearchPendingEEE@Base 9.55.0~dfsg1-0ubuntu1
 _ZN9tesseract7Wordrec19try_vertical_splitsEPPNS_6EDGEPTEsPNS_12EDGEPT_CLISTEPNS_11GenericHeapINS_12KDPtrPairIncIfNS_4SEAMEEEEEPNS6_INS_12KDPtrPairDecIfS8_EEEEPPS8_PNS_5TBLOBE@Base 9.55.0~dfsg1-0ubuntu1
 _ZN9tesseract7Wordrec20UpdateSegSearchNodesEfiPNS_13GenericVectorINS_16SegSearchPendingEEEPNS_8WERD_RESEPNS_12LMPainPointsEPNS_16BestChoiceBundleEPNS_12BlamerBundleE@Base 9.55.0~dfsg1-0ubuntu1
 _ZN9tesseract7Wordrec20select_blob_to_splitERKNS_13GenericVectorIPNS_11BLOB_CHOICEEEEfb@Base 9.55.0~dfsg1-0ubuntu1
 _ZN9tesseract7Wordrec21chop_overlapping_blobERKSt6vectorINS_4TBOXESaIS2_EEbPNS_8WERD_RESEPi@Base 9.55.0~dfsg1-0ubuntu1
 _ZN9tesseract7Wordrec22InitBlamerForSegSearchEPNS_8WERD_RESEPNS_12LMPainPointsEPNS_12BlamerBundleEPNS_6STRINGE@Base 9.55.0~dfsg1-0ubuntu1
 _ZN9tesseract7Wordrec25ProcessSegSearchPainPointEfRKNS_12MATRIX_COORDEPKcPNS_13GenericVectorINS_16SegSearchPendingEEEPNS_8WERD_RESEPNS_12LMPainPointsEPNS_12BlamerBundleE@Base 9.55.0~dfsg1-0ubuntu1
 _ZN9tesseract7Wordrec25vertical_projection_pointEPNS_6EDGEPTES2_PS2_PNS_12EDGEPT_CLISTE@Base 9.55.0~dfsg1-0ubuntu1
 _ZN9tesseract7Wordrec27fill_filtered_fragment_listEPNS_16BLOB_CHOICE_LISTEiiS2_@Base 9.55.0~dfsg1-0ubuntu1
 _ZN9tesseract7Wordrec28merge_and_put_fragment_listsEsssPNS_16BLOB_CHOICE_LISTEPNS_6MATRIXE@Base 9.55.0~dfsg1-0ubuntu1
 _ZN9tesseract7Wordrec31select_blob_to_split_from_fixptEPNS_13GenericVectorINS_12DANGERR_INFOEEE@Base 9.55.0~dfsg1-0ubuntu1
 _ZN9tesseract7Wordrec8cc_recogEPNS_8WERD_RESE@Base 9.55.0~dfsg1-0ubuntu1
 _ZN9tesseract7Wordrec9SegSearchEPNS_8WERD_RESEPNS_16BestChoiceBundleEPNS_12BlamerBundleE@Base 9.55.0~dfsg1-0ubuntu1
 _ZN9tesseract7Wordrec9dict_wordERKNS_11WERD_CHOICEE@Base 9.55.0~dfsg1-0ubuntu1
 _ZN9tesseract7Wordrec9end_recogEv@Base 9.55.0~dfsg1-0ubuntu1
 _ZN9tesseract7Wordrec9set_pass1Ev@Base 9.55.0~dfsg1-0ubuntu1
 _ZN9tesseract7Wordrec9set_pass2Ev@Base 9.55.0~dfsg1-0ubuntu1
 _ZN9tesseract7WordrecC1Ev@Base 9.55.0~dfsg1-0ubuntu1
 _ZN9tesseract7WordrecC2Ev@Base 9.55.0~dfsg1-0ubuntu1
 _ZN9tesseract7cutlineEPNS_6EDGEPTES1_i@Base 9.55.0~dfsg1-0ubuntu1
 _ZN9tesseract7destroyEPNS_8list_recE@Base 9.55.0~dfsg1-0ubuntu1
 _ZN9tesseract7tprintfEPKcz@Base 9.55.0~dfsg1-0ubuntu1
 _ZN9tesseract8BLOBNBOX10rotate_boxENS_6FCOORDE@Base 9.55.0~dfsg1-0ubuntu1
 _ZN9tesseract8BLOBNBOX12really_mergeEPS0_@Base 9.55.0~dfsg1-0ubuntu1
 _ZN9tesseract8BLOBNBOX15CleanNeighboursEPNS_13BLOBNBOX_LISTE@Base 9.55.0~dfsg1-0ubuntu1
 _ZN9tesseract8BLOBNBOX15CleanNeighboursEv@Base 9.55.0~dfsg1-0ubuntu1
 _ZN9tesseract8BLOBNBOX16DeleteNoiseBlobsEPNS_13BLOBNBOX_LISTE@Base 9.55.0~dfsg1-0ubuntu1
 _ZN9tesseract8BLOBNBOX18BoundsWithinLimitsEii@Base 9.55.0~dfsg1-0ubuntu1
 _ZN9tesseract8BLOBNBOX18ComputeEdgeOffsetsEP3PixS2_PNS_13BLOBNBOX_LISTE@Base 9.55.0~dfsg1-0ubuntu1
 _ZN9tesseract8BLOBNBOX21reflect_box_in_y_axisEv@Base 9.55.0~dfsg1-0ubuntu1
 _ZN9tesseract8BLOBNBOX22DefiniteIndividualFlowEv@Base 9.55.0~dfsg1-0ubuntu1
 _ZN9tesseract8BLOBNBOX24EstimateBaselinePositionEv@Base 9.55.0~dfsg1-0ubuntu1
 _ZN9tesseract8BLOBNBOX4chopEPNS_11BLOBNBOX_ITES2_NS_6FCOORDEf@Base 9.55.0~dfsg1-0ubuntu1
 _ZN9tesseract8BLOBNBOX5mergeEPS0_@Base 9.55.0~dfsg1-0ubuntu1
 _ZN9tesseract8BLOBNBOX6rotateENS_6FCOORDE@Base 9.55.0~dfsg1-0ubuntu1
 _ZN9tesseract8BlobGrid14InsertBlobListEPNS_13BLOBNBOX_LISTE@Base 9.55.0~dfsg1-0ubuntu1
 _ZN9tesseract8BlobGridC1EiRKNS_6ICOORDES3_@Base 9.55.0~dfsg1-0ubuntu1
 _ZN9tesseract8BlobGridC2EiRKNS_6ICOORDES3_@Base 9.55.0~dfsg1-0ubuntu1
 _ZN9tesseract8BlobGridD0Ev@Base 9.55.0~dfsg1-0ubuntu1
 _ZN9tesseract8BlobGridD1Ev@Base 9.55.0~dfsg1-0ubuntu1
 _ZN9tesseract8BlobGridD2Ev@Base 9.55.0~dfsg1-0ubuntu1
 _ZN9tesseract8CCStruct16kXHeightCapRatioE@Base 9.55.0~dfsg1-0ubuntu1
 _ZN9tesseract8CCStruct16kXHeightFractionE@Base 9.55.0~dfsg1-0ubuntu1
 _ZN9tesseract8CCStruct17kAscenderFractionE@Base 9.55.0~dfsg1-0ubuntu1
 _ZN9tesseract8CCStruct18kDescenderFractionE@Base 9.55.0~dfsg1-0ubuntu1
 _ZN9tesseract8CCStructD0Ev@Base 9.55.0~dfsg1-0ubuntu1
 _ZN9tesseract8CCStructD1Ev@Base 9.55.0~dfsg1-0ubuntu1
 _ZN9tesseract8CCStructD2Ev@Base 9.55.0~dfsg1-0ubuntu1
 _ZN9tesseract8Classify11AdaptToCharEPNS_5TBLOBEiifPNS_22ADAPT_TEMPLATES_STRUCTE@Base 9.55.0~dfsg1-0ubuntu1
 _ZN9tesseract8Classify11LearnPiecesEPKciifNS_20CharSegmentationTypeES2_PNS_8WERD_RESE@Base 9.55.0~dfsg1-0ubuntu1
 _ZN9tesseract8Classify11SettupPass1Ev@Base 9.55.0~dfsg1-0ubuntu1
 _ZN9tesseract8Classify11SettupPass2Ev@Base 9.55.0~dfsg1-0ubuntu1
 _ZN9tesseract8Classify11WriteTRFileEPKc@Base 9.55.0~dfsg1-0ubuntu1
 _ZN9tesseract8Classify12AddNewResultERKNS_13UnicharRatingEPNS_13ADAPT_RESULTSE@Base 9.55.0~dfsg1-0ubuntu1
 _ZN9tesseract8Classify12ConvertProtoEPNS_12PROTO_STRUCTEiPNS_16INT_CLASS_STRUCTE@Base 9.55.0~dfsg1-0ubuntu1
 _ZN9tesseract8Classify12LargeSpeckleERKNS_5TBLOBE@Base 9.55.0~dfsg1-0ubuntu1
 _ZN9tesseract8Classify12PruneClassesEPKNS_20INT_TEMPLATES_STRUCTEiiPKNS_18INT_FEATURE_STRUCTEPKhPKtPSt6vectorINS_16CP_RESULT_STRUCTESaISC_EE@Base 9.55.0~dfsg1-0ubuntu1
 _ZN9tesseract8Classify13AdaptableWordEPNS_8WERD_RESE@Base 9.55.0~dfsg1-0ubuntu1
 _ZN9tesseract8Classify13GetFontinfoIdEPNS_18ADAPT_CLASS_STRUCTEh@Base 9.55.0~dfsg1-0ubuntu1
 _ZN9tesseract8Classify13MakePermanentEPNS_22ADAPT_TEMPLATES_STRUCTEiiPNS_5TBLOBE@Base 9.55.0~dfsg1-0ubuntu1
 _ZN9tesseract8Classify13MasterMatcherEPNS_20INT_TEMPLATES_STRUCTEsPKNS_18INT_FEATURE_STRUCTEPKhPPNS_18ADAPT_CLASS_STRUCTEiiRKNS_4TBOXERKSt6vectorINS_16CP_RESULT_STRUCTESaISF_EEPNS_13ADAPT_RESULTSE@Base 9.55.0~dfsg1-0ubuntu1
 _ZN9tesseract8Classify14FreeNormProtosEv@Base 9.55.0~dfsg1-0ubuntu1
 _ZN9tesseract8Classify14GetAmbiguitiesEPNS_5TBLOBEi@Base 9.55.0~dfsg1-0ubuntu1
 _ZN9tesseract8Classify14ReadNewCutoffsEPNS_5TFileEPt@Base 9.55.0~dfsg1-0ubuntu1
 _ZN9tesseract8Classify14ReadNormProtosEPNS_5TFileE@Base 9.55.0~dfsg1-0ubuntu1
 _ZN9tesseract8Classify15AmbigClassifierERKSt6vectorINS_18INT_FEATURE_STRUCTESaIS2_EERKNS_20INT_FX_RESULT_STRUCTEPKNS_5TBLOBEPNS_20INT_TEMPLATES_STRUCTEPPNS_18ADAPT_CLASS_STRUCTEPiPNS_13ADAPT_RESULTSE@Base 9.55.0~dfsg1-0ubuntu1
 _ZN9tesseract8Classify15ClassifyAsNoiseEPNS_13ADAPT_RESULTSE@Base 9.55.0~dfsg1-0ubuntu1
 _ZN9tesseract8Classify15DoAdaptiveMatchEPNS_5TBLOBEPNS_13ADAPT_RESULTSE@Base 9.55.0~dfsg1-0ubuntu1
 _ZN9tesseract8Classify15ExtractFeaturesERKNS_5TBLOBEbPSt6vectorINS_18INT_FEATURE_STRUCTESaIS5_EES8_PNS_20INT_FX_RESULT_STRUCTEPNS_13GenericVectorIiEE@Base 9.55.0~dfsg1-0ubuntu1
 _ZN9tesseract8Classify16ComputeNormMatchEiRKNS_14FEATURE_STRUCTEb@Base 9.55.0~dfsg1-0ubuntu1
 _ZN9tesseract8Classify16InitAdaptedClassEPNS_5TBLOBEiiPNS_18ADAPT_CLASS_STRUCTEPNS_22ADAPT_TEMPLATES_STRUCTE@Base 9.55.0~dfsg1-0ubuntu1
 _ZN9tesseract8Classify16LooksLikeGarbageEPNS_5TBLOBE@Base 9.55.0~dfsg1-0ubuntu1
 _ZN9tesseract8Classify16ReadIntTemplatesEPNS_5TFileE@Base 9.55.0~dfsg1-0ubuntu1
 _ZN9tesseract8Classify16RemoveBadMatchesEPNS_13ADAPT_RESULTSE@Base 9.55.0~dfsg1-0ubuntu1
 _ZN9tesseract8Classify16RemoveExtraPuncsEPNS_13ADAPT_RESULTSE@Base 9.55.0~dfsg1-0ubuntu1
 _ZN9tesseract8Classify16SetupBLCNDenormsERKNS_5TBLOBEbPNS_6DENORMES5_PNS_20INT_FX_RESULT_STRUCTE@Base 9.55.0~dfsg1-0ubuntu1
 _ZN9tesseract8Classify17AddLargeSpeckleToEiPNS_16BLOB_CHOICE_LISTE@Base 9.55.0~dfsg1-0ubuntu1
 _ZN9tesseract8Classify17MakeNewTempProtosEPNS_18FEATURE_SET_STRUCTEiPhPNS_16INT_CLASS_STRUCTEPNS_18ADAPT_CLASS_STRUCTEPj@Base 9.55.0~dfsg1-0ubuntu1
 _ZN9tesseract8Classify17NormalizeOutlinesEPNS_8list_recEPfS3_@Base 9.55.0~dfsg1-0ubuntu1
 _ZN9tesseract8Classify17UpdateAmbigsGroupEiPNS_5TBLOBE@Base 9.55.0~dfsg1-0ubuntu1
 _ZN9tesseract8Classify17WriteIntTemplatesEP8_IO_FILEPNS_20INT_TEMPLATES_STRUCTERKNS_10UNICHARSETE@Base 9.55.0~dfsg1-0ubuntu1
 _ZN9tesseract8Classify18AdaptiveClassifierEPNS_5TBLOBEPNS_16BLOB_CHOICE_LISTE@Base 9.55.0~dfsg1-0ubuntu1
 _ZN9tesseract8Classify18BaselineClassifierEPNS_5TBLOBERKSt6vectorINS_18INT_FEATURE_STRUCTESaIS4_EERKNS_20INT_FX_RESULT_STRUCTEPNS_22ADAPT_TEMPLATES_STRUCTEPNS_13ADAPT_RESULTSE@Base 9.55.0~dfsg1-0ubuntu1
 _ZN9tesseract8Classify18CharNormClassifierEPNS_5TBLOBERKNS_14TrainingSampleEPNS_13ADAPT_RESULTSE@Base 9.55.0~dfsg1-0ubuntu1
 _ZN9tesseract8Classify18ClearCharNormArrayEPh@Base 9.55.0~dfsg1-0ubuntu1
 _ZN9tesseract8Classify18ComputeIntFeaturesEPNS_18FEATURE_SET_STRUCTEPNS_18INT_FEATURE_STRUCTE@Base 9.55.0~dfsg1-0ubuntu1
 _ZN9tesseract8Classify18CreateIntTemplatesEPNS_12CLASS_STRUCTERKNS_10UNICHARSETE@Base 9.55.0~dfsg1-0ubuntu1
 _ZN9tesseract8Classify18GetCharNormFeatureERKNS_20INT_FX_RESULT_STRUCTEPNS_20INT_TEMPLATES_STRUCTEPhS6_@Base 9.55.0~dfsg1-0ubuntu1
 _ZN9tesseract8Classify18TempConfigReliableEiRKPNS_18TEMP_CONFIG_STRUCTE@Base 9.55.0~dfsg1-0ubuntu1
 _ZN9tesseract8Classify19ExtractPicoFeaturesEPNS_5TBLOBE@Base 9.55.0~dfsg1-0ubuntu1
 _ZN9tesseract8Classify19GetAdaptiveFeaturesEPNS_5TBLOBEPNS_18INT_FEATURE_STRUCTEPPNS_18FEATURE_SET_STRUCTE@Base 9.55.0~dfsg1-0ubuntu1
 _ZN9tesseract8Classify19NewAdaptedTemplatesEb@Base 9.55.0~dfsg1-0ubuntu1
 _ZN9tesseract8Classify19SetStaticClassifierEPNS_15ShapeClassifierE@Base 9.55.0~dfsg1-0ubuntu1
 _ZN9tesseract8Classify20ExtractIntCNFeaturesERKNS_5TBLOBERKNS_20INT_FX_RESULT_STRUCTE@Base 9.55.0~dfsg1-0ubuntu1
 _ZN9tesseract8Classify20ReadAdaptedTemplatesEPNS_5TFileE@Base 9.55.0~dfsg1-0ubuntu1
 _ZN9tesseract8Classify20SetAdaptiveThresholdEf@Base 9.55.0~dfsg1-0ubuntu1
 _ZN9tesseract8Classify21ComputeCharNormArraysEPNS_14FEATURE_STRUCTEPNS_20INT_TEMPLATES_STRUCTEPhS5_@Base 9.55.0~dfsg1-0ubuntu1
 _ZN9tesseract8Classify21EndAdaptiveClassifierEv@Base 9.55.0~dfsg1-0ubuntu1
 _ZN9tesseract8Classify21ExtractIntGeoFeaturesERKNS_5TBLOBERKNS_20INT_FX_RESULT_STRUCTE@Base 9.55.0~dfsg1-0ubuntu1
 _ZN9tesseract8Classify21PrintAdaptedTemplatesEP8_IO_FILEPNS_22ADAPT_TEMPLATES_STRUCTE@Base 9.55.0~dfsg1-0ubuntu1
 _ZN9tesseract8Classify21WriteAdaptedTemplatesEP8_IO_FILEPNS_22ADAPT_TEMPLATES_STRUCTE@Base 9.55.0~dfsg1-0ubuntu1
 _ZN9tesseract8Classify22CharNormTrainingSampleEbiRKNS_14TrainingSampleEPSt6vectorINS_13UnicharRatingESaIS5_EE@Base 9.55.0~dfsg1-0ubuntu1
 _ZN9tesseract8Classify22ComputeCorrectedRatingEbiddiiiiiPKh@Base 9.55.0~dfsg1-0ubuntu1
 _ZN9tesseract8Classify22ExtractOutlineFeaturesEPNS_5TBLOBE@Base 9.55.0~dfsg1-0ubuntu1
 _ZN9tesseract8Classify22InitAdaptiveClassifierEPNS_15TessdataManagerE@Base 9.55.0~dfsg1-0ubuntu1
 _ZN9tesseract8Classify22MakeNewTemporaryConfigEPNS_22ADAPT_TEMPLATES_STRUCTEiiiPNS_18INT_FEATURE_STRUCTEPNS_18FEATURE_SET_STRUCTE@Base 9.55.0~dfsg1-0ubuntu1
 _ZN9tesseract8Classify23ComputeIntCharNormArrayERKNS_14FEATURE_STRUCTEPh@Base 9.55.0~dfsg1-0ubuntu1
 _ZN9tesseract8Classify23ConvertMatchesToChoicesERKNS_6DENORMERKNS_4TBOXEPNS_13ADAPT_RESULTSEPNS_16BLOB_CHOICE_LISTE@Base 9.55.0~dfsg1-0ubuntu1
 _ZN9tesseract8Classify24SwitchAdaptiveClassifierEv@Base 9.55.0~dfsg1-0ubuntu1
 _ZN9tesseract8Classify25PrintAdaptiveMatchResultsERKNS_13ADAPT_RESULTSE@Base 9.55.0~dfsg1-0ubuntu1
 _ZN9tesseract8Classify29StartBackupAdaptiveClassifierEv@Base 9.55.0~dfsg1-0ubuntu1
 _ZN9tesseract8Classify31ExpandShapesAndApplyCorrectionsEPPNS_18ADAPT_CLASS_STRUCTEbiiifiiPKhPNS_13UnicharRatingEPNS_13ADAPT_RESULTSE@Base 9.55.0~dfsg1-0ubuntu1
 _ZN9tesseract8Classify31ResetAdaptiveClassifierInternalEv@Base 9.55.0~dfsg1-0ubuntu1
 _ZN9tesseract8Classify9LearnBlobERKNS_6STRINGEPNS_5TBLOBERKNS_6DENORMERKNS_20INT_FX_RESULT_STRUCTEPKc@Base 9.55.0~dfsg1-0ubuntu1
 _ZN9tesseract8Classify9LearnWordEPKcPNS_8WERD_RESE@Base 9.55.0~dfsg1-0ubuntu1
 _ZN9tesseract8ClassifyC1Ev@Base 9.55.0~dfsg1-0ubuntu1
 _ZN9tesseract8ClassifyC2Ev@Base 9.55.0~dfsg1-0ubuntu1
 _ZN9tesseract8ClassifyD0Ev@Base 9.55.0~dfsg1-0ubuntu1
 _ZN9tesseract8ClassifyD1Ev@Base 9.55.0~dfsg1-0ubuntu1
 _ZN9tesseract8ClassifyD2Ev@Base 9.55.0~dfsg1-0ubuntu1
 _ZN9tesseract8Convolve11DeSerializeEPNS_5TFileE@Base 9.55.0~dfsg1-0ubuntu1
 _ZN9tesseract8Convolve7ForwardEbRKNS_9NetworkIOEPKNS_15TransposedArrayEPNS_14NetworkScratchEPS1_@Base 9.55.0~dfsg1-0ubuntu1
 _ZN9tesseract8Convolve8BackwardEbRKNS_9NetworkIOEPNS_14NetworkScratchEPS1_@Base 9.55.0~dfsg1-0ubuntu1
 _ZN9tesseract8ConvolveC1ERKNSt7__cxx1112basic_stringIcSt11char_traitsIcESaIcEEEiii@Base 9.55.0~dfsg1-0ubuntu1
 _ZN9tesseract8ConvolveC2ERKNSt7__cxx1112basic_stringIcSt11char_traitsIcESaIcEEEiii@Base 9.55.0~dfsg1-0ubuntu1
 _ZN9tesseract8FontInfo11DeSerializeEPNS_5TFileE@Base 9.55.0~dfsg1-0ubuntu1
 _ZN9tesseract8GridBase4InitEiRKNS_6ICOORDES3_@Base 9.55.0~dfsg1-0ubuntu1
 _ZN9tesseract8GridBaseC1EiRKNS_6ICOORDES3_@Base 9.55.0~dfsg1-0ubuntu1
 _ZN9tesseract8GridBaseC2EiRKNS_6ICOORDES3_@Base 9.55.0~dfsg1-0ubuntu1
 _ZN9tesseract8GridBaseD0Ev@Base 9.55.0~dfsg1-0ubuntu1
 _ZN9tesseract8GridBaseD1Ev@Base 9.55.0~dfsg1-0ubuntu1
 _ZN9tesseract8GridBaseD2Ev@Base 9.55.0~dfsg1-0ubuntu1
 _ZN9tesseract8IndexMap11DeSerializeEbP8_IO_FILE@Base 9.55.0~dfsg1-0ubuntu1
 _ZN9tesseract8IndexMap8CopyFromERKNS_12IndexMapBiDiE@Base 9.55.0~dfsg1-0ubuntu1
 _ZN9tesseract8IndexMap8CopyFromERKS0_@Base 9.55.0~dfsg1-0ubuntu1
 _ZN9tesseract8IndexMapD0Ev@Base 9.55.0~dfsg1-0ubuntu1
 _ZN9tesseract8IndexMapD1Ev@Base 9.55.0~dfsg1-0ubuntu1
 _ZN9tesseract8IndexMapD2Ev@Base 9.55.0~dfsg1-0ubuntu1
 _ZN9tesseract8KDDeleteEPNS_6KDTREEEPfPv@Base 9.55.0~dfsg1-0ubuntu1
 _ZN9tesseract8NewClassEii@Base 9.55.0~dfsg1-0ubuntu1
 _ZN9tesseract8PAGE_RESC1EbPNS_10BLOCK_LISTEPPNS_11WERD_CHOICEE@Base 9.55.0~dfsg1-0ubuntu1
 _ZN9tesseract8PAGE_RESC2EbPNS_10BLOCK_LISTEPPNS_11WERD_CHOICEE@Base 9.55.0~dfsg1-0ubuntu1
 _ZN9tesseract8Parallel7ForwardEbRKNS_9NetworkIOEPKNS_15TransposedArrayEPNS_14NetworkScratchEPS1_@Base 9.55.0~dfsg1-0ubuntu1
 _ZN9tesseract8Parallel8BackwardEbRKNS_9NetworkIOEPNS_14NetworkScratchEPS1_@Base 9.55.0~dfsg1-0ubuntu1
 _ZN9tesseract8ParallelC1EPKcNS_11NetworkTypeE@Base 9.55.0~dfsg1-0ubuntu1
 _ZN9tesseract8ParallelC2EPKcNS_11NetworkTypeE@Base 9.55.0~dfsg1-0ubuntu1
 _ZN9tesseract8Plumbing10AddToStackEPNS_7NetworkE@Base 9.55.0~dfsg1-0ubuntu1
 _ZN9tesseract8Plumbing11DeSerializeEPNS_5TFileE@Base 9.55.0~dfsg1-0ubuntu1
 _ZN9tesseract8Plumbing11InitWeightsEfPNS_5TRandE@Base 9.55.0~dfsg1-0ubuntu1
 _ZN9tesseract8Plumbing12ConvertToIntEv@Base 9.55.0~dfsg1-0ubuntu1
 _ZN9tesseract8Plumbing12DebugWeightsEv@Base 9.55.0~dfsg1-0ubuntu1
 _ZN9tesseract8Plumbing12RemapOutputsEiRKSt6vectorIiSaIiEE@Base 9.55.0~dfsg1-0ubuntu1
 _ZN9tesseract8Plumbing13SetRandomizerEPNS_5TRandE@Base 9.55.0~dfsg1-0ubuntu1
 _ZN9tesseract8Plumbing15SetNetworkFlagsEj@Base 9.55.0~dfsg1-0ubuntu1
 _ZN9tesseract8Plumbing17CacheXScaleFactorEi@Base 9.55.0~dfsg1-0ubuntu1
 _ZN9tesseract8Plumbing17SetEnableTrainingENS_13TrainingStateE@Base 9.55.0~dfsg1-0ubuntu1
 _ZN9tesseract8Plumbing18SetupNeedsBackpropEb@Base 9.55.0~dfsg1-0ubuntu1
 _ZN9tesseract8Plumbing20LayerLearningRatePtrEPKc@Base 9.55.0~dfsg1-0ubuntu1
 _ZN9tesseract8Plumbing6UpdateEfffi@Base 9.55.0~dfsg1-0ubuntu1
 _ZN9tesseract8PlumbingC1ERKNSt7__cxx1112basic_stringIcSt11char_traitsIcESaIcEEE@Base 9.55.0~dfsg1-0ubuntu1
 _ZN9tesseract8PlumbingC2ERKNSt7__cxx1112basic_stringIcSt11char_traitsIcESaIcEEE@Base 9.55.0~dfsg1-0ubuntu1
 _ZN9tesseract8ROW_LIST9deep_copyEPKS0_PFPNS_3ROWEPKS3_E@Base 9.55.0~dfsg1-0ubuntu1
 _ZN9tesseract8Reconfig11DeSerializeEPNS_5TFileE@Base 9.55.0~dfsg1-0ubuntu1
 _ZN9tesseract8Reconfig7ForwardEbRKNS_9NetworkIOEPKNS_15TransposedArrayEPNS_14NetworkScratchEPS1_@Base 9.55.0~dfsg1-0ubuntu1
 _ZN9tesseract8Reconfig8BackwardEbRKNS_9NetworkIOEPNS_14NetworkScratchEPS1_@Base 9.55.0~dfsg1-0ubuntu1
 _ZN9tesseract8ReconfigC1EPKciii@Base 9.55.0~dfsg1-0ubuntu1
 _ZN9tesseract8ReconfigC2EPKciii@Base 9.55.0~dfsg1-0ubuntu1
 _ZN9tesseract8Reversed10SetNetworkEPNS_7NetworkE@Base 9.55.0~dfsg1-0ubuntu1
 _ZN9tesseract8Reversed7ForwardEbRKNS_9NetworkIOEPKNS_15TransposedArrayEPNS_14NetworkScratchEPS1_@Base 9.55.0~dfsg1-0ubuntu1
 _ZN9tesseract8Reversed8BackwardEbRKNS_9NetworkIOEPNS_14NetworkScratchEPS1_@Base 9.55.0~dfsg1-0ubuntu1
 _ZN9tesseract8ReversedC1ERKNSt7__cxx1112basic_stringIcSt11char_traitsIcESaIcEEENS_11NetworkTypeE@Base 9.55.0~dfsg1-0ubuntu1
 _ZN9tesseract8ReversedC2ERKNSt7__cxx1112basic_stringIcSt11char_traitsIcESaIcEEENS_11NetworkTypeE@Base 9.55.0~dfsg1-0ubuntu1
 _ZN9tesseract8TESSLINE12SetupFromPosEv@Base 9.55.0~dfsg1-0ubuntu1
 _ZN9tesseract8TESSLINE18ComputeBoundingBoxEv@Base 9.55.0~dfsg1-0ubuntu1
 _ZN9tesseract8TESSLINE20BuildFromOutlineListEPNS_6EDGEPTE@Base 9.55.0~dfsg1-0ubuntu1
 _ZN9tesseract8TESSLINE4MoveENS_6ICOORDE@Base 9.55.0~dfsg1-0ubuntu1
 _ZN9tesseract8TESSLINE5ClearEv@Base 9.55.0~dfsg1-0ubuntu1
 _ZN9tesseract8TESSLINE5ScaleEf@Base 9.55.0~dfsg1-0ubuntu1
 _ZN9tesseract8TESSLINE6RotateENS_6FCOORDE@Base 9.55.0~dfsg1-0ubuntu1
 _ZN9tesseract8TESSLINE8CopyFromERKS0_@Base 9.55.0~dfsg1-0ubuntu1
 _ZN9tesseract8TESSLINE9NormalizeERKNS_6DENORME@Base 9.55.0~dfsg1-0ubuntu1
 _ZN9tesseract8TO_BLOCK18ComputeEdgeOffsetsEP3PixS2_@Base 9.55.0~dfsg1-0ubuntu1
 _ZN9tesseract8TO_BLOCK18DeleteUnownedNoiseEv@Base 9.55.0~dfsg1-0ubuntu1
 _ZN9tesseract8TO_BLOCK21ReSetAndReFilterBlobsEv@Base 9.55.0~dfsg1-0ubuntu1
 _ZN9tesseract8TO_BLOCK5clearEv@Base 9.55.0~dfsg1-0ubuntu1
 _ZN9tesseract8TO_BLOCKC1EPNS_5BLOCKE@Base 9.55.0~dfsg1-0ubuntu1
 _ZN9tesseract8TO_BLOCKC2EPNS_5BLOCKE@Base 9.55.0~dfsg1-0ubuntu1
 _ZN9tesseract8TO_BLOCKD1Ev@Base 9.55.0~dfsg1-0ubuntu1
 _ZN9tesseract8TO_BLOCKD2Ev@Base 9.55.0~dfsg1-0ubuntu1
 _ZN9tesseract8WERD_RES10BothQuotesEii@Base 9.55.0~dfsg1-0ubuntu1
 _ZN9tesseract8WERD_RES10BothSpacesEii@Base 9.55.0~dfsg1-0ubuntu1
 _ZN9tesseract8WERD_RES10InsertSeamEiPNS_4SEAME@Base 9.55.0~dfsg1-0ubuntu1
 _ZN9tesseract8WERD_RES10fix_quotesEv@Base 9.55.0~dfsg1-0ubuntu1
 _ZN9tesseract8WERD_RES11BothHyphensEii@Base 9.55.0~dfsg1-0ubuntu1
 _ZN9tesseract8WERD_RES11GetBlobsGapEi@Base 9.55.0~dfsg1-0ubuntu1
 _ZN9tesseract8WERD_RES11IsAmbiguousEv@Base 9.55.0~dfsg1-0ubuntu1
 _ZN9tesseract8WERD_RES11fix_hyphensEv@Base 9.55.0~dfsg1-0ubuntu1
 _ZN9tesseract8WERD_RES12ClearRatingsEv@Base 9.55.0~dfsg1-0ubuntu1
 _ZN9tesseract8WERD_RES12ClearResultsEv@Base 9.55.0~dfsg1-0ubuntu1
 _ZN9tesseract8WERD_RES12SetupBoxWordEv@Base 9.55.0~dfsg1-0ubuntu1
 _ZN9tesseract8WERD_RES13GetBlobsWidthEii@Base 9.55.0~dfsg1-0ubuntu1
 _ZN9tesseract8WERD_RES14StatesAllValidEv@Base 9.55.0~dfsg1-0ubuntu1
 _ZN9tesseract8WERD_RES15LogNewRawChoiceEPNS_11WERD_CHOICEE@Base 9.55.0~dfsg1-0ubuntu1
 _ZN9tesseract8WERD_RES15SetupWordScriptERKNS_10UNICHARSETE@Base 9.55.0~dfsg1-0ubuntu1
 _ZN9tesseract8WERD_RES16ClearWordChoicesEv@Base 9.55.0~dfsg1-0ubuntu1
 _ZN9tesseract8WERD_RES16CopySimpleFieldsERKS0_@Base 9.55.0~dfsg1-0ubuntu1
 _ZN9tesseract8WERD_RES16DebugWordChoicesEbPKc@Base 9.55.0~dfsg1-0ubuntu1
 _ZN9tesseract8WERD_RES16FakeClassifyWordEiPPNS_11BLOB_CHOICEE@Base 9.55.0~dfsg1-0ubuntu1
 _ZN9tesseract8WERD_RES16RebuildBestStateEv@Base 9.55.0~dfsg1-0ubuntu1
 _ZN9tesseract8WERD_RES16merge_tess_failsEv@Base 9.55.0~dfsg1-0ubuntu1
 _ZN9tesseract8WERD_RES17FilterWordChoicesEi@Base 9.55.0~dfsg1-0ubuntu1
 _ZN9tesseract8WERD_RES17ReplaceBestChoiceEPNS_11WERD_CHOICEE@Base 9.55.0~dfsg1-0ubuntu1
 _ZN9tesseract8WERD_RES17SetupBlamerBundleEv@Base 9.55.0~dfsg1-0ubuntu1
 _ZN9tesseract8WERD_RES18ConsumeWordResultsEPS0_@Base 9.55.0~dfsg1-0ubuntu1
 _ZN9tesseract8WERD_RES18HyphenBoxesOverlapERKNS_4TBOXES3_@Base 9.55.0~dfsg1-0ubuntu1
 _ZN9tesseract8WERD_RES18LogNewCookedChoiceEibPNS_11WERD_CHOICEE@Base 9.55.0~dfsg1-0ubuntu1
 _ZN9tesseract8WERD_RES18MergeAdjacentBlobsEi@Base 9.55.0~dfsg1-0ubuntu1
 _ZN9tesseract8WERD_RES18SetScriptPositionsEv@Base 9.55.0~dfsg1-0ubuntu1
 _ZN9tesseract8WERD_RES19FakeWordFromRatingsENS_12PermuterTypeE@Base 9.55.0~dfsg1-0ubuntu1
 _ZN9tesseract8WERD_RES19SetupForRecognitionERKNS_10UNICHARSETEPNS_9TesseractEP3PixiPKNS_4TBOXEbbbPNS_3ROWEPKNS_5BLOCKE@Base 9.55.0~dfsg1-0ubuntu1
 _ZN9tesseract8WERD_RES20ConditionalBlobMergeESt8functionIFiiiEES1_IFbRKNS_4TBOXES6_EE@Base 9.55.0~dfsg1-0ubuntu1
 _ZN9tesseract8WERD_RES21CloneChoppedToRebuildEv@Base 9.55.0~dfsg1-0ubuntu1
 _ZN9tesseract8WERD_RES21SetAllScriptPositionsENS_9ScriptPosE@Base 9.55.0~dfsg1-0ubuntu1
 _ZN9tesseract8WERD_RES22SetupBlobWidthsAndGapsEv@Base 9.55.0~dfsg1-0ubuntu1
 _ZN9tesseract8WERD_RES23BestChoiceToCorrectTextEv@Base 9.55.0~dfsg1-0ubuntu1
 _ZN9tesseract8WERD_RES23InitForRetryRecognitionERKS0_@Base 9.55.0~dfsg1-0ubuntu1
 _ZN9tesseract8WERD_RES25ComputeAdaptionThresholdsEffffPf@Base 9.55.0~dfsg1-0ubuntu1
 _ZN9tesseract8WERD_RES26SetupBasicsFromChoppedWordERKNS_10UNICHARSETE@Base 9.55.0~dfsg1-0ubuntu1
 _ZN9tesseract8WERD_RES5ClearEv@Base 9.55.0~dfsg1-0ubuntu1
 _ZN9tesseract8WERD_RES9SetupFakeERKNS_10UNICHARSETE@Base 9.55.0~dfsg1-0ubuntu1
 _ZN9tesseract8WERD_RES9deep_copyEPKS0_@Base 9.55.0~dfsg1-0ubuntu1
 _ZN9tesseract8WERD_RESD1Ev@Base 9.55.0~dfsg1-0ubuntu1
 _ZN9tesseract8WERD_RESD2Ev@Base 9.55.0~dfsg1-0ubuntu1
 _ZN9tesseract8WERD_RESaSERKS0_@Base 9.55.0~dfsg1-0ubuntu1
 _ZN9tesseract8box_nextEPNS_11BLOBNBOX_ITE@Base 9.55.0~dfsg1-0ubuntu1
 _ZN9tesseract8delete_dEPNS_8list_recEPvPFiS2_S2_E@Base 9.55.0~dfsg1-0ubuntu1
 _ZN9tesseract8lessthanEPKvS1_@Base 9.55.0~dfsg1-0ubuntu1
 _ZN9tesseract8read_setEPNS_5TFileEPNS_7FontSetE@Base 9.55.0~dfsg1-0ubuntu1
 _ZN9tesseract8sort_cmpINS_9KDPairIncIimEEEEiPKvS4_@Base 9.55.0~dfsg1-0ubuntu1
 _ZN9tesseract8sort_cmpIfEEiPKvS2_@Base 9.55.0~dfsg1-0ubuntu1
 _ZN9tesseract8sort_cmpIiEEiPKvS2_@Base 9.55.0~dfsg1-0ubuntu1
 _ZN9tesseract9AmbigSpec19compare_ambig_specsEPKvS2_@Base 9.55.0~dfsg1-0ubuntu1
 _ZN9tesseract9AmbigSpecC1Ev@Base 9.55.0~dfsg1-0ubuntu1
 _ZN9tesseract9AmbigSpecC2Ev@Base 9.55.0~dfsg1-0ubuntu1
 _ZN9tesseract9BLOCK_RESC1EbPNS_5BLOCKE@Base 9.55.0~dfsg1-0ubuntu1
 _ZN9tesseract9BLOCK_RESC2EbPNS_5BLOCKE@Base 9.55.0~dfsg1-0ubuntu1
 _ZN9tesseract9BitVector10SetAllTrueEv@Base 9.55.0~dfsg1-0ubuntu1
 _ZN9tesseract9BitVector10lsb_index_E@Base 9.55.0~dfsg1-0ubuntu1
 _ZN9tesseract9BitVector11DeSerializeEbP8_IO_FILE@Base 9.55.0~dfsg1-0ubuntu1
 _ZN9tesseract9BitVector11SetAllFalseEv@Base 9.55.0~dfsg1-0ubuntu1
 _ZN9tesseract9BitVector11SetSubtractERKS0_S2_@Base 9.55.0~dfsg1-0ubuntu1
 _ZN9tesseract9BitVector11lsb_eroded_E@Base 9.55.0~dfsg1-0ubuntu1
 _ZN9tesseract9BitVector14hamming_table_E@Base 9.55.0~dfsg1-0ubuntu1
 _ZN9tesseract9BitVector4InitEi@Base 9.55.0~dfsg1-0ubuntu1
 _ZN9tesseract9BitVector5AllocEi@Base 9.55.0~dfsg1-0ubuntu1
 _ZN9tesseract9BitVectorC1ERKS0_@Base 9.55.0~dfsg1-0ubuntu1
 _ZN9tesseract9BitVectorC1Ei@Base 9.55.0~dfsg1-0ubuntu1
 _ZN9tesseract9BitVectorC1Ev@Base 9.55.0~dfsg1-0ubuntu1
 _ZN9tesseract9BitVectorC2ERKS0_@Base 9.55.0~dfsg1-0ubuntu1
 _ZN9tesseract9BitVectorC2Ei@Base 9.55.0~dfsg1-0ubuntu1
 _ZN9tesseract9BitVectorC2Ev@Base 9.55.0~dfsg1-0ubuntu1
 _ZN9tesseract9BitVectorD1Ev@Base 9.55.0~dfsg1-0ubuntu1
 _ZN9tesseract9BitVectorD2Ev@Base 9.55.0~dfsg1-0ubuntu1
 _ZN9tesseract9BitVectoraNERKS0_@Base 9.55.0~dfsg1-0ubuntu1
 _ZN9tesseract9BitVectoraSERKS0_@Base 9.55.0~dfsg1-0ubuntu1
 _ZN9tesseract9BitVectoreOERKS0_@Base 9.55.0~dfsg1-0ubuntu1
 _ZN9tesseract9BitVectoroRERKS0_@Base 9.55.0~dfsg1-0ubuntu1
 _ZN9tesseract9BucketEndEifi@Base 9.55.0~dfsg1-0ubuntu1
 _ZN9tesseract9C_OUTLINE10chain_stepEi@Base 9.55.0~dfsg1-0ubuntu1
 _ZN9tesseract9C_OUTLINE11FakeOutlineERKNS_4TBOXEPNS_14C_OUTLINE_LISTE@Base 9.55.0~dfsg1-0ubuntu1
 _ZN9tesseract9C_OUTLINE11step_coordsE@Base 9.55.0~dfsg1-0ubuntu1
 _ZN9tesseract9C_OUTLINE17count_transitionsEi@Base 9.55.0~dfsg1-0ubuntu1
 _ZN9tesseract9C_OUTLINE18ComputeEdgeOffsetsEiP3Pix@Base 9.55.0~dfsg1-0ubuntu1
 _ZN9tesseract9C_OUTLINE20ComputeBinaryOffsetsEv@Base 9.55.0~dfsg1-0ubuntu1
 _ZN9tesseract9C_OUTLINE20RemoveSmallRecursiveEiPNS_12C_OUTLINE_ITE@Base 9.55.0~dfsg1-0ubuntu1
 _ZN9tesseract9C_OUTLINE4moveENS_6ICOORDE@Base 9.55.0~dfsg1-0ubuntu1
 _ZN9tesseract9C_OUTLINE7reverseEv@Base 9.55.0~dfsg1-0ubuntu1
 _ZN9tesseract9C_OUTLINE9deep_copyEPKS0_@Base 9.55.0~dfsg1-0ubuntu1
 _ZN9tesseract9C_OUTLINEC1ENS_6ICOORDEPNS_6DIR128Es@Base 9.55.0~dfsg1-0ubuntu1
 _ZN9tesseract9C_OUTLINEC1EPNS_9CRACKEDGEENS_6ICOORDES3_s@Base 9.55.0~dfsg1-0ubuntu1
 _ZN9tesseract9C_OUTLINEC1EPS0_NS_6FCOORDE@Base 9.55.0~dfsg1-0ubuntu1
 _ZN9tesseract9C_OUTLINEC2ENS_6ICOORDEPNS_6DIR128Es@Base 9.55.0~dfsg1-0ubuntu1
 _ZN9tesseract9C_OUTLINEC2EPNS_9CRACKEDGEENS_6ICOORDES3_s@Base 9.55.0~dfsg1-0ubuntu1
 _ZN9tesseract9C_OUTLINEC2EPS0_NS_6FCOORDE@Base 9.55.0~dfsg1-0ubuntu1
 _ZN9tesseract9C_OUTLINEaSERKS0_@Base 9.55.0~dfsg1-0ubuntu1
 _ZN9tesseract9DawgCache15GetSquishedDawgERKNS_6STRINGENS_12TessdataTypeEiPNS_15TessdataManagerE@Base 9.55.0~dfsg1-0ubuntu1
 _ZN9tesseract9FreeClassEPNS_12CLASS_STRUCTE@Base 9.55.0~dfsg1-0ubuntu1
 _ZN9tesseract9ICOORDELT9deep_copyEPKS0_@Base 9.55.0~dfsg1-0ubuntu1
 _ZN9tesseract9ImageData11DeSerializeEPNS_5TFileE@Base 9.55.0~dfsg1-0ubuntu1
 _ZN9tesseract9ImageData15SkipDeSerializeEPNS_5TFileE@Base 9.55.0~dfsg1-0ubuntu1
 _ZN9tesseract9ImageData5BuildEPKciS2_S2_iS2_S2_@Base 9.55.0~dfsg1-0ubuntu1
 _ZN9tesseract9ImageData6SetPixEP3Pix@Base 9.55.0~dfsg1-0ubuntu1
 _ZN9tesseract9ImageData8AddBoxesEPKc@Base 9.55.0~dfsg1-0ubuntu1
 _ZN9tesseract9ImageData8AddBoxesERKSt6vectorINS_4TBOXESaIS2_EERKS1_INS_6STRINGESaIS7_EERKS1_IiSaIiEE@Base 9.55.0~dfsg1-0ubuntu1
 _ZN9tesseract9ImageDataC1EbP3Pix@Base 9.55.0~dfsg1-0ubuntu1
 _ZN9tesseract9ImageDataC1Ev@Base 9.55.0~dfsg1-0ubuntu1
 _ZN9tesseract9ImageDataC2EbP3Pix@Base 9.55.0~dfsg1-0ubuntu1
 _ZN9tesseract9ImageDataC2Ev@Base 9.55.0~dfsg1-0ubuntu1
 _ZN9tesseract9ImageDataD1Ev@Base 9.55.0~dfsg1-0ubuntu1
 _ZN9tesseract9ImageDataD2Ev@Base 9.55.0~dfsg1-0ubuntu1
 _ZN9tesseract9ImageFind10ClipToByteEd@Base 9.55.0~dfsg1-0ubuntu1
 _ZN9tesseract9ImageFind10ComposeRGBEjjj@Base 9.55.0~dfsg1-0ubuntu1
 _ZN9tesseract9ImageFind10FindImagesEP3PixPNS_9DebugPixaE@Base 9.55.0~dfsg1-0ubuntu1
 _ZN9tesseract9ImageFind16BoundsWithinRectEP3PixPiS3_S3_S3_@Base 9.55.0~dfsg1-0ubuntu1
 _ZN9tesseract9ImageFind19BlankImageInBetweenERKNS_4TBOXES3_S3_RKNS_6FCOORDEP3Pix@Base 9.55.0~dfsg1-0ubuntu1
 _ZN9tesseract9ImageFind19FindImagePartitionsEP3PixRKNS_6FCOORDES5_PNS_8TO_BLOCKEPNS_7TabFindEPNS_9DebugPixaEPNS_16ColPartitionGridEPNS_17ColPartition_LISTE@Base 9.55.0~dfsg1-0ubuntu1
 _ZN9tesseract9ImageFind20pixNearlyRectangularEP3PixdddPiS3_S3_S3_@Base 9.55.0~dfsg1-0ubuntu1
 _ZN9tesseract9ImageFind21ColorDistanceFromLineEPKhS2_S2_@Base 9.55.0~dfsg1-0ubuntu1
 _ZN9tesseract9ImageFind22ComputeRectangleColorsERKNS_4TBOXEP3PixiS5_S5_S5_PhS6_@Base 9.55.0~dfsg1-0ubuntu1
 _ZN9tesseract9ImageFind23CountPixelsInRotatedBoxENS_4TBOXERKS1_RKNS_6FCOORDEP3Pix@Base 9.55.0~dfsg1-0ubuntu1
 _ZN9tesseract9ImageFind25ConnCompAndRectangularizeEP3PixPNS_9DebugPixaEPP4BoxaPP4Pixa@Base 9.55.0~dfsg1-0ubuntu1
 _ZN9tesseract9ImageFind29TransferImagePartsToImageMaskERKNS_6FCOORDEPNS_16ColPartitionGridEP3Pix@Base 9.55.0~dfsg1-0ubuntu1
 _ZN9tesseract9NetworkIO10ClipVectorEif@Base 9.55.0~dfsg1-0ubuntu1
 _ZN9tesseract9NetworkIO10GetPaddingEi@Base 9.55.0~dfsg1-0ubuntu1
 _ZN9tesseract9NetworkIO10ResizeXTo1ERKS0_i@Base 9.55.0~dfsg1-0ubuntu1
 _ZN9tesseract9NetworkIO11Copy2DImageEiP3PixffPNS_5TRandE@Base 9.55.0~dfsg1-0ubuntu1
 _ZN9tesseract9NetworkIO11CopyPackingERKS0_i@Base 9.55.0~dfsg1-0ubuntu1
 _ZN9tesseract9NetworkIO11ResizeToMapEbRKNS_9StrideMapEi@Base 9.55.0~dfsg1-0ubuntu1
 _ZN9tesseract9NetworkIO12ResizeScaledERKS0_iii@Base 9.55.0~dfsg1-0ubuntu1
 _ZN9tesseract9NetworkIO13AddAllToFloatERKS0_@Base 9.55.0~dfsg1-0ubuntu1
 _ZN9tesseract9NetworkIO13CopyUnpackingERKS0_ii@Base 9.55.0~dfsg1-0ubuntu1
 _ZN9tesseract9NetworkIO13WriteTimeStepEiPKd@Base 9.55.0~dfsg1-0ubuntu1
 _ZN9tesseract9NetworkIO14CombineOutputsERKS0_S2_@Base 9.55.0~dfsg1-0ubuntu1
 _ZN9tesseract9NetworkIO14SetActivationsEiif@Base 9.55.0~dfsg1-0ubuntu1
 _ZN9tesseract9NetworkIO15Copy1DGreyImageEiP3PixffPNS_5TRandE@Base 9.55.0~dfsg1-0ubuntu1
 _ZN9tesseract9NetworkIO15EnsureBestLabelEii@Base 9.55.0~dfsg1-0ubuntu1
 _ZN9tesseract9NetworkIO15MaxpoolBackwardERKS0_RKNS_16GENERIC_2D_ARRAYIiEE@Base 9.55.0~dfsg1-0ubuntu1
 _ZN9tesseract9NetworkIO15MaxpoolTimeStepEiRKS0_iPi@Base 9.55.0~dfsg1-0ubuntu1
 _ZN9tesseract9NetworkIO15ProbToCertaintyEf@Base 9.55.0~dfsg1-0ubuntu1
 _ZN9tesseract9NetworkIO16CopyTimeStepFromEiRKS0_i@Base 9.55.0~dfsg1-0ubuntu1
 _ZN9tesseract9NetworkIO17CopyWithXReversalERKS0_@Base 9.55.0~dfsg1-0ubuntu1
 _ZN9tesseract9NetworkIO17CopyWithYReversalERKS0_@Base 9.55.0~dfsg1-0ubuntu1
 _ZN9tesseract9NetworkIO17WriteTimeStepPartEiiiPKd@Base 9.55.0~dfsg1-0ubuntu1
 _ZN9tesseract9NetworkIO19CopyTimeStepGeneralEiiiRKS0_ii@Base 9.55.0~dfsg1-0ubuntu1
 _ZN9tesseract9NetworkIO19CopyWithXYTransposeERKS0_@Base 9.55.0~dfsg1-0ubuntu1
 _ZN9tesseract9NetworkIO19ZeroInvalidElementsEv@Base 9.55.0~dfsg1-0ubuntu1
 _ZN9tesseract9NetworkIO19ZeroTimeStepGeneralEiii@Base 9.55.0~dfsg1-0ubuntu1
 _ZN9tesseract9NetworkIO20SubtractAllFromFloatERKS0_@Base 9.55.0~dfsg1-0ubuntu1
 _ZN9tesseract9NetworkIO21ComputeCombinerDeltasERKS0_S2_@Base 9.55.0~dfsg1-0ubuntu1
 _ZN9tesseract9NetworkIO21CopyWithNormalizationERKS0_S2_@Base 9.55.0~dfsg1-0ubuntu1
 _ZN9tesseract9NetworkIO4ZeroEv@Base 9.55.0~dfsg1-0ubuntu1
 _ZN9tesseract9NetworkIO7CopyAllERKS0_@Base 9.55.0~dfsg1-0ubuntu1
 _ZN9tesseract9NetworkIO7FromPixERKNS_11StaticShapeEPK3PixPNS_5TRandE@Base 9.55.0~dfsg1-0ubuntu1
 _ZN9tesseract9NetworkIO8Resize2dEbii@Base 9.55.0~dfsg1-0ubuntu1
 _ZN9tesseract9NetworkIO8SetPixelEiiiff@Base 9.55.0~dfsg1-0ubuntu1
 _ZN9tesseract9NetworkIO9FromPixesERKNS_11StaticShapeERKSt6vectorIPK3PixSaIS7_EEPNS_5TRandE@Base 9.55.0~dfsg1-0ubuntu1
 _ZN9tesseract9NetworkIO9RandomizeEiiiPNS_5TRandE@Base 9.55.0~dfsg1-0ubuntu1
 _ZN9tesseract9OSResults10accumulateERKS0_@Base 9.55.0~dfsg1-0ubuntu1
 _ZN9tesseract9OSResults18update_best_scriptEi@Base 9.55.0~dfsg1-0ubuntu1
 _ZN9tesseract9OSResults20set_best_orientationEi@Base 9.55.0~dfsg1-0ubuntu1
 _ZN9tesseract9OSResults23update_best_orientationEv@Base 9.55.0~dfsg1-0ubuntu1
 _ZN9tesseract9OtsuStatsEPKiPiS2_@Base 9.55.0~dfsg1-0ubuntu1
 _ZN9tesseract9PARA_LIST9deep_copyEPKS0_PFPNS_4PARAEPKS3_E@Base 9.55.0~dfsg1-0ubuntu1
 _ZN9tesseract9StrideMap11TransposeXYEv@Base 9.55.0~dfsg1-0ubuntu1
 _ZN9tesseract9StrideMap14ReduceWidthTo1Ev@Base 9.55.0~dfsg1-0ubuntu1
 _ZN9tesseract9StrideMap18ComputeTIncrementsEv@Base 9.55.0~dfsg1-0ubuntu1
 _ZN9tesseract9StrideMap5Index15SetTFromIndicesEv@Base 9.55.0~dfsg1-0ubuntu1
 _ZN9tesseract9StrideMap5Index17InitToLastOfBatchEi@Base 9.55.0~dfsg1-0ubuntu1
 _ZN9tesseract9StrideMap5Index9AddOffsetEiNS_14FlexDimensionsE@Base 9.55.0~dfsg1-0ubuntu1
 _ZN9tesseract9StrideMap5Index9DecrementEv@Base 9.55.0~dfsg1-0ubuntu1
 _ZN9tesseract9StrideMap5Index9IncrementEv@Base 9.55.0~dfsg1-0ubuntu1
 _ZN9tesseract9StrideMap7ScaleXYEii@Base 9.55.0~dfsg1-0ubuntu1
 _ZN9tesseract9StrideMap9SetStrideERKSt6vectorISt4pairIiiESaIS3_EE@Base 9.55.0~dfsg1-0ubuntu1
 _ZN9tesseract9TabVector10AddPartnerEPS0_@Base 9.55.0~dfsg1-0ubuntu1
 _ZN9tesseract9TabVector10IsAPartnerEPKS0_@Base 9.55.0~dfsg1-0ubuntu1
 _ZN9tesseract9TabVector11ExtendToBoxEPNS_8BLOBNBOXE@Base 9.55.0~dfsg1-0ubuntu1
 _ZN9tesseract9TabVector16ApplyConstraintsEv@Base 9.55.0~dfsg1-0ubuntu1
 _ZN9tesseract9TabVector16GetSinglePartnerEv@Base 9.55.0~dfsg1-0ubuntu1
 _ZN9tesseract9TabVector16SetupConstraintsEv@Base 9.55.0~dfsg1-0ubuntu1
 _ZN9tesseract9TabVector16SortVectorsByKeyEPKvS2_@Base 9.55.0~dfsg1-0ubuntu1
 _ZN9tesseract9TabVector22FitAndEvaluateIfNeededERKNS_6ICOORDEPNS_7TabFindE@Base 9.55.0~dfsg1-0ubuntu1
 _ZN9tesseract9TabVector22MergeSimilarTabVectorsERKNS_6ICOORDEPNS_14TabVector_LISTEPNS_8BlobGridE@Base 9.55.0~dfsg1-0ubuntu1
 _ZN9tesseract9TabVector23SetupPartnerConstraintsEPS0_@Base 9.55.0~dfsg1-0ubuntu1
 _ZN9tesseract9TabVector23SetupPartnerConstraintsEv@Base 9.55.0~dfsg1-0ubuntu1
 _ZN9tesseract9TabVector23VerticalTextlinePartnerEv@Base 9.55.0~dfsg1-0ubuntu1
 _ZN9tesseract9TabVector3FitENS_6ICOORDEb@Base 9.55.0~dfsg1-0ubuntu1
 _ZN9tesseract9TabVector5DebugEPKc@Base 9.55.0~dfsg1-0ubuntu1
 _ZN9tesseract9TabVector5PrintEPKc@Base 9.55.0~dfsg1-0ubuntu1
 _ZN9tesseract9TabVector6DeleteEPS0_@Base 9.55.0~dfsg1-0ubuntu1
 _ZN9tesseract9TabVector6RotateERKNS_6FCOORDE@Base 9.55.0~dfsg1-0ubuntu1
 _ZN9tesseract9TabVector7SetYEndEi@Base 9.55.0~dfsg1-0ubuntu1
 _ZN9tesseract9TabVector8EvaluateERKNS_6ICOORDEPNS_7TabFindE@Base 9.55.0~dfsg1-0ubuntu1
 _ZN9tesseract9TabVector9FitVectorENS_12TabAlignmentENS_6ICOORDEiiPNS_14BLOBNBOX_CLISTEPiS5_@Base 9.55.0~dfsg1-0ubuntu1
 _ZN9tesseract9TabVector9MergeWithERKNS_6ICOORDEPS0_@Base 9.55.0~dfsg1-0ubuntu1
 _ZN9tesseract9TabVector9SetYStartEi@Base 9.55.0~dfsg1-0ubuntu1
 _ZN9tesseract9TabVectorC1ERKS0_NS_12TabAlignmentERKNS_6ICOORDEPNS_8BLOBNBOXE@Base 9.55.0~dfsg1-0ubuntu1
 _ZN9tesseract9TabVectorC1EiiNS_12TabAlignmentEPNS_14BLOBNBOX_CLISTE@Base 9.55.0~dfsg1-0ubuntu1
 _ZN9tesseract9TabVectorC2ERKS0_NS_12TabAlignmentERKNS_6ICOORDEPNS_8BLOBNBOXE@Base 9.55.0~dfsg1-0ubuntu1
 _ZN9tesseract9TabVectorC2EiiNS_12TabAlignmentEPNS_14BLOBNBOX_CLISTE@Base 9.55.0~dfsg1-0ubuntu1
 _ZN9tesseract9TanhTableE@Base 9.55.0~dfsg1-0ubuntu1
 _ZN9tesseract9Tesseract10ApplyBoxesEPKcbPNS_10BLOCK_LISTE@Base 9.55.0~dfsg1-0ubuntu1
 _ZN9tesseract9Tesseract10dump_wordsERNS_13WERD_RES_LISTEssb@Base 9.55.0~dfsg1-0ubuntu1
 _ZN9tesseract9Tesseract10recog_wordEPNS_8WERD_RESE@Base 9.55.0~dfsg1-0ubuntu1
 _ZN9tesseract9Tesseract11AutoPageSegENS_11PageSegModeEPNS_10BLOCK_LISTEPNS_13TO_BLOCK_LISTEPNS_13BLOBNBOX_LISTEPS0_PNS_9OSResultsE@Base 9.55.0~dfsg1-0ubuntu1
 _ZN9tesseract9Tesseract11GetLineDataERKNS_4TBOXERKSt6vectorIS1_SaIS1_EERKS4_INS_6STRINGESaIS9_EEiiRKNS_5BLOCKE@Base 9.55.0~dfsg1-0ubuntu1
 _ZN9tesseract9Tesseract11SearchWordsEPNS_13PointerVectorINS_8WERD_RESEEE@Base 9.55.0~dfsg1-0ubuntu1
 _ZN9tesseract9Tesseract11SegmentPageEPKcPNS_10BLOCK_LISTEPS0_PNS_9OSResultsE@Base 9.55.0~dfsg1-0ubuntu1
 _ZN9tesseract9Tesseract11alpha_countEPKcS2_@Base 9.55.0~dfsg1-0ubuntu1
 _ZN9tesseract9Tesseract11blamer_passEPNS_8PAGE_RESE@Base 9.55.0~dfsg1-0ubuntu1
 _ZN9tesseract9Tesseract11non_0_digitERKNS_10UNICHARSETEi@Base 9.55.0~dfsg1-0ubuntu1
 _ZN9tesseract9Tesseract11non_O_upperERKNS_10UNICHARSETEi@Base 9.55.0~dfsg1-0ubuntu1
 _ZN9tesseract9Tesseract11output_passERNS_11PAGE_RES_ITEPKNS_4TBOXE@Base 9.55.0~dfsg1-0ubuntu1
 _ZN9tesseract9Tesseract11word_dumperEPNS_11PAGE_RES_ITE@Base 9.55.0~dfsg1-0ubuntu1
 _ZN9tesseract9Tesseract12count_alphasERKNS_11WERD_CHOICEE@Base 9.55.0~dfsg1-0ubuntu1
 _ZN9tesseract9Tesseract12fix_rep_charEPNS_11PAGE_RES_ITE@Base 9.55.0~dfsg1-0ubuntu1
 _ZN9tesseract9Tesseract12flip_hyphensEPNS_8WERD_RESE@Base 9.55.0~dfsg1-0ubuntu1
 _ZN9tesseract9Tesseract12garbage_wordEPNS_8WERD_RESEb@Base 9.55.0~dfsg1-0ubuntu1
 _ZN9tesseract9Tesseract12get_rep_charEPNS_8WERD_RESE@Base 9.55.0~dfsg1-0ubuntu1
 _ZN9tesseract9Tesseract12reject_I_1_LEPNS_8WERD_RESE@Base 9.55.0~dfsg1-0ubuntu1
 _ZN9tesseract9Tesseract12tilde_crunchERNS_11PAGE_RES_ITE@Base 9.55.0~dfsg1-0ubuntu1
 _ZN9tesseract9Tesseract12tilde_deleteERNS_11PAGE_RES_ITE@Base 9.55.0~dfsg1-0ubuntu1
 _ZN9tesseract9Tesseract13PreenXHeightsEPNS_10BLOCK_LISTE@Base 9.55.0~dfsg1-0ubuntu1
 _ZN9tesseract9Tesseract13SearchForTextEPKNS_13GenericVectorIPNS_16BLOB_CHOICE_LISTEEEiiRKNS1_IiEEifPS7_PfSA_@Base 9.55.0~dfsg1-0ubuntu1
 _ZN9tesseract9Tesseract13end_tesseractEv@Base 9.55.0~dfsg1-0ubuntu1
 _ZN9tesseract9Tesseract13failure_countEPNS_8WERD_RESE@Base 9.55.0~dfsg1-0ubuntu1
 _ZN9tesseract9Tesseract13write_resultsERNS_11PAGE_RES_ITEcb@Base 9.55.0~dfsg1-0ubuntu1
 _ZN9tesseract9Tesseract14SetupWordPassNEiPNS_8WordDataE@Base 9.55.0~dfsg1-0ubuntu1
 _ZN9tesseract9Tesseract14TrainFromBoxesERKSt6vectorINS_4TBOXESaIS2_EERKS1_INS_6STRINGESaIS7_EEPNS_10BLOCK_LISTEPNS_12DocumentDataE@Base 9.55.0~dfsg1-0ubuntu1
 _ZN9tesseract9Tesseract14check_debug_ptEPNS_8WERD_RESEi@Base 9.55.0~dfsg1-0ubuntu1
 _ZN9tesseract9Tesseract14dont_allow_1IlEPNS_8WERD_RESE@Base 9.55.0~dfsg1-0ubuntu1
 _ZN9tesseract9Tesseract14fix_sp_fp_wordERNS_11WERD_RES_ITEPNS_3ROWEPNS_5BLOCKE@Base 9.55.0~dfsg1-0ubuntu1
 _ZN9tesseract9Tesseract14init_tesseractEPKcS2_S2_NS_13OcrEngineModeEPPciPKSt6vectorINSt7__cxx1112basic_stringIcSt11char_traitsIcESaIcEEESaISC_EESG_bPNS_15TessdataManagerE@Base 9.55.0~dfsg1-0ubuntu1
 _ZN9tesseract9Tesseract14noise_outlinesEPNS_5TWERDE@Base 9.55.0~dfsg1-0ubuntu1
 _ZN9tesseract9Tesseract14safe_dict_wordEPKNS_8WERD_RESE@Base 9.55.0~dfsg1-0ubuntu1
 _ZN9tesseract9Tesseract14set_word_fontsEPNS_8WERD_RESE@Base 9.55.0~dfsg1-0ubuntu1
 _ZN9tesseract9Tesseract14unrej_good_chsEPNS_8WERD_RESE@Base 9.55.0~dfsg1-0ubuntu1
 _ZN9tesseract9Tesseract14word_adaptableEPNS_8WERD_RESEt@Base 9.55.0~dfsg1-0ubuntu1
 _ZN9tesseract9Tesseract14word_deletableEPNS_8WERD_RESERs@Base 9.55.0~dfsg1-0ubuntu1
 _ZN9tesseract9Tesseract15CountMisfitTopsEPNS_8WERD_RESE@Base 9.55.0~dfsg1-0ubuntu1
 _ZN9tesseract9Tesseract15ReportFailedBoxEiNS_4TBOXEPKcS3_@Base 9.55.0~dfsg1-0ubuntu1
 _ZN9tesseract9Tesseract15SetupApplyBoxesERKSt6vectorINS_4TBOXESaIS2_EEPNS_10BLOCK_LISTE@Base 9.55.0~dfsg1-0ubuntu1
 _ZN9tesseract9Tesseract15count_alphanumsEPNS_8WERD_RESE@Base 9.55.0~dfsg1-0ubuntu1
 _ZN9tesseract9Tesseract15count_alphanumsERKNS_11WERD_CHOICEE@Base 9.55.0~dfsg1-0ubuntu1
 _ZN9tesseract9Tesseract15make_reject_mapEPNS_8WERD_RESEPNS_3ROWEs@Base 9.55.0~dfsg1-0ubuntu1
 _ZN9tesseract9Tesseract15recog_all_wordsEPNS_8PAGE_RESEPNS_10ETEXT_DESCEPKNS_4TBOXEPKci@Base 9.55.0~dfsg1-0ubuntu1
 _ZN9tesseract9Tesseract15script_pos_passEPNS_8PAGE_RESE@Base 9.55.0~dfsg1-0ubuntu1
 _ZN9tesseract9Tesseract16ApplyBoxTrainingERKNS_6STRINGEPNS_8PAGE_RESE@Base 9.55.0~dfsg1-0ubuntu1
 _ZN9tesseract9Tesseract16FindSegmentationERKNS_13GenericVectorIiEEPNS_8WERD_RESE@Base 9.55.0~dfsg1-0ubuntu1
 _ZN9tesseract9Tesseract16ResegmentCharBoxEPNS_8PAGE_RESEPKNS_4TBOXERS4_S5_PKc@Base 9.55.0~dfsg1-0ubuntu1
 _ZN9tesseract9Tesseract16ResegmentWordBoxEPNS_10BLOCK_LISTERKNS_4TBOXEPS4_PKc@Base 9.55.0~dfsg1-0ubuntu1
 _ZN9tesseract9Tesseract16blob_noise_scoreEPNS_5TBLOBE@Base 9.55.0~dfsg1-0ubuntu1
 _ZN9tesseract9Tesseract16fix_fuzzy_spacesEPNS_10ETEXT_DESCEiPNS_8PAGE_RESE@Base 9.55.0~dfsg1-0ubuntu1
 _ZN9tesseract9Tesseract16one_ell_conflictEPNS_8WERD_RESEb@Base 9.55.0~dfsg1-0ubuntu1
 _ZN9tesseract9Tesseract16read_config_fileEPKcNS_18SetParamConstraintE@Base 9.55.0~dfsg1-0ubuntu1
 _ZN9tesseract9Tesseract16rejection_passesEPNS_8PAGE_RESEPNS_10ETEXT_DESCEPKNS_4TBOXEPKc@Base 9.55.0~dfsg1-0ubuntu1
 _ZN9tesseract9Tesseract16worst_noise_blobEPNS_8WERD_RESEPf@Base 9.55.0~dfsg1-0ubuntu1
 _ZN9tesseract9Tesseract17LSTMRecognizeWordERKNS_5BLOCKEPNS_3ROWEPNS_8WERD_RESEPNS_13PointerVectorIS6_EE@Base 9.55.0~dfsg1-0ubuntu1
 _ZN9tesseract9Tesseract17MaximallyChopWordERKSt6vectorINS_4TBOXESaIS2_EEPNS_5BLOCKEPNS_3ROWEPNS_8WERD_RESE@Base 9.55.0~dfsg1-0ubuntu1
 _ZN9tesseract9Tesseract17PrepareForPagesegEv@Base 9.55.0~dfsg1-0ubuntu1
 _ZN9tesseract9Tesseract17PrepareForTessOCREPNS_10BLOCK_LISTEPS0_PNS_9OSResultsE@Base 9.55.0~dfsg1-0ubuntu1
 _ZN9tesseract9Tesseract17PrerecAllWordsParERKSt6vectorINS_8WordDataESaIS2_EE@Base 9.55.0~dfsg1-0ubuntu1
 _ZN9tesseract9Tesseract17ProcessTargetWordERKNS_4TBOXES3_PKci@Base 9.55.0~dfsg1-0ubuntu1
 _ZN9tesseract9Tesseract17RetryWithLanguageERKNS_8WordDataEMS0_FvS3_PPNS_8WERD_RESEPNS_13PointerVectorIS4_EEEbS6_S9_@Base 9.55.0~dfsg1-0ubuntu1
 _ZN9tesseract9Tesseract17SetEquationDetectEPNS_14EquationDetectE@Base 9.55.0~dfsg1-0ubuntu1
 _ZN9tesseract9Tesseract17TrainedXheightFixEPNS_8WERD_RESEPNS_5BLOCKEPNS_3ROWE@Base 9.55.0~dfsg1-0ubuntu1
 _ZN9tesseract9Tesseract17eval_word_spacingERNS_13WERD_RES_LISTE@Base 9.55.0~dfsg1-0ubuntu1
 _ZN9tesseract9Tesseract17init_tesseract_lmEPKcS2_S2_PNS_15TessdataManagerE@Base 9.55.0~dfsg1-0ubuntu1
 _ZN9tesseract9Tesseract17match_word_pass_nEiPNS_8WERD_RESEPNS_3ROWEPNS_5BLOCKE@Base 9.55.0~dfsg1-0ubuntu1
 _ZN9tesseract9Tesseract17recog_interactiveEPNS_11PAGE_RES_ITE@Base 9.55.0~dfsg1-0ubuntu1
 _ZN9tesseract9Tesseract17recog_pseudo_wordEPNS_8PAGE_RESERNS_4TBOXE@Base 9.55.0~dfsg1-0ubuntu1
 _ZN9tesseract9Tesseract17reject_edge_blobsEPNS_8WERD_RESE@Base 9.55.0~dfsg1-0ubuntu1
 _ZN9tesseract9Tesseract17set_unlv_suspectsEPNS_8WERD_RESE@Base 9.55.0~dfsg1-0ubuntu1
 _ZN9tesseract9Tesseract17tess_add_doc_wordEPNS_11WERD_CHOICEE@Base 9.55.0~dfsg1-0ubuntu1
 _ZN9tesseract9Tesseract17word_blob_qualityEPNS_8WERD_RESE@Base 9.55.0~dfsg1-0ubuntu1
 _ZN9tesseract9Tesseract17word_char_qualityEPNS_8WERD_RESEPsS3_@Base 9.55.0~dfsg1-0ubuntu1
 _ZN9tesseract9Tesseract17word_outline_errsEPNS_8WERD_RESE@Base 9.55.0~dfsg1-0ubuntu1
 _ZN9tesseract9Tesseract18ClassifyBlobAsWordEiPNS_11PAGE_RES_ITEPNS_6C_BLOBEPNS_6STRINGEPf@Base 9.55.0~dfsg1-0ubuntu1
 _ZN9tesseract9Tesseract18ReassignDiacriticsEiPNS_11PAGE_RES_ITEPb@Base 9.55.0~dfsg1-0ubuntu1
 _ZN9tesseract9Tesseract18RecogAllWordsPassNEiPNS_10ETEXT_DESCEPNS_11PAGE_RES_ITEPSt6vectorINS_8WordDataESaIS6_EE@Base 9.55.0~dfsg1-0ubuntu1
 _ZN9tesseract9Tesseract18ReportXhtFixResultEbfPNS_8WERD_RESES2_@Base 9.55.0~dfsg1-0ubuntu1
 _ZN9tesseract9Tesseract18SetupAllWordsPassNEiPKNS_4TBOXEPKcPNS_8PAGE_RESEPSt6vectorINS_8WordDataESaIS9_EE@Base 9.55.0~dfsg1-0ubuntu1
 _ZN9tesseract9Tesseract18count_outline_errsEcs@Base 9.55.0~dfsg1-0ubuntu1
 _ZN9tesseract9Tesseract19ParseLanguageStringEPKcPSt6vectorINSt7__cxx1112basic_stringIcSt11char_traitsIcESaIcEEESaIS9_EESC_@Base 9.55.0~dfsg1-0ubuntu1
 _ZN9tesseract9Tesseract19TrainLineRecognizerEPKcRKNS_6STRINGEPNS_10BLOCK_LISTE@Base 9.55.0~dfsg1-0ubuntu1
 _ZN9tesseract9Tesseract19classify_word_pass1ERKNS_8WordDataEPPNS_8WERD_RESEPNS_13PointerVectorIS4_EE@Base 9.55.0~dfsg1-0ubuntu1
 _ZN9tesseract9Tesseract19classify_word_pass2ERKNS_8WordDataEPPNS_8WERD_RESEPNS_13PointerVectorIS4_EE@Base 9.55.0~dfsg1-0ubuntu1
 _ZN9tesseract9Tesseract19init_recog_trainingEPKc@Base 9.55.0~dfsg1-0ubuntu1
 _ZN9tesseract9Tesseract19match_current_wordsERNS_13WERD_RES_LISTEPNS_3ROWEPNS_5BLOCKE@Base 9.55.0~dfsg1-0ubuntu1
 _ZN9tesseract9Tesseract19tess_segment_pass_nEiPNS_8WERD_RESE@Base 9.55.0~dfsg1-0ubuntu1
 _ZN9tesseract9Tesseract20CorrectClassifyWordsEPNS_8PAGE_RESE@Base 9.55.0~dfsg1-0ubuntu1
 _ZN9tesseract9Tesseract20SetBlackAndWhitelistEv@Base 9.55.0~dfsg1-0ubuntu1
 _ZN9tesseract9Tesseract20SubAndSuperscriptFixEPNS_8WERD_RESE@Base 9.55.0~dfsg1-0ubuntu1
 _ZN9tesseract9Tesseract20TestNewNormalizationEiffPNS_8WERD_RESEPNS_5BLOCKEPNS_3ROWE@Base 9.55.0~dfsg1-0ubuntu1
 _ZN9tesseract9Tesseract20TrySuperscriptSplitsEifNS_9ScriptPosEifS1_PNS_8WERD_RESEPbPiS5_@Base 9.55.0~dfsg1-0ubuntu1
 _ZN9tesseract9Tesseract20convert_bad_unlv_chsEPNS_8WERD_RESE@Base 9.55.0~dfsg1-0ubuntu1
 _ZN9tesseract9Tesseract20first_alphanum_indexEPKcS2_@Base 9.55.0~dfsg1-0ubuntu1
 _ZN9tesseract9Tesseract20fix_fuzzy_space_listERNS_13WERD_RES_LISTEPNS_3ROWEPNS_5BLOCKE@Base 9.55.0~dfsg1-0ubuntu1
 _ZN9tesseract9Tesseract20fix_noisy_space_listERNS_13WERD_RES_LISTEPNS_3ROWEPNS_5BLOCKE@Base 9.55.0~dfsg1-0ubuntu1
 _ZN9tesseract9Tesseract20fp_eval_word_spacingERNS_13WERD_RES_LISTE@Base 9.55.0~dfsg1-0ubuntu1
 _ZN9tesseract9Tesseract20recog_word_recursiveEPNS_8WERD_RESE@Base 9.55.0~dfsg1-0ubuntu1
 _ZN9tesseract9Tesseract20split_and_recog_wordEPNS_8WERD_RESE@Base 9.55.0~dfsg1-0ubuntu1
 _ZN9tesseract9Tesseract20terrible_word_crunchEPNS_8WERD_RESENS_13GARBAGE_LEVELE@Base 9.55.0~dfsg1-0ubuntu1
 _ZN9tesseract9Tesseract20tess_acceptable_wordEPNS_8WERD_RESE@Base 9.55.0~dfsg1-0ubuntu1
 _ZN9tesseract9Tesseract21SetupUniversalFontIdsEv@Base 9.55.0~dfsg1-0ubuntu1
 _ZN9tesseract9Tesseract21first_alphanum_offsetEPKcS2_@Base 9.55.0~dfsg1-0ubuntu1
 _ZN9tesseract9Tesseract21font_recognition_passEPNS_8PAGE_RESE@Base 9.55.0~dfsg1-0ubuntu1
 _ZN9tesseract9Tesseract21potential_word_crunchEPNS_8WERD_RESENS_13GARBAGE_LEVELEb@Base 9.55.0~dfsg1-0ubuntu1
 _ZN9tesseract9Tesseract21reject_mostly_rejectsEPNS_8WERD_RESE@Base 9.55.0~dfsg1-0ubuntu1
 _ZN9tesseract9Tesseract22acceptable_word_stringERKNS_10UNICHARSETEPKcS5_@Base 9.55.0~dfsg1-0ubuntu1
 _ZN9tesseract9Tesseract22bigram_correction_passEPNS_8PAGE_RESE@Base 9.55.0~dfsg1-0ubuntu1
 _ZN9tesseract9Tesseract22digit_or_numeric_punctEPNS_8WERD_RESEi@Base 9.55.0~dfsg1-0ubuntu1
 _ZN9tesseract9Tesseract22process_selected_wordsEPNS_8PAGE_RESERNS_4TBOXEMS0_FbPNS_11PAGE_RES_ITEE@Base 9.55.0~dfsg1-0ubuntu1
 _ZN9tesseract9Tesseract23ConvertStringToUnicharsEPKcPNS_13GenericVectorIiEE@Base 9.55.0~dfsg1-0ubuntu1
 _ZN9tesseract9Tesseract23ResetAdaptiveClassifierEv@Base 9.55.0~dfsg1-0ubuntu1
 _ZN9tesseract9Tesseract23ResetDocumentDictionaryEv@Base 9.55.0~dfsg1-0ubuntu1
 _ZN9tesseract9Tesseract23doc_and_block_rejectionERNS_11PAGE_RES_ITEb@Base 9.55.0~dfsg1-0ubuntu1
 _ZN9tesseract9Tesseract23init_tesseract_internalEPKcS2_S2_NS_13OcrEngineModeEPPciPKSt6vectorINSt7__cxx1112basic_stringIcSt11char_traitsIcESaIcEEESaISC_EESG_bPNS_15TessdataManagerE@Base 9.55.0~dfsg1-0ubuntu1
 _ZN9tesseract9Tesseract23quality_based_rejectionERNS_11PAGE_RES_ITEb@Base 9.55.0~dfsg1-0ubuntu1
 _ZN9tesseract9Tesseract23repeated_nonalphanum_wdEPNS_8WERD_RESEPNS_3ROWE@Base 9.55.0~dfsg1-0ubuntu1
 _ZN9tesseract9Tesseract24ClassifyBlobPlusOutlinesERKSt6vectorIbSaIbEERKNS_13GenericVectorIPNS_9C_OUTLINEEEEiPNS_11PAGE_RES_ITEPNS_6C_BLOBEPNS_6STRINGE@Base 9.55.0~dfsg1-0ubuntu1
 _ZN9tesseract9Tesseract24ComputeCompatibleXheightEPNS_8WERD_RESEPf@Base 9.55.0~dfsg1-0ubuntu1
 _ZN9tesseract9Tesseract24acceptable_number_stringEPKcS2_@Base 9.55.0~dfsg1-0ubuntu1
 _ZN9tesseract9Tesseract24break_noisiest_blob_wordERNS_13WERD_RES_LISTE@Base 9.55.0~dfsg1-0ubuntu1
 _ZN9tesseract9Tesseract24init_tesseract_lang_dataEPKcS2_S2_NS_13OcrEngineModeEPPciPKSt6vectorINSt7__cxx1112basic_stringIcSt11char_traitsIcESaIcEEESaISC_EESG_bPNS_15TessdataManagerE@Base 9.55.0~dfsg1-0ubuntu1
 _ZN9tesseract9Tesseract24recog_training_segmentedEPKcPNS_8PAGE_RESEPVNS_10ETEXT_DESCEP8_IO_FILE@Base 9.55.0~dfsg1-0ubuntu1
 _ZN9tesseract9Tesseract24unrej_good_quality_wordsERNS_11PAGE_RES_ITE@Base 9.55.0~dfsg1-0ubuntu1
 _ZN9tesseract9Tesseract25ReSegmentByClassificationEPNS_8PAGE_RESE@Base 9.55.0~dfsg1-0ubuntu1
 _ZN9tesseract9Tesseract25fixspace_thinks_word_doneEPNS_8WERD_RESE@Base 9.55.0~dfsg1-0ubuntu1
 _ZN9tesseract9Tesseract25word_contains_non_1_digitEPKcS2_@Base 9.55.0~dfsg1-0ubuntu1
 _ZN9tesseract9Tesseract26AssignDiacriticsToNewBlobsERKNS_13GenericVectorIPNS_9C_OUTLINEEEEiPNS_4WERDEPNS_11PAGE_RES_ITEPNS1_IbEEPNS1_IPNS_6C_BLOBEEE@Base 9.55.0~dfsg1-0ubuntu1
 _ZN9tesseract9Tesseract26ambigs_classify_and_outputEPKcPNS_11PAGE_RES_ITEP8_IO_FILE@Base 9.55.0~dfsg1-0ubuntu1
 _ZN9tesseract9Tesseract26classify_word_and_languageEiPNS_11PAGE_RES_ITEPNS_8WordDataE@Base 9.55.0~dfsg1-0ubuntu1
 _ZN9tesseract9Tesseract26dictionary_correction_passEPNS_8PAGE_RESE@Base 9.55.0~dfsg1-0ubuntu1
 _ZN9tesseract9Tesseract27SelectGoodDiacriticOutlinesEifPNS_11PAGE_RES_ITEPNS_6C_BLOBERKNS_13GenericVectorIPNS_9C_OUTLINEEEEiPSt6vectorIbSaIbEE@Base 9.55.0~dfsg1-0ubuntu1
 _ZN9tesseract9Tesseract30GetSubAndSuperscriptCandidatesEPKNS_8WERD_RESEPiPNS_9ScriptPosEPfS4_S6_S7_S7_S7_@Base 9.55.0~dfsg1-0ubuntu1
 _ZN9tesseract9Tesseract32SetupPageSegAndDetectOrientationENS_11PageSegModeEPNS_10BLOCK_LISTEPS0_PNS_9OSResultsEPNS_13TO_BLOCK_LISTEPP3PixSB_@Base 9.55.0~dfsg1-0ubuntu1
 _ZN9tesseract9Tesseract34AssignDiacriticsToOverlappingBlobsERKNS_13GenericVectorIPNS_9C_OUTLINEEEEiPNS_4WERDEPNS_11PAGE_RES_ITEPNS1_IbEESC_PNS1_IPNS_6C_BLOBEEE@Base 9.55.0~dfsg1-0ubuntu1
 _ZN9tesseract9Tesseract5ClearEv@Base 9.55.0~dfsg1-0ubuntu1
 _ZN9tesseract9Tesseract6TidyUpEPNS_8PAGE_RESE@Base 9.55.0~dfsg1-0ubuntu1
 _ZN9tesseract9Tesseract7flip_0OEPNS_8WERD_RESE@Base 9.55.0~dfsg1-0ubuntu1
 _ZN9tesseract9Tesseract7getDictEv@Base 9.55.0~dfsg1-0ubuntu1
 _ZN9tesseract9Tesseract8set_doneEPNS_8WERD_RESEs@Base 9.55.0~dfsg1-0ubuntu1
 _ZN9tesseract9TesseractC1Ev@Base 9.55.0~dfsg1-0ubuntu1
 _ZN9tesseract9TesseractC2Ev@Base 9.55.0~dfsg1-0ubuntu1
 _ZN9tesseract9TesseractD0Ev@Base 9.55.0~dfsg1-0ubuntu1
 _ZN9tesseract9TesseractD1Ev@Base 9.55.0~dfsg1-0ubuntu1
 _ZN9tesseract9TesseractD2Ev@Base 9.55.0~dfsg1-0ubuntu1
 _ZN9tesseract9WERD_LIST9deep_copyEPKS0_PFPNS_4WERDEPKS3_E@Base 9.55.0~dfsg1-0ubuntu1
 _ZN9tesseract9make_rowsENS_6ICOORDEPNS_13TO_BLOCK_LISTE@Base 9.55.0~dfsg1-0ubuntu1
 _ZN9tesseract9os_detectEPNS_13TO_BLOCK_LISTEPNS_9OSResultsEPNS_9TesseractE@Base 9.55.0~dfsg1-0ubuntu1
 _ZN9tesseract9push_lastEPNS_8list_recEPv@Base 9.55.0~dfsg1-0ubuntu1
 _ZN9tesseract9read_infoEPNS_5TFileEPNS_8FontInfoE@Base 9.55.0~dfsg1-0ubuntu1
 _ZN9tesseract9row_wordsEPNS_8TO_BLOCKEPNS_6TO_ROWEiNS_6FCOORDEb@Base 9.55.0~dfsg1-0ubuntu1
 _ZN9tesseract9write_setEP8_IO_FILERKNS_7FontSetE@Base 9.55.0~dfsg1-0ubuntu1
 _ZN9tesseractaNERNS_4TBOXERKS0_@Base 9.55.0~dfsg1-0ubuntu1
 _ZN9tesseractpLERNS_4TBOXERKS0_@Base 9.55.0~dfsg1-0ubuntu1
 _ZNK9tesseract10ColSegment8BoxColorEv@Base 9.55.0~dfsg1-0ubuntu1
 _ZNK9tesseract10DetLineFit23NumberOfMisfittedPointsEd@Base 9.55.0~dfsg1-0ubuntu1
 _ZNK9tesseract10DetLineFit33SufficientPointsForIndependentFitEv@Base 9.55.0~dfsg1-0ubuntu1
 _ZNK9tesseract10RecodeNode5PrintEiRKNS_10UNICHARSETEi@Base 9.55.0~dfsg1-0ubuntu1
 _ZNK9tesseract10ShapeTable10CommonFontEii@Base 9.55.0~dfsg1-0ubuntu1
 _ZNK9tesseract10ShapeTable10SummaryStrEv@Base 9.55.0~dfsg1-0ubuntu1
 _ZNK9tesseract10ShapeTable13AlreadyMergedEii@Base 9.55.0~dfsg1-0ubuntu1
 _ZNK9tesseract10ShapeTable13EqualUnicharsEii@Base 9.55.0~dfsg1-0ubuntu1
 _ZNK9tesseract10ShapeTable13SubsetUnicharEii@Base 9.55.0~dfsg1-0ubuntu1
 _ZNK9tesseract10ShapeTable14CommonUnicharsEii@Base 9.55.0~dfsg1-0ubuntu1
 _ZNK9tesseract10ShapeTable14MaxNumUnicharsEv@Base 9.55.0~dfsg1-0ubuntu1
 _ZNK9tesseract10ShapeTable15MasterFontCountEi@Base 9.55.0~dfsg1-0ubuntu1
 _ZNK9tesseract10ShapeTable15NumMasterShapesEv@Base 9.55.0~dfsg1-0ubuntu1
 _ZNK9tesseract10ShapeTable17AddShapeToResultsERKNS_11ShapeRatingEPNS_13GenericVectorIiEEPSt6vectorINS_13UnicharRatingESaIS8_EE@Base 9.55.0~dfsg1-0ubuntu1
 _ZNK9tesseract10ShapeTable18MasterUnicharCountEi@Base 9.55.0~dfsg1-0ubuntu1
 _ZNK9tesseract10ShapeTable18MergeEqualUnicharsEiii@Base 9.55.0~dfsg1-0ubuntu1
 _ZNK9tesseract10ShapeTable18MergeSubsetUnicharEiii@Base 9.55.0~dfsg1-0ubuntu1
 _ZNK9tesseract10ShapeTable18MergedUnicharCountEii@Base 9.55.0~dfsg1-0ubuntu1
 _ZNK9tesseract10ShapeTable19AddUnicharToResultsEifPNS_13GenericVectorIiEEPSt6vectorINS_13UnicharRatingESaIS5_EE@Base 9.55.0~dfsg1-0ubuntu1
 _ZNK9tesseract10ShapeTable19AnyMultipleUnicharsEv@Base 9.55.0~dfsg1-0ubuntu1
 _ZNK9tesseract10ShapeTable22GetFirstUnicharAndFontEiPiS1_@Base 9.55.0~dfsg1-0ubuntu1
 _ZNK9tesseract10ShapeTable22MasterDestinationIndexEi@Base 9.55.0~dfsg1-0ubuntu1
 _ZNK9tesseract10ShapeTable8DebugStrEi@Base 9.55.0~dfsg1-0ubuntu1
 _ZNK9tesseract10ShapeTable8NumFontsEv@Base 9.55.0~dfsg1-0ubuntu1
 _ZNK9tesseract10ShapeTable9FindShapeEii@Base 9.55.0~dfsg1-0ubuntu1
 _ZNK9tesseract10ShapeTable9SerializeEP8_IO_FILE@Base 9.55.0~dfsg1-0ubuntu1
 _ZNK9tesseract10UNICHARMAP13unichar_to_idEPKci@Base 9.55.0~dfsg1-0ubuntu1
 _ZNK9tesseract10UNICHARMAP8containsEPKci@Base 9.55.0~dfsg1-0ubuntu1
 _ZNK9tesseract10UNICHARMAP8minmatchEPKc@Base 9.55.0~dfsg1-0ubuntu1
 _ZNK9tesseract10UNICHARSET12get_chartypeEi@Base 9.55.0~dfsg1-0ubuntu1
 _ZNK9tesseract10UNICHARSET13SizesDistinctEii@Base 9.55.0~dfsg1-0ubuntu1
 _ZNK9tesseract10UNICHARSET13encode_stringEPKcbPSt6vectorIiSaIiEEPS3_IcSaIcEEPi@Base 9.55.0~dfsg1-0ubuntu1
 _ZNK9tesseract10UNICHARSET13encode_stringEPKciiPSt6vectorIiSaIiEEPS3_IcSaIcEEPiS6_S9_@Base 9.55.0~dfsg1-0ubuntu1
 _ZNK9tesseract10UNICHARSET13get_isprivateEi@Base 9.55.0~dfsg1-0ubuntu1
 _ZNK9tesseract10UNICHARSET13id_to_unicharEi@Base 9.55.0~dfsg1-0ubuntu1
 _ZNK9tesseract10UNICHARSET13unichar_to_idEPKc@Base 9.55.0~dfsg1-0ubuntu1
 _ZNK9tesseract10UNICHARSET13unichar_to_idEPKci@Base 9.55.0~dfsg1-0ubuntu1
 _ZNK9tesseract10UNICHARSET14get_propertiesEi@Base 9.55.0~dfsg1-0ubuntu1
 _ZNK9tesseract10UNICHARSET14save_to_stringEPNS_6STRINGE@Base 9.55.0~dfsg1-0ubuntu1
 _ZNK9tesseract10UNICHARSET16GetStrPropertiesEPKcPNS0_18UNICHAR_PROPERTIESE@Base 9.55.0~dfsg1-0ubuntu1
 _ZNK9tesseract10UNICHARSET16contains_unicharEPKc@Base 9.55.0~dfsg1-0ubuntu1
 _ZNK9tesseract10UNICHARSET16contains_unicharEPKci@Base 9.55.0~dfsg1-0ubuntu1
 _ZNK9tesseract10UNICHARSET16encodable_stringEPKcPi@Base 9.55.0~dfsg1-0ubuntu1
 _ZNK9tesseract10UNICHARSET17id_to_unichar_extEi@Base 9.55.0~dfsg1-0ubuntu1
 _ZNK9tesseract10UNICHARSET18UNICHAR_PROPERTIES13AnyRangeEmptyEv@Base 9.55.0~dfsg1-0ubuntu1
 _ZNK9tesseract10UNICHARSET19AnyRepeatedUnicodesEv@Base 9.55.0~dfsg1-0ubuntu1
 _ZNK9tesseract10UNICHARSET19major_right_to_leftEv@Base 9.55.0~dfsg1-0ubuntu1
 _ZNK9tesseract10UNICHARSET23get_script_id_from_nameEPKc@Base 9.55.0~dfsg1-0ubuntu1
 _ZNK9tesseract10UNICHARSET2eqEiPKc@Base 9.55.0~dfsg1-0ubuntu1
 _ZNK9tesseract10UNICHARSET4stepEPKc@Base 9.55.0~dfsg1-0ubuntu1
 _ZNK9tesseract10UNICHARSET9debug_strEi@Base 9.55.0~dfsg1-0ubuntu1
 _ZNK9tesseract11BLOB_CHOICE15PosAndSizeAgreeERKS0_fb@Base 9.55.0~dfsg1-0ubuntu1
 _ZNK9tesseract11BaselineRow12SpaceBetweenERKS0_@Base 9.55.0~dfsg1-0ubuntu1
 _ZNK9tesseract11BaselineRow12StraightYAtXEd@Base 9.55.0~dfsg1-0ubuntu1
 _ZNK9tesseract11BaselineRow13BaselineAngleEv@Base 9.55.0~dfsg1-0ubuntu1
 _ZNK9tesseract11BaselineRow22SetupOldLineParametersEPNS_6TO_ROWE@Base 9.55.0~dfsg1-0ubuntu1
 _ZNK9tesseract11BaselineRow24PerpDistanceFromBaselineERKNS_6FCOORDE@Base 9.55.0~dfsg1-0ubuntu1
 _ZNK9tesseract11BaselineRow5PrintEv@Base 9.55.0~dfsg1-0ubuntu1
 _ZNK9tesseract11BaselineRow8PerpDispERKNS_6FCOORDE@Base 9.55.0~dfsg1-0ubuntu1
 _ZNK9tesseract11PAGE_RES_IT3cmpERKS0_@Base 9.55.0~dfsg1-0ubuntu1
 _ZNK9tesseract11ParamsModel10EquivalentERKS0_@Base 9.55.0~dfsg1-0ubuntu1
 _ZNK9tesseract11ParamsModel10SaveToFileEPKc@Base 9.55.0~dfsg1-0ubuntu1
 _ZNK9tesseract11ParamsModel11ComputeCostEPKf@Base 9.55.0~dfsg1-0ubuntu1
 _ZNK9tesseract11StrokeWidth16NoNoiseInBetweenERKNS_4TBOXES3_@Base 9.55.0~dfsg1-0ubuntu1
 _ZNK9tesseract11TableFinder10gridheightEv@Base 9.55.0~dfsg1-0ubuntu1
 _ZNK9tesseract11TableFinder18AllowTextPartitionERKNS_12ColPartitionE@Base 9.55.0~dfsg1-0ubuntu1
 _ZNK9tesseract11TableFinder23HasWideOrNoInterWordGapEPNS_12ColPartitionE@Base 9.55.0~dfsg1-0ubuntu1
 _ZNK9tesseract11TableFinder5bleftEv@Base 9.55.0~dfsg1-0ubuntu1
 _ZNK9tesseract11TableFinder6trightEv@Base 9.55.0~dfsg1-0ubuntu1
 _ZNK9tesseract11TableFinder8gridsizeEv@Base 9.55.0~dfsg1-0ubuntu1
 _ZNK9tesseract11TableFinder9AllowBlobERKNS_8BLOBNBOXE@Base 9.55.0~dfsg1-0ubuntu1
 _ZNK9tesseract11TableFinder9gridwidthEv@Base 9.55.0~dfsg1-0ubuntu1
 _ZNK9tesseract11TessBaseAPI14GetIntVariableEPKcPi@Base 9.55.0~dfsg1-0ubuntu1
 _ZNK9tesseract11TessBaseAPI14GetPageSegModeEv@Base 9.55.0~dfsg1-0ubuntu1
 _ZNK9tesseract11TessBaseAPI14PrintVariablesEP8_IO_FILE@Base 9.55.0~dfsg1-0ubuntu1
 _ZNK9tesseract11TessBaseAPI15GetBoolVariableEPKcPb@Base 9.55.0~dfsg1-0ubuntu1
 _ZNK9tesseract11TessBaseAPI17GetDoubleVariableEPKcPd@Base 9.55.0~dfsg1-0ubuntu1
 _ZNK9tesseract11TessBaseAPI17GetStringVariableEPKc@Base 9.55.0~dfsg1-0ubuntu1
 _ZNK9tesseract11TessBaseAPI24GetInitLanguagesAsStringEv@Base 9.55.0~dfsg1-0ubuntu1
 _ZNK9tesseract11TessBaseAPI26GetLoadedLanguagesAsVectorEPSt6vectorINSt7__cxx1112basic_stringIcSt11char_traitsIcESaIcEEESaIS7_EE@Base 9.55.0~dfsg1-0ubuntu1
 _ZNK9tesseract11TessBaseAPI29GetAvailableLanguagesAsVectorEPSt6vectorINSt7__cxx1112basic_stringIcSt11char_traitsIcESaIcEEESaIS7_EE@Base 9.55.0~dfsg1-0ubuntu1
 _ZNK9tesseract11TessBaseAPI30GetThresholdedImageScaleFactorEv@Base 9.55.0~dfsg1-0ubuntu1
 _ZNK9tesseract11TessBaseAPI7GetDawgEi@Base 9.55.0~dfsg1-0ubuntu1
 _ZNK9tesseract11TessBaseAPI8NumDawgsEv@Base 9.55.0~dfsg1-0ubuntu1
 _ZNK9tesseract11WERD_CHOICE11MatrixCoordEi@Base 9.55.0~dfsg1-0ubuntu1
 _ZNK9tesseract11WERD_CHOICE11print_stateEPKc@Base 9.55.0~dfsg1-0ubuntu1
 _ZNK9tesseract11WERD_CHOICE12blob_choicesEiPNS_6MATRIXE@Base 9.55.0~dfsg1-0ubuntu1
 _ZNK9tesseract11WERD_CHOICE12shallow_copyEii@Base 9.55.0~dfsg1-0ubuntu1
 _ZNK9tesseract11WERD_CHOICE13TotalOfStatesEv@Base 9.55.0~dfsg1-0ubuntu1
 _ZNK9tesseract11WERD_CHOICE13permuter_nameEv@Base 9.55.0~dfsg1-0ubuntu1
 _ZNK9tesseract11WERD_CHOICE14GetTopScriptIDEv@Base 9.55.0~dfsg1-0ubuntu1
 _ZNK9tesseract11WERD_CHOICE14punct_strippedEPiS1_@Base 9.55.0~dfsg1-0ubuntu1
 _ZNK9tesseract11WERD_CHOICE18has_rtl_unichar_idEv@Base 9.55.0~dfsg1-0ubuntu1
 _ZNK9tesseract11WERD_CHOICE18string_and_lengthsEPNS_6STRINGES2_@Base 9.55.0~dfsg1-0ubuntu1
 _ZNK9tesseract11WERD_CHOICE19contains_unichar_idEi@Base 9.55.0~dfsg1-0ubuntu1
 _ZNK9tesseract11WERD_CHOICE21GetNonSuperscriptSpanEPiS1_@Base 9.55.0~dfsg1-0ubuntu1
 _ZNK9tesseract11WERD_CHOICE5printEPKc@Base 9.55.0~dfsg1-0ubuntu1
 _ZNK9tesseract11WordFeature9SerializeEP8_IO_FILE@Base 9.55.0~dfsg1-0ubuntu1
 _ZNK9tesseract12BlamerBundle11SplitBundleEiibPS0_S1_@Base 9.55.0~dfsg1-0ubuntu1
 _ZNK9tesseract12BlamerBundle15ChoiceIsCorrectEPKNS_11WERD_CHOICEE@Base 9.55.0~dfsg1-0ubuntu1
 _ZNK9tesseract12BlamerBundle15IncorrectReasonEv@Base 9.55.0~dfsg1-0ubuntu1
 _ZNK9tesseract12BlamerBundle21GuidedSegsearchNeededEPKNS_11WERD_CHOICEE@Base 9.55.0~dfsg1-0ubuntu1
 _ZNK9tesseract12BlamerBundle25GuidedSegsearchStillGoingEv@Base 9.55.0~dfsg1-0ubuntu1
 _ZNK9tesseract12ColPartition11ShallowCopyEv@Base 9.55.0~dfsg1-0ubuntu1
 _ZNK9tesseract12ColPartition12LeftBlobRuleEv@Base 9.55.0~dfsg1-0ubuntu1
 _ZNK9tesseract12ColPartition12SizesSimilarERKS0_@Base 9.55.0~dfsg1-0ubuntu1
 _ZNK9tesseract12ColPartition12SpacingEqualEii@Base 9.55.0~dfsg1-0ubuntu1
 _ZNK9tesseract12ColPartition13MatchingSizesERKS0_@Base 9.55.0~dfsg1-0ubuntu1
 _ZNK9tesseract12ColPartition13PartitionTypeENS_18ColumnSpanningTypeE@Base 9.55.0~dfsg1-0ubuntu1
 _ZNK9tesseract12ColPartition13RightBlobRuleEv@Base 9.55.0~dfsg1-0ubuntu1
 _ZNK9tesseract12ColPartition13SpacingsEqualERKS0_i@Base 9.55.0~dfsg1-0ubuntu1
 _ZNK9tesseract12ColPartition15MatchingColumnsERKS0_@Base 9.55.0~dfsg1-0ubuntu1
 _ZNK9tesseract12ColPartition15SummedSpacingOKERKS0_ii@Base 9.55.0~dfsg1-0ubuntu1
 _ZNK9tesseract12ColPartition16IsInSameColumnAsERKS0_@Base 9.55.0~dfsg1-0ubuntu1
 _ZNK9tesseract12ColPartition16OKDiacriticMergeERKS0_b@Base 9.55.0~dfsg1-0ubuntu1
 _ZNK9tesseract12ColPartition16TopSpacingMarginEi@Base 9.55.0~dfsg1-0ubuntu1
 _ZNK9tesseract12ColPartition17MatchingTextColorERKS0_@Base 9.55.0~dfsg1-0ubuntu1
 _ZNK9tesseract12ColPartition19BottomSpacingMarginEi@Base 9.55.0~dfsg1-0ubuntu1
 _ZNK9tesseract12ColPartition19MatchingStrokeWidthERKS0_dd@Base 9.55.0~dfsg1-0ubuntu1
 _ZNK9tesseract12ColPartition19SpecialBlobsDensityENS_19BlobSpecialTextTypeE@Base 9.55.0~dfsg1-0ubuntu1
 _ZNK9tesseract12ColPartition21ConfirmNoTabViolationERKS0_@Base 9.55.0~dfsg1-0ubuntu1
 _ZNK9tesseract12ColPartition5PrintEv@Base 9.55.0~dfsg1-0ubuntu1
 _ZNK9tesseract12IndexMapBiDi11MapFeaturesERKNS_13GenericVectorIiEEPS2_@Base 9.55.0~dfsg1-0ubuntu1
 _ZNK9tesseract12IndexMapBiDi9SerializeEP8_IO_FILE@Base 9.55.0~dfsg1-0ubuntu1
 _ZNK9tesseract12PageIterator11BoundingBoxENS_17PageIteratorLevelEPiS2_S2_S2_@Base 9.55.0~dfsg1-0ubuntu1
 _ZNK9tesseract12PageIterator11BoundingBoxENS_17PageIteratorLevelEiPiS2_S2_S2_@Base 9.55.0~dfsg1-0ubuntu1
 _ZNK9tesseract12PageIterator11OrientationEPNS_11OrientationEPNS_16WritingDirectionEPNS_13TextlineOrderEPf@Base 9.55.0~dfsg1-0ubuntu1
 _ZNK9tesseract12PageIterator12BlockPolygonEv@Base 9.55.0~dfsg1-0ubuntu1
 _ZNK9tesseract12PageIterator13ParagraphInfoEPNS_22ParagraphJustificationEPbS3_Pi@Base 9.55.0~dfsg1-0ubuntu1
 _ZNK9tesseract12PageIterator14GetBinaryImageENS_17PageIteratorLevelE@Base 9.55.0~dfsg1-0ubuntu1
 _ZNK9tesseract12PageIterator15IsAtBeginningOfENS_17PageIteratorLevelE@Base 9.55.0~dfsg1-0ubuntu1
 _ZNK9tesseract12PageIterator16IsAtFinalElementENS_17PageIteratorLevelES1_@Base 9.55.0~dfsg1-0ubuntu1
 _ZNK9tesseract12PageIterator19BoundingBoxInternalENS_17PageIteratorLevelEPiS2_S2_S2_@Base 9.55.0~dfsg1-0ubuntu1
 _ZNK9tesseract12PageIterator20PositionedAtSameWordEPKNS_11PAGE_RES_ITE@Base 9.55.0~dfsg1-0ubuntu1
 _ZNK9tesseract12PageIterator32IsWithinFirstTextlineOfParagraphEv@Base 9.55.0~dfsg1-0ubuntu1
 _ZNK9tesseract12PageIterator3CmpERKS0_@Base 9.55.0~dfsg1-0ubuntu1
 _ZNK9tesseract12PageIterator5EmptyENS_17PageIteratorLevelE@Base 9.55.0~dfsg1-0ubuntu1
 _ZNK9tesseract12PageIterator8BaselineENS_17PageIteratorLevelEPiS2_S2_S2_@Base 9.55.0~dfsg1-0ubuntu1
 _ZNK9tesseract12PageIterator8GetImageENS_17PageIteratorLevelEiP3PixPiS4_@Base 9.55.0~dfsg1-0ubuntu1
 _ZNK9tesseract12PageIterator9BlockTypeEv@Base 9.55.0~dfsg1-0ubuntu1
 _ZNK9tesseract12SquishedDawg10print_edgeEl@Base 9.55.0~dfsg1-0ubuntu1
 _ZNK9tesseract12SquishedDawg10print_nodeEli@Base 9.55.0~dfsg1-0ubuntu1
 _ZNK9tesseract12SquishedDawg12edge_char_ofElib@Base 9.55.0~dfsg1-0ubuntu1
 _ZNK9tesseract12SquishedDawg14build_node_mapEPi@Base 9.55.0~dfsg1-0ubuntu1
 _ZNK9tesseract12SquishedDawg17num_forward_edgesEl@Base 9.55.0~dfsg1-0ubuntu1
 _ZNK9tesseract12WeightMatrix15MatrixDotVectorEPKaPd@Base 9.55.0~dfsg1-0ubuntu1
 _ZNK9tesseract12WeightMatrix15MatrixDotVectorEPKdPd@Base 9.55.0~dfsg1-0ubuntu1
 _ZNK9tesseract12WeightMatrix15VectorDotMatrixEPKdPd@Base 9.55.0~dfsg1-0ubuntu1
 _ZNK9tesseract12WeightMatrix16CountAlternatorsERKS0_PdS3_@Base 9.55.0~dfsg1-0ubuntu1
 _ZNK9tesseract12WeightMatrix9SerializeEbPNS_5TFileE@Base 9.55.0~dfsg1-0ubuntu1
 _ZNK9tesseract13BaselineBlock20SetupBlockParametersEv@Base 9.55.0~dfsg1-0ubuntu1
 _ZNK9tesseract13DocumentCache12FindDocumentERKNS_6STRINGE@Base 9.55.0~dfsg1-0ubuntu1
 _ZNK9tesseract13FontInfoTable25SetContainsFontPropertiesEiRKSt6vectorINS_10ScoredFontESaIS2_EE@Base 9.55.0~dfsg1-0ubuntu1
 _ZNK9tesseract13FontInfoTable33SetContainsMultipleFontPropertiesERKSt6vectorINS_10ScoredFontESaIS2_EE@Base 9.55.0~dfsg1-0ubuntu1
 _ZNK9tesseract13FontInfoTable9SerializeEP8_IO_FILE@Base 9.55.0~dfsg1-0ubuntu1
 _ZNK9tesseract13IntSimdMatrix4InitERKNS_16GENERIC_2D_ARRAYIaEERSt6vectorIaSaIaEERi@Base 9.55.0~dfsg1-0ubuntu1
 _ZNK9tesseract13LanguageModel16GetNextParentVSEEbbPKNS_11BLOB_CHOICEEhRKNS_10UNICHARSETEPNS_8WERD_RESEPNS_20ViterbiStateEntry_ITEPh@Base 9.55.0~dfsg1-0ubuntu1
 _ZNK9tesseract13LanguageModel21GetTopLowerUpperDigitEPNS_16BLOB_CHOICE_LISTEPPNS_11BLOB_CHOICEES5_S5_@Base 9.55.0~dfsg1-0ubuntu1
 _ZNK9tesseract13LanguageModel27SetTopParentLowerUpperDigitEPNS_18LanguageModelStateE@Base 9.55.0~dfsg1-0ubuntu1
 _ZNK9tesseract14ChoiceIterator10ConfidenceEv@Base 9.55.0~dfsg1-0ubuntu1
 _ZNK9tesseract14ChoiceIterator11GetUTF8TextEv@Base 9.55.0~dfsg1-0ubuntu1
 _ZNK9tesseract14ChoiceIterator9TimestepsEv@Base 9.55.0~dfsg1-0ubuntu1
 _ZNK9tesseract14EquationDetect13PaintColPartsERKNS_6STRINGE@Base 9.55.0~dfsg1-0ubuntu1
 _ZNK9tesseract14EquationDetect14CountAlignmentERKNS_13GenericVectorIiEEi@Base 9.55.0~dfsg1-0ubuntu1
 _ZNK9tesseract14EquationDetect16CheckSeedDensityEffPKNS_12ColPartitionE@Base 9.55.0~dfsg1-0ubuntu1
 _ZNK9tesseract14EquationDetect17GetOutputTiffNameEPKcPNS_6STRINGE@Base 9.55.0~dfsg1-0ubuntu1
 _ZNK9tesseract14EquationDetect17PaintSpecialTextsERKNS_6STRINGE@Base 9.55.0~dfsg1-0ubuntu1
 _ZNK9tesseract14EquationDetect18IsNearMathNeighborEiPKNS_12ColPartitionE@Base 9.55.0~dfsg1-0ubuntu1
 _ZNK9tesseract14EquationDetect19IsNearSmallNeighborERKNS_4TBOXES3_@Base 9.55.0~dfsg1-0ubuntu1
 _ZNK9tesseract14EquationDetect22EstimateTypeForUnicharERKNS_10UNICHARSETEi@Base 9.55.0~dfsg1-0ubuntu1
 _ZNK9tesseract14EquationDetect24CheckSeedNeighborDensityEPKNS_12ColPartitionE@Base 9.55.0~dfsg1-0ubuntu1
 _ZNK9tesseract14EquationDetect24PrintSpecialBlobsDensityEPKNS_12ColPartitionE@Base 9.55.0~dfsg1-0ubuntu1
 _ZNK9tesseract14FullyConnected11OutputShapeERKNS_11StaticShapeE@Base 9.55.0~dfsg1-0ubuntu1
 _ZNK9tesseract14FullyConnected16CountAlternatorsERKNS_7NetworkEPdS4_@Base 9.55.0~dfsg1-0ubuntu1
 _ZNK9tesseract14FullyConnected9SerializeEPNS_5TFileE@Base 9.55.0~dfsg1-0ubuntu1
 _ZNK9tesseract14LSTMRecognizer9SerializeEPKNS_15TessdataManagerEPNS_5TFileE@Base 9.55.0~dfsg1-0ubuntu1
 _ZNK9tesseract14ParagraphModel10ComparableERKS0_@Base 9.55.0~dfsg1-0ubuntu1
 _ZNK9tesseract14ParagraphModel13ValidBodyLineEiiii@Base 9.55.0~dfsg1-0ubuntu1
 _ZNK9tesseract14ParagraphModel14ValidFirstLineEiiii@Base 9.55.0~dfsg1-0ubuntu1
 _ZNK9tesseract14ParagraphModel8ToStringEv@Base 9.55.0~dfsg1-0ubuntu1
 _ZNK9tesseract14PixelHistogram19GetHistogramMaximumEPi@Base 9.55.0~dfsg1-0ubuntu1
 _ZNK9tesseract14ResultIterator11GetUTF8TextENS_17PageIteratorLevelE@Base 9.55.0~dfsg1-0ubuntu1
 _ZNK9tesseract14ResultIterator12LTRWordIndexEv@Base 9.55.0~dfsg1-0ubuntu1
 _ZNK9tesseract14ResultIterator14ParagraphIsLtrEv@Base 9.55.0~dfsg1-0ubuntu1
 _ZNK9tesseract14ResultIterator15IsAtBeginningOfENS_17PageIteratorLevelE@Base 9.55.0~dfsg1-0ubuntu1
 _ZNK9tesseract14ResultIterator16BlanksBeforeWordEv@Base 9.55.0~dfsg1-0ubuntu1
 _ZNK9tesseract14ResultIterator16IsAtFinalElementENS_17PageIteratorLevelES1_@Base 9.55.0~dfsg1-0ubuntu1
 _ZNK9tesseract14ResultIterator17AppendSuffixMarksEPNSt7__cxx1112basic_stringIcSt11char_traitsIcESaIcEEE@Base 9.55.0~dfsg1-0ubuntu1
 _ZNK9tesseract14ResultIterator18AppendUTF8WordTextEPNSt7__cxx1112basic_stringIcSt11char_traitsIcESaIcEEE@Base 9.55.0~dfsg1-0ubuntu1
 _ZNK9tesseract14ResultIterator18CalculateBlobOrderEPSt6vectorIiSaIiEE@Base 9.55.0~dfsg1-0ubuntu1
 _ZNK9tesseract14ResultIterator19GetRawLSTMTimestepsEv@Base 9.55.0~dfsg1-0ubuntu1
 _ZNK9tesseract14ResultIterator21CurrentParagraphIsLtrEv@Base 9.55.0~dfsg1-0ubuntu1
 _ZNK9tesseract14ResultIterator21IsAtFinalSymbolOfWordEv@Base 9.55.0~dfsg1-0ubuntu1
 _ZNK9tesseract14ResultIterator21IsAtFirstSymbolOfWordEv@Base 9.55.0~dfsg1-0ubuntu1
 _ZNK9tesseract14ResultIterator22CalculateTextlineOrderEbRKNS_17LTRResultIteratorEPSt6vectorINS_21StrongScriptDirectionESaIS5_EEPS4_IiSaIiEE@Base 9.55.0~dfsg1-0ubuntu1
 _ZNK9tesseract14ResultIterator22CalculateTextlineOrderEbRKNS_17LTRResultIteratorEPSt6vectorIiSaIiEE@Base 9.55.0~dfsg1-0ubuntu1
 _ZNK9tesseract14ResultIterator23AppendUTF8ParagraphTextEPNSt7__cxx1112basic_stringIcSt11char_traitsIcESaIcEEE@Base 9.55.0~dfsg1-0ubuntu1
 _ZNK9tesseract14ResultIterator24GetBestLSTMSymbolChoicesEv@Base 9.55.0~dfsg1-0ubuntu1
 _ZNK9tesseract14ResultIterator9BidiDebugEi@Base 9.55.0~dfsg1-0ubuntu1
 _ZNK9tesseract14TessClassifier13GetShapeTableEv@Base 9.55.0~dfsg1-0ubuntu1
 _ZNK9tesseract14TessClassifier13GetUnicharsetEv@Base 9.55.0~dfsg1-0ubuntu1
 _ZNK9tesseract14TrainingSample11RenderToPixEPKNS_10UNICHARSETE@Base 9.55.0~dfsg1-0ubuntu1
 _ZNK9tesseract14TrainingSample12GetCNFeatureEv@Base 9.55.0~dfsg1-0ubuntu1
 _ZNK9tesseract14TrainingSample12GetSamplePixEiP3Pix@Base 9.55.0~dfsg1-0ubuntu1
 _ZNK9tesseract14TrainingSample14RandomizedCopyEi@Base 9.55.0~dfsg1-0ubuntu1
 _ZNK9tesseract14TrainingSample4CopyEv@Base 9.55.0~dfsg1-0ubuntu1
 _ZNK9tesseract14TrainingSample9SerializeEP8_IO_FILE@Base 9.55.0~dfsg1-0ubuntu1
 _ZNK9tesseract15ColPartitionSet15GoodColumnCountEv@Base 9.55.0~dfsg1-0ubuntu1
 _ZNK9tesseract15IntFeatureSpace13IndexFeaturesEPKNS_18INT_FEATURE_STRUCTEiPNS_13GenericVectorIiEE@Base 9.55.0~dfsg1-0ubuntu1
 _ZNK9tesseract15IntFeatureSpace16XYToFeatureIndexEii@Base 9.55.0~dfsg1-0ubuntu1
 _ZNK9tesseract15IntFeatureSpace17PositionFromIndexEi@Base 9.55.0~dfsg1-0ubuntu1
 _ZNK9tesseract15IntFeatureSpace19PositionFromBucketsEiii@Base 9.55.0~dfsg1-0ubuntu1
 _ZNK9tesseract15IntFeatureSpace20IndexAndSortFeaturesEPKNS_18INT_FEATURE_STRUCTEiPNS_13GenericVectorIiEE@Base 9.55.0~dfsg1-0ubuntu1
 _ZNK9tesseract15IntFeatureSpace9SerializeEP8_IO_FILE@Base 9.55.0~dfsg1-0ubuntu1
 _ZNK9tesseract15ParagraphTheory4FitsEPKNS_13GenericVectorINS_19RowScratchRegistersEEEii@Base 9.55.0~dfsg1-0ubuntu1
 _ZNK9tesseract15ParagraphTheory7IndexOfEPKNS_14ParagraphModelE@Base 9.55.0~dfsg1-0ubuntu1
 _ZNK9tesseract15ShapeClassifier12PrintResultsEPKcRKSt6vectorINS_11ShapeRatingESaIS4_EE@Base 9.55.0~dfsg1-0ubuntu1
 _ZNK9tesseract15ShapeClassifier13GetUnicharsetEv@Base 9.55.0~dfsg1-0ubuntu1
 _ZNK9tesseract15ShapeClassifier19UnicharPrintResultsEPKcRKSt6vectorINS_13UnicharRatingESaIS4_EE@Base 9.55.0~dfsg1-0ubuntu1
 _ZNK9tesseract15ShapeClassifier23FilterDuplicateUnicharsEPSt6vectorINS_11ShapeRatingESaIS2_EE@Base 9.55.0~dfsg1-0ubuntu1
 _ZNK9tesseract15StructuredTable10cell_countEv@Base 9.55.0~dfsg1-0ubuntu1
 _ZNK9tesseract15StructuredTable10row_heightEi@Base 9.55.0~dfsg1-0ubuntu1
 _ZNK9tesseract15StructuredTable11space_aboveEv@Base 9.55.0~dfsg1-0ubuntu1
 _ZNK9tesseract15StructuredTable11space_belowEv@Base 9.55.0~dfsg1-0ubuntu1
 _ZNK9tesseract15StructuredTable12bounding_boxEv@Base 9.55.0~dfsg1-0ubuntu1
 _ZNK9tesseract15StructuredTable12column_countEv@Base 9.55.0~dfsg1-0ubuntu1
 _ZNK9tesseract15StructuredTable12column_widthEi@Base 9.55.0~dfsg1-0ubuntu1
 _ZNK9tesseract15StructuredTable16DoesPartitionFitERKNS_12ColPartitionE@Base 9.55.0~dfsg1-0ubuntu1
 _ZNK9tesseract15StructuredTable18FindVerticalMarginEPNS_16ColPartitionGridEib@Base 9.55.0~dfsg1-0ubuntu1
 _ZNK9tesseract15StructuredTable20FindHorizontalMarginEPNS_16ColPartitionGridEib@Base 9.55.0~dfsg1-0ubuntu1
 _ZNK9tesseract15StructuredTable8is_linedEv@Base 9.55.0~dfsg1-0ubuntu1
 _ZNK9tesseract15StructuredTable9row_countEv@Base 9.55.0~dfsg1-0ubuntu1
 _ZNK9tesseract15TessdataManager12GetComponentENS_12TessdataTypeEPNS_5TFileE@Base 9.55.0~dfsg1-0ubuntu1
 _ZNK9tesseract15TessdataManager13VersionStringB5cxx11Ev@Base 9.55.0~dfsg1-0ubuntu1
 _ZNK9tesseract15TessdataManager8SaveFileEPKcPFbRKSt6vectorIcSaIcEES2_E@Base 9.55.0~dfsg1-0ubuntu1
 _ZNK9tesseract15TessdataManager9DirectoryEv@Base 9.55.0~dfsg1-0ubuntu1
 _ZNK9tesseract15TessdataManager9SerializeEPSt6vectorIcSaIcEE@Base 9.55.0~dfsg1-0ubuntu1
 _ZNK9tesseract15UnicharAndFonts9SerializeEP8_IO_FILE@Base 9.55.0~dfsg1-0ubuntu1
 _ZNK9tesseract15UnicharCompress13DecodeUnicharERKNS_13RecodedCharIDE@Base 9.55.0~dfsg1-0ubuntu1
 _ZNK9tesseract15UnicharCompress13EncodeUnicharEiPNS_13RecodedCharIDE@Base 9.55.0~dfsg1-0ubuntu1
 _ZNK9tesseract15UnicharCompress19GetEncodingAsStringERKNS_10UNICHARSETE@Base 9.55.0~dfsg1-0ubuntu1
 _ZNK9tesseract15UnicharCompress9SerializeEPNS_5TFileE@Base 9.55.0~dfsg1-0ubuntu1
 _ZNK9tesseract16ImageThresholder18ThresholdRectToPixEP3PixiPKiS4_PS2_@Base 9.55.0~dfsg1-0ubuntu1
 _ZNK9tesseract16ImageThresholder22OtsuThresholdRectToPixEP3PixPS2_@Base 9.55.0~dfsg1-0ubuntu1
 _ZNK9tesseract16ImageThresholder7IsEmptyEv@Base 9.55.0~dfsg1-0ubuntu1
 _ZNK9tesseract16RecodeBeamSearch10DebugBeamsERKNS_10UNICHARSETE@Base 9.55.0~dfsg1-0ubuntu1
 _ZNK9tesseract16RecodeBeamSearch10PrintBeam2EbiPKNS_10UNICHARSETEb@Base 9.55.0~dfsg1-0ubuntu1
 _ZNK9tesseract16RecodeBeamSearch11ExtractPathEPKNS_10RecodeNodeEPNS_13GenericVectorIS3_EE@Base 9.55.0~dfsg1-0ubuntu1
 _ZNK9tesseract16RecodeBeamSearch11ExtractPathEPKNS_10RecodeNodeEPNS_13GenericVectorIS3_EEi@Base 9.55.0~dfsg1-0ubuntu1
 _ZNK9tesseract16RecodeBeamSearch12DebugBeamPosERKNS_10UNICHARSETERKNS_11GenericHeapINS_9KDPairIncIdNS_10RecodeNodeEEEEE@Base 9.55.0~dfsg1-0ubuntu1
 _ZNK9tesseract16RecodeBeamSearch15ComputeCodeHashEibPKNS_10RecodeNodeE@Base 9.55.0~dfsg1-0ubuntu1
 _ZNK9tesseract16RecodeBeamSearch16DebugUnicharPathEPKNS_10UNICHARSETERKNS_13GenericVectorIPKNS_10RecodeNodeEEERKSt6vectorIiSaIiEERKSB_IfSaIfEESJ_SF_@Base 9.55.0~dfsg1-0ubuntu1
 _ZNK9tesseract16RecodeBeamSearch16ExtractBestPathsEPNS_13GenericVectorIPKNS_10RecodeNodeEEES6_@Base 9.55.0~dfsg1-0ubuntu1
 _ZNK9tesseract16RecodeBeamSearch23ExtractBestPathAsLabelsEPSt6vectorIiSaIiEES4_@Base 9.55.0~dfsg1-0ubuntu1
 _ZNK9tesseract16RecodeBeamSearch27ExtractBestPathAsUnicharIdsEbPKNS_10UNICHARSETEPSt6vectorIiSaIiEEPS4_IfSaIfEESA_S7_@Base 9.55.0~dfsg1-0ubuntu1
 _ZNK9tesseract16RecodeBeamSearch9DebugPathEPKNS_10UNICHARSETERKNS_13GenericVectorIPKNS_10RecodeNodeEEE@Base 9.55.0~dfsg1-0ubuntu1
 _ZNK9tesseract17LTRResultIterator10ConfidenceENS_17PageIteratorLevelE@Base 9.55.0~dfsg1-0ubuntu1
 _ZNK9tesseract17LTRResultIterator11GetUTF8TextENS_17PageIteratorLevelE@Base 9.55.0~dfsg1-0ubuntu1
 _ZNK9tesseract17LTRResultIterator11WordLatticeEPi@Base 9.55.0~dfsg1-0ubuntu1
 _ZNK9tesseract17LTRResultIterator13HasBlamerInfoEv@Base 9.55.0~dfsg1-0ubuntu1
 _ZNK9tesseract17LTRResultIterator13RowAttributesEPfS1_S1_@Base 9.55.0~dfsg1-0ubuntu1
 _ZNK9tesseract17LTRResultIterator13WordDirectionEv@Base 9.55.0~dfsg1-0ubuntu1
 _ZNK9tesseract17LTRResultIterator13WordIsNumericEv@Base 9.55.0~dfsg1-0ubuntu1
 _ZNK9tesseract17LTRResultIterator14GetBlamerDebugEv@Base 9.55.0~dfsg1-0ubuntu1
 _ZNK9tesseract17LTRResultIterator14HasTruthStringEv@Base 9.55.0~dfsg1-0ubuntu1
 _ZNK9tesseract17LTRResultIterator15SymbolIsDropcapEv@Base 9.55.0~dfsg1-0ubuntu1
 _ZNK9tesseract17LTRResultIterator16BlanksBeforeWordEv@Base 9.55.0~dfsg1-0ubuntu1
 _ZNK9tesseract17LTRResultIterator17EquivalentToTruthEPKc@Base 9.55.0~dfsg1-0ubuntu1
 _ZNK9tesseract17LTRResultIterator17SymbolIsSubscriptEv@Base 9.55.0~dfsg1-0ubuntu1
 _ZNK9tesseract17LTRResultIterator17WordTruthUTF8TextEv@Base 9.55.0~dfsg1-0ubuntu1
 _ZNK9tesseract17LTRResultIterator18WordFontAttributesEPbS1_S1_S1_S1_S1_PiS2_@Base 9.55.0~dfsg1-0ubuntu1
 _ZNK9tesseract17LTRResultIterator18WordNormedUTF8TextEv@Base 9.55.0~dfsg1-0ubuntu1
 _ZNK9tesseract17LTRResultIterator19SymbolIsSuperscriptEv@Base 9.55.0~dfsg1-0ubuntu1
 _ZNK9tesseract17LTRResultIterator20WordIsFromDictionaryEv@Base 9.55.0~dfsg1-0ubuntu1
 _ZNK9tesseract17LTRResultIterator23GetParamsTrainingBundleEv@Base 9.55.0~dfsg1-0ubuntu1
 _ZNK9tesseract17LTRResultIterator23WordRecognitionLanguageEv@Base 9.55.0~dfsg1-0ubuntu1
 _ZNK9tesseract17LTRResultIterator25GetBlamerMisadaptionDebugEv@Base 9.55.0~dfsg1-0ubuntu1
 _ZNK9tesseract17ViterbiStateEntry5PrintEPKc@Base 9.55.0~dfsg1-0ubuntu1
 _ZNK9tesseract18ShiroRekhaSplitter13GetBoxForTBOXERKNS_4TBOXE@Base 9.55.0~dfsg1-0ubuntu1
 _ZNK9tesseract18TextlineProjection11EvaluateBoxERKNS_4TBOXEPKNS_6DENORMEb@Base 9.55.0~dfsg1-0ubuntu1
 _ZNK9tesseract18TextlineProjection16VerticalDistanceEbiii@Base 9.55.0~dfsg1-0ubuntu1
 _ZNK9tesseract18TextlineProjection17BoxOutOfHTextlineERKNS_4TBOXEPKNS_6DENORMEb@Base 9.55.0~dfsg1-0ubuntu1
 _ZNK9tesseract18TextlineProjection18HorizontalDistanceEbiii@Base 9.55.0~dfsg1-0ubuntu1
 _ZNK9tesseract18TextlineProjection19EvaluateBoxInternalERKNS_4TBOXEPKNS_6DENORMEbPiS7_S7_S7_@Base 9.55.0~dfsg1-0ubuntu1
 _ZNK9tesseract18TextlineProjection19ImageXToProjectionXEi@Base 9.55.0~dfsg1-0ubuntu1
 _ZNK9tesseract18TextlineProjection19ImageYToProjectionYEi@Base 9.55.0~dfsg1-0ubuntu1
 _ZNK9tesseract18TextlineProjection20DistanceOfBoxFromBoxERKNS_4TBOXES3_bPKNS_6DENORMEb@Base 9.55.0~dfsg1-0ubuntu1
 _ZNK9tesseract18TextlineProjection20EvaluateColPartitionERKNS_12ColPartitionEPKNS_6DENORMEb@Base 9.55.0~dfsg1-0ubuntu1
 _ZNK9tesseract18TextlineProjection20MoveNonTextlineBlobsEPNS_13BLOBNBOX_LISTES2_@Base 9.55.0~dfsg1-0ubuntu1
 _ZNK9tesseract18TextlineProjection20TransformToPixCoordsEPKNS_6DENORMEPNS_6TPOINTE@Base 9.55.0~dfsg1-0ubuntu1
 _ZNK9tesseract18TextlineProjection21BestMeanGradientInRowEPKNS_6DENORMEsssb@Base 9.55.0~dfsg1-0ubuntu1
 _ZNK9tesseract18TextlineProjection21TruncateToImageBoundsEPNS_6TPOINTE@Base 9.55.0~dfsg1-0ubuntu1
 _ZNK9tesseract18TextlineProjection23MeanPixelsInLineSegmentEPKNS_6DENORMEiNS_6TPOINTES4_@Base 9.55.0~dfsg1-0ubuntu1
 _ZNK9tesseract18TextlineProjection24BestMeanGradientInColumnEPKNS_6DENORMEsssb@Base 9.55.0~dfsg1-0ubuntu1
 _ZNK9tesseract18TextlineProjection26DistanceOfBoxFromPartitionERKNS_4TBOXERKNS_12ColPartitionEPKNS_6DENORMEb@Base 9.55.0~dfsg1-0ubuntu1
 _ZNK9tesseract19RowScratchRegisters11GetLineTypeEPKNS_14ParagraphModelE@Base 9.55.0~dfsg1-0ubuntu1
 _ZNK9tesseract19RowScratchRegisters11GetLineTypeEv@Base 9.55.0~dfsg1-0ubuntu1
 _ZNK9tesseract19RowScratchRegisters15AppendDebugInfoERKNS_15ParagraphTheoryEPSt6vectorINS_6STRINGESaIS5_EE@Base 9.55.0~dfsg1-0ubuntu1
 _ZNK9tesseract19RowScratchRegisters15StartHypothesesEPNS_13GenericVectorIPKNS_14ParagraphModelEEE@Base 9.55.0~dfsg1-0ubuntu1
 _ZNK9tesseract19RowScratchRegisters16StrongHypothesesEPNS_13GenericVectorIPKNS_14ParagraphModelEEE@Base 9.55.0~dfsg1-0ubuntu1
 _ZNK9tesseract19RowScratchRegisters17NonNullHypothesesEPNS_13GenericVectorIPKNS_14ParagraphModelEEE@Base 9.55.0~dfsg1-0ubuntu1
 _ZNK9tesseract19RowScratchRegisters20UniqueBodyHypothesisEv@Base 9.55.0~dfsg1-0ubuntu1
 _ZNK9tesseract19RowScratchRegisters21UniqueStartHypothesisEv@Base 9.55.0~dfsg1-0ubuntu1
 _ZNK9tesseract3ROW23restricted_bounding_boxEbb@Base 9.55.0~dfsg1-0ubuntu1
 _ZNK9tesseract4Dawg11match_wordsEPNS_11WERD_CHOICEEili@Base 9.55.0~dfsg1-0ubuntu1
 _ZNK9tesseract4Dawg12word_in_dawgERKNS_11WERD_CHOICEE@Base 9.55.0~dfsg1-0ubuntu1
 _ZNK9tesseract4Dawg13iterate_wordsERKNS_10UNICHARSETESt8functionIFvPKNS_11WERD_CHOICEEEE@Base 9.55.0~dfsg1-0ubuntu1
 _ZNK9tesseract4Dawg13iterate_wordsERKNS_10UNICHARSETESt8functionIFvPKcEE@Base 9.55.0~dfsg1-0ubuntu1
 _ZNK9tesseract4Dawg14prefix_in_dawgERKNS_11WERD_CHOICEEb@Base 9.55.0~dfsg1-0ubuntu1
 _ZNK9tesseract4Dawg15check_for_wordsEPKcRKNS_10UNICHARSETEb@Base 9.55.0~dfsg1-0ubuntu1
 _ZNK9tesseract4Dawg17iterate_words_recERKNS_11WERD_CHOICEElSt8functionIFvPS2_EE@Base 9.55.0~dfsg1-0ubuntu1
 _ZNK9tesseract4Dict10valid_wordERKNS_11WERD_CHOICEEb@Base 9.55.0~dfsg1-0ubuntu1
 _ZNK9tesseract4Dict12valid_bigramERKNS_11WERD_CHOICEES3_@Base 9.55.0~dfsg1-0ubuntu1
 _ZNK9tesseract4Dict13default_dawgsEPNS_18DawgPositionVectorEb@Base 9.55.0~dfsg1-0ubuntu1
 _ZNK9tesseract4Dict16AcceptableResultEPNS_8WERD_RESE@Base 9.55.0~dfsg1-0ubuntu1
 _ZNK9tesseract4Dict17init_active_dawgsEPNS_18DawgPositionVectorEb@Base 9.55.0~dfsg1-0ubuntu1
 _ZNK9tesseract4Dict18def_letter_is_okayEPvRKNS_10UNICHARSETEib@Base 9.55.0~dfsg1-0ubuntu1
 _ZNK9tesseract4Dict19ProcessPatternEdgesEPKNS_4DawgERKNS_12DawgPositionEibPNS_8DawgArgsEPNS_12PermuterTypeE@Base 9.55.0~dfsg1-0ubuntu1
 _ZNK9tesseract4Dict20IsSpaceDelimitedLangEv@Base 9.55.0~dfsg1-0ubuntu1
 _ZNK9tesseract4Dict24LengthOfShortestAlphaRunERKNS_11WERD_CHOICEE@Base 9.55.0~dfsg1-0ubuntu1
 _ZNK9tesseract4Dict7case_okERKNS_11WERD_CHOICEE@Base 9.55.0~dfsg1-0ubuntu1
 _ZNK9tesseract4LLSQ10mean_pointEv@Base 9.55.0~dfsg1-0ubuntu1
 _ZNK9tesseract4LLSQ10vector_fitEv@Base 9.55.0~dfsg1-0ubuntu1
 _ZNK9tesseract4LLSQ1cEd@Base 9.55.0~dfsg1-0ubuntu1
 _ZNK9tesseract4LLSQ1mEv@Base 9.55.0~dfsg1-0ubuntu1
 _ZNK9tesseract4LLSQ3rmsEdd@Base 9.55.0~dfsg1-0ubuntu1
 _ZNK9tesseract4LLSQ7pearsonEv@Base 9.55.0~dfsg1-0ubuntu1
 _ZNK9tesseract4LLSQ8rms_orthERKNS_6FCOORDE@Base 9.55.0~dfsg1-0ubuntu1
 _ZNK9tesseract4LSTM11OutputShapeERKNS_11StaticShapeE@Base 9.55.0~dfsg1-0ubuntu1
 _ZNK9tesseract4LSTM16CountAlternatorsERKNS_7NetworkEPdS4_@Base 9.55.0~dfsg1-0ubuntu1
 _ZNK9tesseract4LSTM9SerializeEPNS_5TFileE@Base 9.55.0~dfsg1-0ubuntu1
 _ZNK9tesseract4SEAM12FullPriorityEiididd@Base 9.55.0~dfsg1-0ubuntu1
 _ZNK9tesseract4SEAM12bounding_boxEv@Base 9.55.0~dfsg1-0ubuntu1
 _ZNK9tesseract4SEAM4HideEv@Base 9.55.0~dfsg1-0ubuntu1
 _ZNK9tesseract4SEAM5PrintEPKc@Base 9.55.0~dfsg1-0ubuntu1
 _ZNK9tesseract4SEAM6RevealEv@Base 9.55.0~dfsg1-0ubuntu1
 _ZNK9tesseract4SEAM8UndoSeamEPNS_5TBLOBES2_@Base 9.55.0~dfsg1-0ubuntu1
 _ZNK9tesseract4SEAM9ApplySeamEbPNS_5TBLOBES2_@Base 9.55.0~dfsg1-0ubuntu1
 _ZNK9tesseract4SEAM9IsHealthyERKNS_5TBLOBEii@Base 9.55.0~dfsg1-0ubuntu1
 _ZNK9tesseract4TBOX12almost_equalERKS0_i@Base 9.55.0~dfsg1-0ubuntu1
 _ZNK9tesseract4TBOX12intersectionERKS0_@Base 9.55.0~dfsg1-0ubuntu1
 _ZNK9tesseract4TBOX12print_to_strEPNS_6STRINGE@Base 9.55.0~dfsg1-0ubuntu1
 _ZNK9tesseract4TBOX14bounding_unionERKS0_@Base 9.55.0~dfsg1-0ubuntu1
 _ZNK9tesseract4TBOX14x_almost_equalERKS0_i@Base 9.55.0~dfsg1-0ubuntu1
 _ZNK9tesseract4TBOX9SerializeEP8_IO_FILE@Base 9.55.0~dfsg1-0ubuntu1
 _ZNK9tesseract4Trie10print_nodeEli@Base 9.55.0~dfsg1-0ubuntu1
 _ZNK9tesseract4Trie12edge_char_ofEllibiPPmPl@Base 9.55.0~dfsg1-0ubuntu1
 _ZNK9tesseract4Trie22unichar_id_to_patternsEiRKNS_10UNICHARSETEPNS_13GenericVectorIiEE@Base 9.55.0~dfsg1-0ubuntu1
 _ZNK9tesseract4WERD12bounding_boxEv@Base 9.55.0~dfsg1-0ubuntu1
 _ZNK9tesseract4WERD17true_bounding_boxEv@Base 9.55.0~dfsg1-0ubuntu1
 _ZNK9tesseract4WERD23restricted_bounding_boxEbb@Base 9.55.0~dfsg1-0ubuntu1
 _ZNK9tesseract5BLOCK23restricted_bounding_boxEbb@Base 9.55.0~dfsg1-0ubuntu1
 _ZNK9tesseract5CLIST6lengthEv@Base 9.55.0~dfsg1-0ubuntu1
 _ZNK9tesseract5ELIST6lengthEv@Base 9.55.0~dfsg1-0ubuntu1
 _ZNK9tesseract5Input12XScaleFactorEv@Base 9.55.0~dfsg1-0ubuntu1
 _ZNK9tesseract5Input9SerializeEPNS_5TFileE@Base 9.55.0~dfsg1-0ubuntu1
 _ZNK9tesseract5SPLIT12FullPriorityEiididd@Base 9.55.0~dfsg1-0ubuntu1
 _ZNK9tesseract5SPLIT12SplitOutlineEv@Base 9.55.0~dfsg1-0ubuntu1
 _ZNK9tesseract5SPLIT13IsLittleChunkEii@Base 9.55.0~dfsg1-0ubuntu1
 _ZNK9tesseract5SPLIT15UnsplitOutlinesEv@Base 9.55.0~dfsg1-0ubuntu1
 _ZNK9tesseract5SPLIT16SplitOutlineListEPNS_8TESSLINEE@Base 9.55.0~dfsg1-0ubuntu1
 _ZNK9tesseract5SPLIT18UnsplitOutlineListEPNS_5TBLOBE@Base 9.55.0~dfsg1-0ubuntu1
 _ZNK9tesseract5SPLIT4HideEv@Base 9.55.0~dfsg1-0ubuntu1
 _ZNK9tesseract5SPLIT5PrintEv@Base 9.55.0~dfsg1-0ubuntu1
 _ZNK9tesseract5SPLIT6RevealEv@Base 9.55.0~dfsg1-0ubuntu1
 _ZNK9tesseract5SPLIT9IsHealthyERKNS_5TBLOBEii@Base 9.55.0~dfsg1-0ubuntu1
 _ZNK9tesseract5STATS10max_bucketEv@Base 9.55.0~dfsg1-0ubuntu1
 _ZNK9tesseract5STATS10min_bucketEv@Base 9.55.0~dfsg1-0ubuntu1
 _ZNK9tesseract5STATS11top_n_modesEiPNS_13GenericVectorINS_9KDPairIncIfiEEEE@Base 9.55.0~dfsg1-0ubuntu1
 _ZNK9tesseract5STATS13print_summaryEv@Base 9.55.0~dfsg1-0ubuntu1
 _ZNK9tesseract5STATS2sdEv@Base 9.55.0~dfsg1-0ubuntu1
 _ZNK9tesseract5STATS3ileEd@Base 9.55.0~dfsg1-0ubuntu1
 _ZNK9tesseract5STATS4meanEv@Base 9.55.0~dfsg1-0ubuntu1
 _ZNK9tesseract5STATS4modeEv@Base 9.55.0~dfsg1-0ubuntu1
 _ZNK9tesseract5STATS5printEv@Base 9.55.0~dfsg1-0ubuntu1
 _ZNK9tesseract5STATS6medianEv@Base 9.55.0~dfsg1-0ubuntu1
 _ZNK9tesseract5STATS9local_minEi@Base 9.55.0~dfsg1-0ubuntu1
 _ZNK9tesseract5Shape10IsSubsetOfERKS0_@Base 9.55.0~dfsg1-0ubuntu1
 _ZNK9tesseract5Shape12ContainsFontEi@Base 9.55.0~dfsg1-0ubuntu1
 _ZNK9tesseract5Shape15ContainsUnicharEi@Base 9.55.0~dfsg1-0ubuntu1
 _ZNK9tesseract5Shape22ContainsFontPropertiesERKNS_13FontInfoTableEj@Base 9.55.0~dfsg1-0ubuntu1
 _ZNK9tesseract5Shape22ContainsUnicharAndFontEii@Base 9.55.0~dfsg1-0ubuntu1
 _ZNK9tesseract5Shape30ContainsMultipleFontPropertiesERKNS_13FontInfoTableE@Base 9.55.0~dfsg1-0ubuntu1
 _ZNK9tesseract5Shape9SerializeEP8_IO_FILE@Base 9.55.0~dfsg1-0ubuntu1
 _ZNK9tesseract5ShapeeqERKS0_@Base 9.55.0~dfsg1-0ubuntu1
 _ZNK9tesseract5TBLOB11NumOutlinesEv@Base 9.55.0~dfsg1-0ubuntu1
 _ZNK9tesseract5TBLOB12CollectEdgesERKNS_4TBOXEPS1_PNS_4LLSQEPNS_13GenericVectorINS7_IiEEEESA_@Base 9.55.0~dfsg1-0ubuntu1
 _ZNK9tesseract5TBLOB12bounding_boxEv@Base 9.55.0~dfsg1-0ubuntu1
 _ZNK9tesseract5TBLOB13GetEdgeCoordsERKNS_4TBOXEPNS_13GenericVectorINS4_IiEEEES7_@Base 9.55.0~dfsg1-0ubuntu1
 _ZNK9tesseract5TBLOB14ComputeMomentsEPNS_6FCOORDES2_@Base 9.55.0~dfsg1-0ubuntu1
 _ZNK9tesseract5TBLOB21GetPreciseBoundingBoxEPNS_4TBOXE@Base 9.55.0~dfsg1-0ubuntu1
 _ZNK9tesseract5TBLOB25ClassifyNormalizeIfNeededEv@Base 9.55.0~dfsg1-0ubuntu1
 _ZNK9tesseract5TWERD12bounding_boxEv@Base 9.55.0~dfsg1-0ubuntu1
 _ZNK9tesseract6C_BLOB12bounding_boxEv@Base 9.55.0~dfsg1-0ubuntu1
 _ZNK9tesseract6DENORM12XHeightRangeEiRKNS_10UNICHARSETERKNS_4TBOXEPfS7_S7_@Base 9.55.0~dfsg1-0ubuntu1
 _ZNK9tesseract6DENORM13LocalNormBlobEPNS_5TBLOBE@Base 9.55.0~dfsg1-0ubuntu1
 _ZNK9tesseract6DENORM13NormTransformEPKS0_RKNS_6FCOORDEPS3_@Base 9.55.0~dfsg1-0ubuntu1
 _ZNK9tesseract6DENORM13NormTransformEPKS0_RKNS_6TPOINTEPS3_@Base 9.55.0~dfsg1-0ubuntu1
 _ZNK9tesseract6DENORM15DenormTransformEPKS0_RKNS_6FCOORDEPS3_@Base 9.55.0~dfsg1-0ubuntu1
 _ZNK9tesseract6DENORM15DenormTransformEPKS0_RKNS_6TPOINTEPS3_@Base 9.55.0~dfsg1-0ubuntu1
 _ZNK9tesseract6DENORM18LocalNormTransformERKNS_6FCOORDEPS1_@Base 9.55.0~dfsg1-0ubuntu1
 _ZNK9tesseract6DENORM18LocalNormTransformERKNS_6TPOINTEPS1_@Base 9.55.0~dfsg1-0ubuntu1
 _ZNK9tesseract6DENORM20LocalDenormTransformERKNS_6FCOORDEPS1_@Base 9.55.0~dfsg1-0ubuntu1
 _ZNK9tesseract6DENORM20LocalDenormTransformERKNS_6TPOINTEPS1_@Base 9.55.0~dfsg1-0ubuntu1
 _ZNK9tesseract6DENORM5PrintEv@Base 9.55.0~dfsg1-0ubuntu1
 _ZNK9tesseract6ELIST26lengthEv@Base 9.55.0~dfsg1-0ubuntu1
 _ZNK9tesseract6FCOORD12to_directionEv@Base 9.55.0~dfsg1-0ubuntu1
 _ZNK9tesseract6FCOORD18nearest_pt_on_lineERKS0_S2_@Base 9.55.0~dfsg1-0ubuntu1
 _ZNK9tesseract6ICOORD12setup_renderEPS0_S1_PiS2_@Base 9.55.0~dfsg1-0ubuntu1
 _ZNK9tesseract6ICOORD9SerializeEP8_IO_FILE@Base 9.55.0~dfsg1-0ubuntu1
 _ZNK9tesseract6MATRIX10ClassifiedEiii@Base 9.55.0~dfsg1-0ubuntu1
 _ZNK9tesseract6MATRIX5printERKNS_10UNICHARSETE@Base 9.55.0~dfsg1-0ubuntu1
 _ZNK9tesseract6MATRIX8DeepCopyEv@Base 9.55.0~dfsg1-0ubuntu1
 _ZNK9tesseract6STRING8containsEc@Base 9.55.0~dfsg1-0ubuntu1
 _ZNK9tesseract6STRING9SerializeEP8_IO_FILE@Base 9.55.0~dfsg1-0ubuntu1
 _ZNK9tesseract6STRING9SerializeEPNS_5TFileE@Base 9.55.0~dfsg1-0ubuntu1
 _ZNK9tesseract6Series11OutputShapeERKNS_11StaticShapeE@Base 9.55.0~dfsg1-0ubuntu1
 _ZNK9tesseract6Series12XScaleFactorEv@Base 9.55.0~dfsg1-0ubuntu1
 _ZNK9tesseract6TO_ROW5printEv@Base 9.55.0~dfsg1-0ubuntu1
 _ZNK9tesseract7BoxWord19ProcessMatchedBlobsERKNS_5TWERDESt8functionIFviEE@Base 9.55.0~dfsg1-0ubuntu1
 _ZNK9tesseract7ERRCODE5errorEPKcNS_16TessErrorLogCodeES2_z@Base 9.55.0~dfsg1-0ubuntu1
 _ZNK9tesseract7IntGrid13AnyZeroInRectERKNS_4TBOXE@Base 9.55.0~dfsg1-0ubuntu1
 _ZNK9tesseract7IntGrid14ThresholdToPixEi@Base 9.55.0~dfsg1-0ubuntu1
 _ZNK9tesseract7IntGrid16NeighbourhoodSumEv@Base 9.55.0~dfsg1-0ubuntu1
 _ZNK9tesseract7IntGrid23RectMostlyOverThresholdERKNS_4TBOXEi@Base 9.55.0~dfsg1-0ubuntu1
 _ZNK9tesseract7Network9SerializeEPNS_5TFileE@Base 9.55.0~dfsg1-0ubuntu1
 _ZNK9tesseract7QSPLINE12spline_indexEd@Base 9.55.0~dfsg1-0ubuntu1
 _ZNK9tesseract7QSPLINE1yEd@Base 9.55.0~dfsg1-0ubuntu1
 _ZNK9tesseract7QSPLINE4plotEP3Pix@Base 9.55.0~dfsg1-0ubuntu1
 _ZNK9tesseract7UNICHAR14const_iterator8get_utf8EPc@Base 9.55.0~dfsg1-0ubuntu1
 _ZNK9tesseract7UNICHAR14const_iterator8is_legalEv@Base 9.55.0~dfsg1-0ubuntu1
 _ZNK9tesseract7UNICHAR14const_iterator8utf8_lenEv@Base 9.55.0~dfsg1-0ubuntu1
 _ZNK9tesseract7UNICHAR14const_iteratordeEv@Base 9.55.0~dfsg1-0ubuntu1
 _ZNK9tesseract7UNICHAR8utf8_strEv@Base 9.55.0~dfsg1-0ubuntu1
 _ZNK9tesseract7UNICHAR9first_uniEv@Base 9.55.0~dfsg1-0ubuntu1
 _ZNK9tesseract8BLOBNBOX12GoodTextBlobEv@Base 9.55.0~dfsg1-0ubuntu1
 _ZNK9tesseract8BLOBNBOX13NeighbourGapsEPi@Base 9.55.0~dfsg1-0ubuntu1
 _ZNK9tesseract8BLOBNBOX15NoisyNeighboursEv@Base 9.55.0~dfsg1-0ubuntu1
 _ZNK9tesseract8BLOBNBOX17MinMaxGapsClippedEPiS1_S1_S1_@Base 9.55.0~dfsg1-0ubuntu1
 _ZNK9tesseract8BLOBNBOX19MatchingStrokeWidthERKS0_dd@Base 9.55.0~dfsg1-0ubuntu1
 _ZNK9tesseract8BLOBNBOX21ConfirmNoTabViolationERKS0_@Base 9.55.0~dfsg1-0ubuntu1
 _ZNK9tesseract8Classify16ShapeIDToClassIDEi@Base 9.55.0~dfsg1-0ubuntu1
 _ZNK9tesseract8Classify17ClassIDToDebugStrEPKNS_20INT_TEMPLATES_STRUCTEii@Base 9.55.0~dfsg1-0ubuntu1
 _ZNK9tesseract8Classify31ClassAndConfigIDToFontOrShapeIDEii@Base 9.55.0~dfsg1-0ubuntu1
 _ZNK9tesseract8Convolve9SerializeEPNS_5TFileE@Base 9.55.0~dfsg1-0ubuntu1
 _ZNK9tesseract8FontInfo9SerializeEP8_IO_FILE@Base 9.55.0~dfsg1-0ubuntu1
 _ZNK9tesseract8GridBase10GridCoordsEiiPiS1_@Base 9.55.0~dfsg1-0ubuntu1
 _ZNK9tesseract8GridBase14ClipGridCoordsEPiS1_@Base 9.55.0~dfsg1-0ubuntu1
 _ZNK9tesseract8IndexMap15SparseToCompactEi@Base 9.55.0~dfsg1-0ubuntu1
 _ZNK9tesseract8IndexMap9SerializeEP8_IO_FILE@Base 9.55.0~dfsg1-0ubuntu1
 _ZNK9tesseract8Parallel11OutputShapeERKNS_11StaticShapeE@Base 9.55.0~dfsg1-0ubuntu1
 _ZNK9tesseract8Plumbing12XScaleFactorEv@Base 9.55.0~dfsg1-0ubuntu1
 _ZNK9tesseract8Plumbing15EnumerateLayersEPKNS_6STRINGEPSt6vectorIS1_SaIS1_EE@Base 9.55.0~dfsg1-0ubuntu1
 _ZNK9tesseract8Plumbing16CountAlternatorsERKNS_7NetworkEPdS4_@Base 9.55.0~dfsg1-0ubuntu1
 _ZNK9tesseract8Plumbing8GetLayerEPKc@Base 9.55.0~dfsg1-0ubuntu1
 _ZNK9tesseract8Plumbing9SerializeEPNS_5TFileE@Base 9.55.0~dfsg1-0ubuntu1
 _ZNK9tesseract8Reconfig11OutputShapeERKNS_11StaticShapeE@Base 9.55.0~dfsg1-0ubuntu1
 _ZNK9tesseract8Reconfig12XScaleFactorEv@Base 9.55.0~dfsg1-0ubuntu1
 _ZNK9tesseract8Reconfig9SerializeEPNS_5TFileE@Base 9.55.0~dfsg1-0ubuntu1
 _ZNK9tesseract8Reversed11OutputShapeERKNS_11StaticShapeE@Base 9.55.0~dfsg1-0ubuntu1
 _ZNK9tesseract8Reversed11ReverseDataERKNS_9NetworkIOEPS1_@Base 9.55.0~dfsg1-0ubuntu1
 _ZNK9tesseract8TESSLINE12bounding_boxEv@Base 9.55.0~dfsg1-0ubuntu1
 _ZNK9tesseract8TESSLINE15FindBestStartPtEv@Base 9.55.0~dfsg1-0ubuntu1
 _ZNK9tesseract8TESSLINE18MinMaxCrossProductENS_6TPOINTEPiS2_@Base 9.55.0~dfsg1-0ubuntu1
 _ZNK9tesseract8WERD_RES13GetBlobChoiceEi@Base 9.55.0~dfsg1-0ubuntu1
 _ZNK9tesseract8WERD_RES14DebugTopChoiceEPKc@Base 9.55.0~dfsg1-0ubuntu1
 _ZNK9tesseract8WERD_RES14GetBlobChoicesEi@Base 9.55.0~dfsg1-0ubuntu1
 _ZNK9tesseract8WERD_RES16PiecesAllNaturalEii@Base 9.55.0~dfsg1-0ubuntu1
 _ZNK9tesseract8WERD_RES16PrintBestChoicesEv@Base 9.55.0~dfsg1-0ubuntu1
 _ZNK9tesseract8WERD_RES37AlternativeChoiceAdjustmentsWorseThanEf@Base 9.55.0~dfsg1-0ubuntu1
 _ZNK9tesseract9BitVector10NextSetBitEi@Base 9.55.0~dfsg1-0ubuntu1
 _ZNK9tesseract9BitVector10NumSetBitsEv@Base 9.55.0~dfsg1-0ubuntu1
 _ZNK9tesseract9BitVector9SerializeEP8_IO_FILE@Base 9.55.0~dfsg1-0ubuntu1
 _ZNK9tesseract9C_OUTLINE10outer_areaEv@Base 9.55.0~dfsg1-0ubuntu1
 _ZNK9tesseract9C_OUTLINE14increment_stepEiiPNS_6ICOORDEPiS3_@Base 9.55.0~dfsg1-0ubuntu1
 _ZNK9tesseract9C_OUTLINE14render_outlineEiiP3Pix@Base 9.55.0~dfsg1-0ubuntu1
 _ZNK9tesseract9C_OUTLINE14turn_directionEv@Base 9.55.0~dfsg1-0ubuntu1
 _ZNK9tesseract9C_OUTLINE14winding_numberENS_6ICOORDE@Base 9.55.0~dfsg1-0ubuntu1
 _ZNK9tesseract9C_OUTLINE15IsLegallyNestedEv@Base 9.55.0~dfsg1-0ubuntu1
 _ZNK9tesseract9C_OUTLINE4areaEv@Base 9.55.0~dfsg1-0ubuntu1
 _ZNK9tesseract9C_OUTLINE6renderEiiP3Pix@Base 9.55.0~dfsg1-0ubuntu1
 _ZNK9tesseract9C_OUTLINE9perimeterEv@Base 9.55.0~dfsg1-0ubuntu1
 _ZNK9tesseract9C_OUTLINEltERKS0_@Base 9.55.0~dfsg1-0ubuntu1
 _ZNK9tesseract9ImageData10MemoryUsedEv@Base 9.55.0~dfsg1-0ubuntu1
 _ZNK9tesseract9ImageData6GetPixEv@Base 9.55.0~dfsg1-0ubuntu1
 _ZNK9tesseract9ImageData8PreScaleEiiPfPiS2_PNS_13GenericVectorINS_4TBOXEEE@Base 9.55.0~dfsg1-0ubuntu1
 _ZNK9tesseract9ImageData9SerializeEPNS_5TFileE@Base 9.55.0~dfsg1-0ubuntu1
 _ZNK9tesseract9NetworkIO10MinOfMaxesEv@Base 9.55.0~dfsg1-0ubuntu1
 _ZNK9tesseract9NetworkIO11AddTimeStepEiPd@Base 9.55.0~dfsg1-0ubuntu1
 _ZNK9tesseract9NetworkIO12ReadTimeStepEiPd@Base 9.55.0~dfsg1-0ubuntu1
 _ZNK9tesseract9NetworkIO13ScoreOfLabelsERKNS_13GenericVectorIiEEi@Base 9.55.0~dfsg1-0ubuntu1
 _ZNK9tesseract9NetworkIO15AddTimeStepPartEiiiPf@Base 9.55.0~dfsg1-0ubuntu1
 _ZNK9tesseract9NetworkIO15ScoresOverRangeEiiiiPfS1_@Base 9.55.0~dfsg1-0ubuntu1
 _ZNK9tesseract9NetworkIO18AnySuspiciousTruthEf@Base 9.55.0~dfsg1-0ubuntu1
 _ZNK9tesseract9NetworkIO19BestChoiceOverRangeEiiiiPfS1_@Base 9.55.0~dfsg1-0ubuntu1
 _ZNK9tesseract9NetworkIO19PositionOfBestMatchERKNS_13GenericVectorIiEEii@Base 9.55.0~dfsg1-0ubuntu1
 _ZNK9tesseract9NetworkIO5PrintEi@Base 9.55.0~dfsg1-0ubuntu1
 _ZNK9tesseract9NetworkIO5ToPixEv@Base 9.55.0~dfsg1-0ubuntu1
 _ZNK9tesseract9NetworkIO9BestLabelEiiiPf@Base 9.55.0~dfsg1-0ubuntu1
 _ZNK9tesseract9NetworkIO9TransposeEPNS_15TransposedArrayE@Base 9.55.0~dfsg1-0ubuntu1
 _ZNK9tesseract9OSResults12print_scoresEi@Base 9.55.0~dfsg1-0ubuntu1
 _ZNK9tesseract9OSResults12print_scoresEv@Base 9.55.0~dfsg1-0ubuntu1
 _ZNK9tesseract9OSResults15get_best_scriptEi@Base 9.55.0~dfsg1-0ubuntu1
 _ZNK9tesseract9StrideMap5Index13MaxIndexOfDimENS_14FlexDimensionsE@Base 9.55.0~dfsg1-0ubuntu1
 _ZNK9tesseract9StrideMap5Index6IsLastENS_14FlexDimensionsE@Base 9.55.0~dfsg1-0ubuntu1
 _ZNK9tesseract9StrideMap5Index7IsValidEv@Base 9.55.0~dfsg1-0ubuntu1
 _ZNK9tesseract9TabVector11ShallowCopyEv@Base 9.55.0~dfsg1-0ubuntu1
 _ZNK9tesseract9TabVector9SimilarToERKNS_6ICOORDERKS0_PNS_8BlobGridE@Base 9.55.0~dfsg1-0ubuntu1
 _ZNK9tesseract9Tesseract10join_wordsEPNS_8WERD_RESES2_PNS_12BlamerBundleE@Base 9.55.0~dfsg1-0ubuntu1
 _ZNK9tesseract9Tesseract10split_wordEPNS_8WERD_RESEiPS2_PPNS_12BlamerBundleE@Base 9.55.0~dfsg1-0ubuntu1
 _ZNK9tesseract9Tesseract12GetRectImageERKNS_4TBOXERKNS_5BLOCKEiPS1_@Base 9.55.0~dfsg1-0ubuntu1
 _ZNK9tesseract9Tesseract21BelievableSuperscriptEbRKNS_8WERD_RESEfPiS4_@Base 9.55.0~dfsg1-0ubuntu1
 _ZNSt17_Function_handlerIFPN9tesseract4DawgEvESt5_BindIFMNS0_10DawgLoaderEFS2_vEPS5_EEE10_M_managerERSt9_Any_dataRKSC_St18_Manager_operation@Base 9.55.0~dfsg1-0ubuntu1
 _ZNSt17_Function_handlerIFPN9tesseract4DawgEvESt5_BindIFMNS0_10DawgLoaderEFS2_vEPS5_EEE9_M_invokeERKSt9_Any_data@Base 9.55.0~dfsg1-0ubuntu1
 _ZNSt17_Function_handlerIFPcS0_iESt5_BindIFMN9tesseract16LocalFilePointerEFS0_S0_iEPS4_St12_PlaceholderILi1EES8_ILi2EEEEE10_M_managerERSt9_Any_dataRKSE_St18_Manager_operation@Base 9.55.0~dfsg1-0ubuntu1
 _ZNSt17_Function_handlerIFPcS0_iESt5_BindIFMN9tesseract16LocalFilePointerEFS0_S0_iEPS4_St12_PlaceholderILi1EES8_ILi2EEEEE9_M_invokeERKSt9_Any_dataOS0_Oi@Base 9.55.0~dfsg1-0ubuntu1
 _ZNSt17_Function_handlerIFPcS0_iESt5_BindIFMN9tesseract5TFileEFS0_S0_iEPS4_St12_PlaceholderILi1EES8_ILi2EEEEE10_M_managerERSt9_Any_dataRKSE_St18_Manager_operation@Base 9.55.0~dfsg1-0ubuntu1
 _ZNSt17_Function_handlerIFPcS0_iESt5_BindIFMN9tesseract5TFileEFS0_S0_iEPS4_St12_PlaceholderILi1EES8_ILi2EEEEE9_M_invokeERKSt9_Any_dataOS0_Oi@Base 9.55.0~dfsg1-0ubuntu1
 _ZNSt17_Function_handlerIFbP8_IO_FILERKN9tesseract7FontSetEESt5_BindIFPS6_St12_PlaceholderILi1EES9_ILi2EEEEE10_M_managerERSt9_Any_dataRKSF_St18_Manager_operation@Base 9.55.0~dfsg1-0ubuntu1
 _ZNSt17_Function_handlerIFbP8_IO_FILERKN9tesseract7FontSetEESt5_BindIFPS6_St12_PlaceholderILi1EES9_ILi2EEEEE9_M_invokeERKSt9_Any_dataOS1_S5_@Base 9.55.0~dfsg1-0ubuntu1
 _ZNSt17_Function_handlerIFbP8_IO_FILERKN9tesseract8FontInfoEESt5_BindIFPS6_St12_PlaceholderILi1EES9_ILi2EEEEE10_M_managerERSt9_Any_dataRKSF_St18_Manager_operation@Base 9.55.0~dfsg1-0ubuntu1
 _ZNSt17_Function_handlerIFbP8_IO_FILERKN9tesseract8FontInfoEESt5_BindIFPS6_St12_PlaceholderILi1EES9_ILi2EEEEE9_M_invokeERKSt9_Any_dataOS1_S5_@Base 9.55.0~dfsg1-0ubuntu1
 _ZNSt17_Function_handlerIFbPKN9tesseract12ColPartitionES3_ESt5_BindIFMNS0_11StrokeWidthEFbS3_S3_EPS6_St12_PlaceholderILi1EESA_ILi2EEEEE10_M_managerERSt9_Any_dataRKSG_St18_Manager_operation@Base 9.55.0~dfsg1-0ubuntu1
 _ZNSt17_Function_handlerIFbPKN9tesseract12ColPartitionES3_ESt5_BindIFMNS0_11StrokeWidthEFbS3_S3_EPS6_St12_PlaceholderILi1EESA_ILi2EEEEE9_M_invokeERKSt9_Any_dataOS3_SJ_@Base 9.55.0~dfsg1-0ubuntu1
 _ZNSt17_Function_handlerIFbPN9tesseract12ColPartitionEPNS0_4TBOXEESt5_BindIFMNS0_11StrokeWidthEFbS2_S4_EPS7_St12_PlaceholderILi1EESB_ILi2EEEEE10_M_managerERSt9_Any_dataRKSH_St18_Manager_operation@Base 9.55.0~dfsg1-0ubuntu1
 _ZNSt17_Function_handlerIFbPN9tesseract12ColPartitionEPNS0_4TBOXEESt5_BindIFMNS0_11StrokeWidthEFbS2_S4_EPS7_St12_PlaceholderILi1EESB_ILi2EEEEE9_M_invokeERKSt9_Any_dataOS2_OS4_@Base 9.55.0~dfsg1-0ubuntu1
 _ZNSt17_Function_handlerIFbPN9tesseract5TFileEPNS0_7FontSetEESt5_BindIFPS5_St12_PlaceholderILi1EES8_ILi2EEEEE10_M_managerERSt9_Any_dataRKSE_St18_Manager_operation@Base 9.55.0~dfsg1-0ubuntu1
 _ZNSt17_Function_handlerIFbPN9tesseract5TFileEPNS0_7FontSetEESt5_BindIFPS5_St12_PlaceholderILi1EES8_ILi2EEEEE9_M_invokeERKSt9_Any_dataOS2_OS4_@Base 9.55.0~dfsg1-0ubuntu1
 _ZNSt17_Function_handlerIFbPN9tesseract5TFileEPNS0_8FontInfoEESt5_BindIFPS5_St12_PlaceholderILi1EES8_ILi2EEEEE10_M_managerERSt9_Any_dataRKSE_St18_Manager_operation@Base 9.55.0~dfsg1-0ubuntu1
 _ZNSt17_Function_handlerIFbPN9tesseract5TFileEPNS0_8FontInfoEESt5_BindIFPS5_St12_PlaceholderILi1EES8_ILi2EEEEE9_M_invokeERKSt9_Any_dataOS2_OS4_@Base 9.55.0~dfsg1-0ubuntu1
 _ZNSt17_Function_handlerIFbRKN9tesseract4TBOXES3_ESt5_BindIFMNS0_8WERD_RESEFbS3_S3_EPS6_St12_PlaceholderILi1EESA_ILi2EEEEE10_M_managerERSt9_Any_dataRKSG_St18_Manager_operation@Base 9.55.0~dfsg1-0ubuntu1
 _ZNSt17_Function_handlerIFbRKN9tesseract4TBOXES3_ESt5_BindIFMNS0_8WERD_RESEFbS3_S3_EPS6_St12_PlaceholderILi1EESA_ILi2EEEEE9_M_invokeERKSt9_Any_dataS3_S3_@Base 9.55.0~dfsg1-0ubuntu1
 _ZNSt17_Function_handlerIFbiESt5_BindIFMN9tesseract7TabFindEFbiEPS3_St12_PlaceholderILi1EEEEE10_M_managerERSt9_Any_dataRKSC_St18_Manager_operation@Base 9.55.0~dfsg1-0ubuntu1
 _ZNSt17_Function_handlerIFbiESt5_BindIFMN9tesseract7TabFindEFbiEPS3_St12_PlaceholderILi1EEEEE9_M_invokeERKSt9_Any_dataOi@Base 9.55.0~dfsg1-0ubuntu1
 _ZNSt17_Function_handlerIFiiiESt5_BindIFMN9tesseract8WERD_RESEFiiiEPS3_St12_PlaceholderILi1EES7_ILi2EEEEE10_M_managerERSt9_Any_dataRKSD_St18_Manager_operation@Base 9.55.0~dfsg1-0ubuntu1
 _ZNSt17_Function_handlerIFiiiESt5_BindIFMN9tesseract8WERD_RESEFiiiEPS3_St12_PlaceholderILi1EES7_ILi2EEEEE9_M_invokeERKSt9_Any_dataOiSG_@Base 9.55.0~dfsg1-0ubuntu1
 _ZNSt17_Function_handlerIFvN9tesseract7FontSetEESt5_BindIFPS2_St12_PlaceholderILi1EEEEE10_M_managerERSt9_Any_dataRKSA_St18_Manager_operation@Base 9.55.0~dfsg1-0ubuntu1
 _ZNSt17_Function_handlerIFvN9tesseract7FontSetEESt5_BindIFPS2_St12_PlaceholderILi1EEEEE9_M_invokeERKSt9_Any_dataOS1_@Base 9.55.0~dfsg1-0ubuntu1
 _ZNSt17_Function_handlerIFvN9tesseract8FontInfoEESt5_BindIFPS2_St12_PlaceholderILi1EEEEE10_M_managerERSt9_Any_dataRKSA_St18_Manager_operation@Base 9.55.0~dfsg1-0ubuntu1
 _ZNSt17_Function_handlerIFvN9tesseract8FontInfoEESt5_BindIFPS2_St12_PlaceholderILi1EEEEE9_M_invokeERKSt9_Any_dataOS1_@Base 9.55.0~dfsg1-0ubuntu1
 _ZNSt17_Function_handlerIFvPKN9tesseract11WERD_CHOICEEESt5_BindIFPFvSt8functionIFvPKcEES3_ESA_St12_PlaceholderILi1EEEEE10_M_managerERSt9_Any_dataRKSI_St18_Manager_operation@Base 9.55.0~dfsg1-0ubuntu1
 _ZNSt17_Function_handlerIFvPKN9tesseract11WERD_CHOICEEESt5_BindIFPFvSt8functionIFvPKcEES3_ESA_St12_PlaceholderILi1EEEEE9_M_invokeERKSt9_Any_dataOS3_@Base 9.55.0~dfsg1-0ubuntu1
 _ZNSt17_Function_handlerIFviESt5_BindIFPFvPN9tesseract8WERD_RESERsS5_iES4_ssSt12_PlaceholderILi1EEEEE10_M_managerERSt9_Any_dataRKSD_St18_Manager_operation@Base 9.55.0~dfsg1-0ubuntu1
 _ZNSt17_Function_handlerIFviESt5_BindIFPFvPN9tesseract8WERD_RESERsS5_iES4_ssSt12_PlaceholderILi1EEEEE9_M_invokeERKSt9_Any_dataOi@Base 9.55.0~dfsg1-0ubuntu1
 _ZNSt17_Function_handlerIFviESt5_BindIFPFvPN9tesseract8WERD_RESEiES4_St12_PlaceholderILi1EEEEE10_M_managerERSt9_Any_dataRKSC_St18_Manager_operation@Base 9.55.0~dfsg1-0ubuntu1
 _ZNSt17_Function_handlerIFviESt5_BindIFPFvPN9tesseract8WERD_RESEiES4_St12_PlaceholderILi1EEEEE9_M_invokeERKSt9_Any_dataOi@Base 9.55.0~dfsg1-0ubuntu1
 _ZNSt17_Function_handlerIFviESt5_BindIFPFvRsiEsSt12_PlaceholderILi1EEEEE10_M_managerERSt9_Any_dataRKSA_St18_Manager_operation@Base 9.55.0~dfsg1-0ubuntu1
 _ZNSt17_Function_handlerIFviESt5_BindIFPFvRsiEsSt12_PlaceholderILi1EEEEE9_M_invokeERKSt9_Any_dataOi@Base 9.55.0~dfsg1-0ubuntu1
 _ZTIN9tesseract11AlignedBlobE@Base 9.55.0~dfsg1-0ubuntu1
 _ZTIN9tesseract11StrokeWidthE@Base 9.55.0~dfsg1-0ubuntu1
 _ZTIN9tesseract11TessBaseAPIE@Base 9.55.0~dfsg1-0ubuntu1
 _ZTIN9tesseract12ColumnFinderE@Base 9.55.0~dfsg1-0ubuntu1
 _ZTIN9tesseract12IndexMapBiDiE@Base 9.55.0~dfsg1-0ubuntu1
 _ZTIN9tesseract12PageIteratorE@Base 9.55.0~dfsg1-0ubuntu1
 _ZTIN9tesseract12SquishedDawgE@Base 9.55.0~dfsg1-0ubuntu1
 _ZTIN9tesseract13BandTriMatrixIPNS_16BLOB_CHOICE_LISTEEE@Base 9.55.0~dfsg1-0ubuntu1
 _ZTIN9tesseract14EquationDetectE@Base 9.55.0~dfsg1-0ubuntu1
 _ZTIN9tesseract14FullyConnectedE@Base 9.55.0~dfsg1-0ubuntu1
 _ZTIN9tesseract14ResultIteratorE@Base 9.55.0~dfsg1-0ubuntu1
 _ZTIN9tesseract14SVEventHandlerE@Base 9.55.0~dfsg1-0ubuntu1
 _ZTIN9tesseract14TessClassifierE@Base 9.55.0~dfsg1-0ubuntu1
 _ZTIN9tesseract15CCNonTextDetectE@Base 9.55.0~dfsg1-0ubuntu1
 _ZTIN9tesseract15MutableIteratorE@Base 9.55.0~dfsg1-0ubuntu1
 _ZTIN9tesseract15ShapeClassifierE@Base 9.55.0~dfsg1-0ubuntu1
 _ZTIN9tesseract15TessOsdRendererE@Base 9.55.0~dfsg1-0ubuntu1
 _ZTIN9tesseract15TessPDFRendererE@Base 9.55.0~dfsg1-0ubuntu1
 _ZTIN9tesseract15TessTsvRendererE@Base 9.55.0~dfsg1-0ubuntu1
 _ZTIN9tesseract15TransposedArrayE@Base 9.55.0~dfsg1-0ubuntu1
 _ZTIN9tesseract16ColPartitionGridE@Base 9.55.0~dfsg1-0ubuntu1
 _ZTIN9tesseract16GENERIC_2D_ARRAYIPNS_16BLOB_CHOICE_LISTEEE@Base 9.55.0~dfsg1-0ubuntu1
 _ZTIN9tesseract16GENERIC_2D_ARRAYIdEE@Base 9.55.0~dfsg1-0ubuntu1
 _ZTIN9tesseract16ImageThresholderE@Base 9.55.0~dfsg1-0ubuntu1
 _ZTIN9tesseract16TessAltoRendererE@Base 9.55.0~dfsg1-0ubuntu1
 _ZTIN9tesseract16TessHOcrRendererE@Base 9.55.0~dfsg1-0ubuntu1
 _ZTIN9tesseract16TessTextRendererE@Base 9.55.0~dfsg1-0ubuntu1
 _ZTIN9tesseract16TessUnlvRendererE@Base 9.55.0~dfsg1-0ubuntu1
 _ZTIN9tesseract17LTRResultIteratorE@Base 9.55.0~dfsg1-0ubuntu1
 _ZTIN9tesseract18EquationDetectBaseE@Base 9.55.0~dfsg1-0ubuntu1
 _ZTIN9tesseract18ShiroRekhaSplitterE@Base 9.55.0~dfsg1-0ubuntu1
 _ZTIN9tesseract18TessResultRendererE@Base 9.55.0~dfsg1-0ubuntu1
 _ZTIN9tesseract19TessBoxTextRendererE@Base 9.55.0~dfsg1-0ubuntu1
 _ZTIN9tesseract19TessLSTMBoxRendererE@Base 9.55.0~dfsg1-0ubuntu1
 _ZTIN9tesseract22TessWordStrBoxRendererE@Base 9.55.0~dfsg1-0ubuntu1
 _ZTIN9tesseract4DawgE@Base 9.55.0~dfsg1-0ubuntu1
 _ZTIN9tesseract4LSTME@Base 9.55.0~dfsg1-0ubuntu1
 _ZTIN9tesseract4TrieE@Base 9.55.0~dfsg1-0ubuntu1
 _ZTIN9tesseract5InputE@Base 9.55.0~dfsg1-0ubuntu1
 _ZTIN9tesseract6BBGridINS_12ColPartitionENS_18ColPartition_CLISTENS_17ColPartition_C_ITEEE@Base 9.55.0~dfsg1-0ubuntu1
 _ZTIN9tesseract6BBGridINS_8BLOBNBOXENS_14BLOBNBOX_CLISTENS_13BLOBNBOX_C_ITEEE@Base 9.55.0~dfsg1-0ubuntu1
 _ZTIN9tesseract6CCUtilE@Base 9.55.0~dfsg1-0ubuntu1
 _ZTIN9tesseract6MATRIXE@Base 9.55.0~dfsg1-0ubuntu1
 _ZTIN9tesseract6SeriesE@Base 9.55.0~dfsg1-0ubuntu1
 _ZTIN9tesseract7IntGridE@Base 9.55.0~dfsg1-0ubuntu1
 _ZTIN9tesseract7MaxpoolE@Base 9.55.0~dfsg1-0ubuntu1
 _ZTIN9tesseract7NetworkE@Base 9.55.0~dfsg1-0ubuntu1
 _ZTIN9tesseract7TabFindE@Base 9.55.0~dfsg1-0ubuntu1
 _ZTIN9tesseract7WordrecE@Base 9.55.0~dfsg1-0ubuntu1
 _ZTIN9tesseract8BlobGridE@Base 9.55.0~dfsg1-0ubuntu1
 _ZTIN9tesseract8CCStructE@Base 9.55.0~dfsg1-0ubuntu1
 _ZTIN9tesseract8ClassifyE@Base 9.55.0~dfsg1-0ubuntu1
 _ZTIN9tesseract8ConvolveE@Base 9.55.0~dfsg1-0ubuntu1
 _ZTIN9tesseract8GridBaseE@Base 9.55.0~dfsg1-0ubuntu1
 _ZTIN9tesseract8IndexMapE@Base 9.55.0~dfsg1-0ubuntu1
 _ZTIN9tesseract8ParallelE@Base 9.55.0~dfsg1-0ubuntu1
 _ZTIN9tesseract8PlumbingE@Base 9.55.0~dfsg1-0ubuntu1
 _ZTIN9tesseract8ReconfigE@Base 9.55.0~dfsg1-0ubuntu1
 _ZTIN9tesseract8ReversedE@Base 9.55.0~dfsg1-0ubuntu1
 _ZTIN9tesseract9TesseractE@Base 9.55.0~dfsg1-0ubuntu1
 _ZTISt17_Weak_result_typeIMN9tesseract10DawgLoaderEFPNS0_4DawgEvEE@Base 9.55.0~dfsg1-0ubuntu1
 _ZTISt17_Weak_result_typeIMN9tesseract11StrokeWidthEFbPKNS0_12ColPartitionES4_EE@Base 9.55.0~dfsg1-0ubuntu1
 _ZTISt17_Weak_result_typeIMN9tesseract11StrokeWidthEFbPNS0_12ColPartitionEPNS0_4TBOXEEE@Base 9.55.0~dfsg1-0ubuntu1
 _ZTISt17_Weak_result_typeIMN9tesseract16LocalFilePointerEFPcS2_iEE@Base 9.55.0~dfsg1-0ubuntu1
 _ZTISt17_Weak_result_typeIMN9tesseract5TFileEFPcS2_iEE@Base 9.55.0~dfsg1-0ubuntu1
 _ZTISt17_Weak_result_typeIMN9tesseract7TabFindEFbiEE@Base 9.55.0~dfsg1-0ubuntu1
 _ZTISt17_Weak_result_typeIMN9tesseract8WERD_RESEFbRKNS0_4TBOXES4_EE@Base 9.55.0~dfsg1-0ubuntu1
 _ZTISt17_Weak_result_typeIMN9tesseract8WERD_RESEFiiiEE@Base 9.55.0~dfsg1-0ubuntu1
 _ZTISt17_Weak_result_typeIPFbP8_IO_FILERKN9tesseract7FontSetEEE@Base 9.55.0~dfsg1-0ubuntu1
 _ZTISt17_Weak_result_typeIPFbP8_IO_FILERKN9tesseract8FontInfoEEE@Base 9.55.0~dfsg1-0ubuntu1
 _ZTISt17_Weak_result_typeIPFbPN9tesseract5TFileEPNS0_7FontSetEEE@Base 9.55.0~dfsg1-0ubuntu1
 _ZTISt17_Weak_result_typeIPFbPN9tesseract5TFileEPNS0_8FontInfoEEE@Base 9.55.0~dfsg1-0ubuntu1
 _ZTISt17_Weak_result_typeIPFvN9tesseract7FontSetEEE@Base 9.55.0~dfsg1-0ubuntu1
 _ZTISt17_Weak_result_typeIPFvN9tesseract8FontInfoEEE@Base 9.55.0~dfsg1-0ubuntu1
 _ZTISt17_Weak_result_typeIPFvPN9tesseract8WERD_RESERsS3_iEE@Base 9.55.0~dfsg1-0ubuntu1
 _ZTISt17_Weak_result_typeIPFvPN9tesseract8WERD_RESEiEE@Base 9.55.0~dfsg1-0ubuntu1
 _ZTISt17_Weak_result_typeIPFvRsiEE@Base 9.55.0~dfsg1-0ubuntu1
 _ZTISt17_Weak_result_typeIPFvSt8functionIFvPKcEEPKN9tesseract11WERD_CHOICEEEE@Base 9.55.0~dfsg1-0ubuntu1
 _ZTISt22_Weak_result_type_implIPFbP8_IO_FILERKN9tesseract7FontSetEEE@Base 9.55.0~dfsg1-0ubuntu1
 _ZTISt22_Weak_result_type_implIPFbP8_IO_FILERKN9tesseract8FontInfoEEE@Base 9.55.0~dfsg1-0ubuntu1
 _ZTISt22_Weak_result_type_implIPFbPN9tesseract5TFileEPNS0_7FontSetEEE@Base 9.55.0~dfsg1-0ubuntu1
 _ZTISt22_Weak_result_type_implIPFbPN9tesseract5TFileEPNS0_8FontInfoEEE@Base 9.55.0~dfsg1-0ubuntu1
 _ZTISt22_Weak_result_type_implIPFvN9tesseract7FontSetEEE@Base 9.55.0~dfsg1-0ubuntu1
 _ZTISt22_Weak_result_type_implIPFvN9tesseract8FontInfoEEE@Base 9.55.0~dfsg1-0ubuntu1
 _ZTISt22_Weak_result_type_implIPFvPN9tesseract8WERD_RESERsS3_iEE@Base 9.55.0~dfsg1-0ubuntu1
 _ZTISt22_Weak_result_type_implIPFvPN9tesseract8WERD_RESEiEE@Base 9.55.0~dfsg1-0ubuntu1
 _ZTISt22_Weak_result_type_implIPFvRsiEE@Base 9.55.0~dfsg1-0ubuntu1
 _ZTISt22_Weak_result_type_implIPFvSt8functionIFvPKcEEPKN9tesseract11WERD_CHOICEEEE@Base 9.55.0~dfsg1-0ubuntu1
 _ZTISt24_Weak_result_type_memfunIMN9tesseract10DawgLoaderEFPNS0_4DawgEvELb1EE@Base 9.55.0~dfsg1-0ubuntu1
 _ZTISt24_Weak_result_type_memfunIMN9tesseract11StrokeWidthEFbPKNS0_12ColPartitionES4_ELb1EE@Base 9.55.0~dfsg1-0ubuntu1
 _ZTISt24_Weak_result_type_memfunIMN9tesseract11StrokeWidthEFbPNS0_12ColPartitionEPNS0_4TBOXEELb1EE@Base 9.55.0~dfsg1-0ubuntu1
 _ZTISt24_Weak_result_type_memfunIMN9tesseract16LocalFilePointerEFPcS2_iELb1EE@Base 9.55.0~dfsg1-0ubuntu1
 _ZTISt24_Weak_result_type_memfunIMN9tesseract5TFileEFPcS2_iELb1EE@Base 9.55.0~dfsg1-0ubuntu1
 _ZTISt24_Weak_result_type_memfunIMN9tesseract7TabFindEFbiELb1EE@Base 9.55.0~dfsg1-0ubuntu1
 _ZTISt24_Weak_result_type_memfunIMN9tesseract8WERD_RESEFbRKNS0_4TBOXES4_ELb1EE@Base 9.55.0~dfsg1-0ubuntu1
 _ZTISt24_Weak_result_type_memfunIMN9tesseract8WERD_RESEFiiiELb1EE@Base 9.55.0~dfsg1-0ubuntu1
 _ZTISt24_Weak_result_type_memfunIPFbP8_IO_FILERKN9tesseract7FontSetEELb0EE@Base 9.55.0~dfsg1-0ubuntu1
 _ZTISt24_Weak_result_type_memfunIPFbP8_IO_FILERKN9tesseract8FontInfoEELb0EE@Base 9.55.0~dfsg1-0ubuntu1
 _ZTISt24_Weak_result_type_memfunIPFbPN9tesseract5TFileEPNS0_7FontSetEELb0EE@Base 9.55.0~dfsg1-0ubuntu1
 _ZTISt24_Weak_result_type_memfunIPFbPN9tesseract5TFileEPNS0_8FontInfoEELb0EE@Base 9.55.0~dfsg1-0ubuntu1
 _ZTISt24_Weak_result_type_memfunIPFvN9tesseract7FontSetEELb0EE@Base 9.55.0~dfsg1-0ubuntu1
 _ZTISt24_Weak_result_type_memfunIPFvN9tesseract8FontInfoEELb0EE@Base 9.55.0~dfsg1-0ubuntu1
 _ZTISt24_Weak_result_type_memfunIPFvPN9tesseract8WERD_RESERsS3_iELb0EE@Base 9.55.0~dfsg1-0ubuntu1
 _ZTISt24_Weak_result_type_memfunIPFvPN9tesseract8WERD_RESEiELb0EE@Base 9.55.0~dfsg1-0ubuntu1
 _ZTISt24_Weak_result_type_memfunIPFvRsiELb0EE@Base 9.55.0~dfsg1-0ubuntu1
 _ZTISt24_Weak_result_type_memfunIPFvSt8functionIFvPKcEEPKN9tesseract11WERD_CHOICEEELb0EE@Base 9.55.0~dfsg1-0ubuntu1
 _ZTISt5_BindIFMN9tesseract10DawgLoaderEFPNS0_4DawgEvEPS1_EE@Base 9.55.0~dfsg1-0ubuntu1
 _ZTISt5_BindIFMN9tesseract11StrokeWidthEFbPKNS0_12ColPartitionES4_EPS1_St12_PlaceholderILi1EES8_ILi2EEEE@Base 9.55.0~dfsg1-0ubuntu1
 _ZTISt5_BindIFMN9tesseract11StrokeWidthEFbPNS0_12ColPartitionEPNS0_4TBOXEEPS1_St12_PlaceholderILi1EES9_ILi2EEEE@Base 9.55.0~dfsg1-0ubuntu1
 _ZTISt5_BindIFMN9tesseract16LocalFilePointerEFPcS2_iEPS1_St12_PlaceholderILi1EES6_ILi2EEEE@Base 9.55.0~dfsg1-0ubuntu1
 _ZTISt5_BindIFMN9tesseract5TFileEFPcS2_iEPS1_St12_PlaceholderILi1EES6_ILi2EEEE@Base 9.55.0~dfsg1-0ubuntu1
 _ZTISt5_BindIFMN9tesseract7TabFindEFbiEPS1_St12_PlaceholderILi1EEEE@Base 9.55.0~dfsg1-0ubuntu1
 _ZTISt5_BindIFMN9tesseract8WERD_RESEFbRKNS0_4TBOXES4_EPS1_St12_PlaceholderILi1EES8_ILi2EEEE@Base 9.55.0~dfsg1-0ubuntu1
 _ZTISt5_BindIFMN9tesseract8WERD_RESEFiiiEPS1_St12_PlaceholderILi1EES5_ILi2EEEE@Base 9.55.0~dfsg1-0ubuntu1
 _ZTISt5_BindIFPFbP8_IO_FILERKN9tesseract7FontSetEESt12_PlaceholderILi1EES8_ILi2EEEE@Base 9.55.0~dfsg1-0ubuntu1
 _ZTISt5_BindIFPFbP8_IO_FILERKN9tesseract8FontInfoEESt12_PlaceholderILi1EES8_ILi2EEEE@Base 9.55.0~dfsg1-0ubuntu1
 _ZTISt5_BindIFPFbPN9tesseract5TFileEPNS0_7FontSetEESt12_PlaceholderILi1EES7_ILi2EEEE@Base 9.55.0~dfsg1-0ubuntu1
 _ZTISt5_BindIFPFbPN9tesseract5TFileEPNS0_8FontInfoEESt12_PlaceholderILi1EES7_ILi2EEEE@Base 9.55.0~dfsg1-0ubuntu1
 _ZTISt5_BindIFPFvN9tesseract7FontSetEESt12_PlaceholderILi1EEEE@Base 9.55.0~dfsg1-0ubuntu1
 _ZTISt5_BindIFPFvN9tesseract8FontInfoEESt12_PlaceholderILi1EEEE@Base 9.55.0~dfsg1-0ubuntu1
 _ZTISt5_BindIFPFvPN9tesseract8WERD_RESERsS3_iES2_ssSt12_PlaceholderILi1EEEE@Base 9.55.0~dfsg1-0ubuntu1
 _ZTISt5_BindIFPFvPN9tesseract8WERD_RESEiES2_St12_PlaceholderILi1EEEE@Base 9.55.0~dfsg1-0ubuntu1
 _ZTISt5_BindIFPFvRsiEsSt12_PlaceholderILi1EEEE@Base 9.55.0~dfsg1-0ubuntu1
 _ZTISt5_BindIFPFvSt8functionIFvPKcEEPKN9tesseract11WERD_CHOICEEES4_St12_PlaceholderILi1EEEE@Base 9.55.0~dfsg1-0ubuntu1
 _ZTSN9tesseract11AlignedBlobE@Base 9.55.0~dfsg1-0ubuntu1
 _ZTSN9tesseract11StrokeWidthE@Base 9.55.0~dfsg1-0ubuntu1
 _ZTSN9tesseract11TessBaseAPIE@Base 9.55.0~dfsg1-0ubuntu1
 _ZTSN9tesseract12ColumnFinderE@Base 9.55.0~dfsg1-0ubuntu1
 _ZTSN9tesseract12IndexMapBiDiE@Base 9.55.0~dfsg1-0ubuntu1
 _ZTSN9tesseract12PageIteratorE@Base 9.55.0~dfsg1-0ubuntu1
 _ZTSN9tesseract12SquishedDawgE@Base 9.55.0~dfsg1-0ubuntu1
 _ZTSN9tesseract13BandTriMatrixIPNS_16BLOB_CHOICE_LISTEEE@Base 9.55.0~dfsg1-0ubuntu1
 _ZTSN9tesseract14EquationDetectE@Base 9.55.0~dfsg1-0ubuntu1
 _ZTSN9tesseract14FullyConnectedE@Base 9.55.0~dfsg1-0ubuntu1
 _ZTSN9tesseract14ResultIteratorE@Base 9.55.0~dfsg1-0ubuntu1
 _ZTSN9tesseract14SVEventHandlerE@Base 9.55.0~dfsg1-0ubuntu1
 _ZTSN9tesseract14TessClassifierE@Base 9.55.0~dfsg1-0ubuntu1
 _ZTSN9tesseract15CCNonTextDetectE@Base 9.55.0~dfsg1-0ubuntu1
 _ZTSN9tesseract15MutableIteratorE@Base 9.55.0~dfsg1-0ubuntu1
 _ZTSN9tesseract15ShapeClassifierE@Base 9.55.0~dfsg1-0ubuntu1
 _ZTSN9tesseract15TessOsdRendererE@Base 9.55.0~dfsg1-0ubuntu1
 _ZTSN9tesseract15TessPDFRendererE@Base 9.55.0~dfsg1-0ubuntu1
 _ZTSN9tesseract15TessTsvRendererE@Base 9.55.0~dfsg1-0ubuntu1
 _ZTSN9tesseract15TransposedArrayE@Base 9.55.0~dfsg1-0ubuntu1
 _ZTSN9tesseract16ColPartitionGridE@Base 9.55.0~dfsg1-0ubuntu1
 _ZTSN9tesseract16GENERIC_2D_ARRAYIPNS_16BLOB_CHOICE_LISTEEE@Base 9.55.0~dfsg1-0ubuntu1
 _ZTSN9tesseract16GENERIC_2D_ARRAYIaEE@Base 9.55.0~dfsg1-0ubuntu1
 _ZTSN9tesseract16GENERIC_2D_ARRAYIdEE@Base 9.55.0~dfsg1-0ubuntu1
 _ZTSN9tesseract16GENERIC_2D_ARRAYIfEE@Base 9.55.0~dfsg1-0ubuntu1
 _ZTSN9tesseract16GENERIC_2D_ARRAYIiEE@Base 9.55.0~dfsg1-0ubuntu1
 _ZTSN9tesseract16ImageThresholderE@Base 9.55.0~dfsg1-0ubuntu1
 _ZTSN9tesseract16TessAltoRendererE@Base 9.55.0~dfsg1-0ubuntu1
 _ZTSN9tesseract16TessHOcrRendererE@Base 9.55.0~dfsg1-0ubuntu1
 _ZTSN9tesseract16TessTextRendererE@Base 9.55.0~dfsg1-0ubuntu1
 _ZTSN9tesseract16TessUnlvRendererE@Base 9.55.0~dfsg1-0ubuntu1
 _ZTSN9tesseract17LTRResultIteratorE@Base 9.55.0~dfsg1-0ubuntu1
 _ZTSN9tesseract18EquationDetectBaseE@Base 9.55.0~dfsg1-0ubuntu1
 _ZTSN9tesseract18ShiroRekhaSplitterE@Base 9.55.0~dfsg1-0ubuntu1
 _ZTSN9tesseract18TessResultRendererE@Base 9.55.0~dfsg1-0ubuntu1
 _ZTSN9tesseract19TessBoxTextRendererE@Base 9.55.0~dfsg1-0ubuntu1
 _ZTSN9tesseract19TessLSTMBoxRendererE@Base 9.55.0~dfsg1-0ubuntu1
 _ZTSN9tesseract22TessWordStrBoxRendererE@Base 9.55.0~dfsg1-0ubuntu1
 _ZTSN9tesseract4DawgE@Base 9.55.0~dfsg1-0ubuntu1
 _ZTSN9tesseract4LSTME@Base 9.55.0~dfsg1-0ubuntu1
 _ZTSN9tesseract4TrieE@Base 9.55.0~dfsg1-0ubuntu1
 _ZTSN9tesseract5InputE@Base 9.55.0~dfsg1-0ubuntu1
 _ZTSN9tesseract6BBGridINS_10ColSegmentENS_16ColSegment_CLISTENS_15ColSegment_C_ITEEE@Base 9.55.0~dfsg1-0ubuntu1
 _ZTSN9tesseract6BBGridINS_11WordWithBoxENS_17WordWithBox_CLISTENS_16WordWithBox_C_ITEEE@Base 9.55.0~dfsg1-0ubuntu1
 _ZTSN9tesseract6BBGridINS_12ColPartitionENS_18ColPartition_CLISTENS_17ColPartition_C_ITEEE@Base 9.55.0~dfsg1-0ubuntu1
 _ZTSN9tesseract6BBGridINS_8BLOBNBOXENS_14BLOBNBOX_CLISTENS_13BLOBNBOX_C_ITEEE@Base 9.55.0~dfsg1-0ubuntu1
 _ZTSN9tesseract6CCUtilE@Base 9.55.0~dfsg1-0ubuntu1
 _ZTSN9tesseract6MATRIXE@Base 9.55.0~dfsg1-0ubuntu1
 _ZTSN9tesseract6SeriesE@Base 9.55.0~dfsg1-0ubuntu1
 _ZTSN9tesseract7IntGridE@Base 9.55.0~dfsg1-0ubuntu1
 _ZTSN9tesseract7MaxpoolE@Base 9.55.0~dfsg1-0ubuntu1
 _ZTSN9tesseract7NetworkE@Base 9.55.0~dfsg1-0ubuntu1
 _ZTSN9tesseract7TabFindE@Base 9.55.0~dfsg1-0ubuntu1
 _ZTSN9tesseract7WordrecE@Base 9.55.0~dfsg1-0ubuntu1
 _ZTSN9tesseract8BlobGridE@Base 9.55.0~dfsg1-0ubuntu1
 _ZTSN9tesseract8CCStructE@Base 9.55.0~dfsg1-0ubuntu1
 _ZTSN9tesseract8ClassifyE@Base 9.55.0~dfsg1-0ubuntu1
 _ZTSN9tesseract8ConvolveE@Base 9.55.0~dfsg1-0ubuntu1
 _ZTSN9tesseract8GridBaseE@Base 9.55.0~dfsg1-0ubuntu1
 _ZTSN9tesseract8IndexMapE@Base 9.55.0~dfsg1-0ubuntu1
 _ZTSN9tesseract8ParallelE@Base 9.55.0~dfsg1-0ubuntu1
 _ZTSN9tesseract8PlumbingE@Base 9.55.0~dfsg1-0ubuntu1
 _ZTSN9tesseract8ReconfigE@Base 9.55.0~dfsg1-0ubuntu1
 _ZTSN9tesseract8ReversedE@Base 9.55.0~dfsg1-0ubuntu1
 _ZTSN9tesseract9TesseractE@Base 9.55.0~dfsg1-0ubuntu1
 _ZTSNSt6thread11_State_implINS_8_InvokerISt5tupleIJMN9tesseract12DocumentDataEFbvEPS4_EEEEEE@Base 9.55.0~dfsg1-0ubuntu1
 _ZTSSt17_Weak_result_typeIMN9tesseract10DawgLoaderEFPNS0_4DawgEvEE@Base 9.55.0~dfsg1-0ubuntu1
 _ZTSSt17_Weak_result_typeIMN9tesseract11StrokeWidthEFbPKNS0_12ColPartitionES4_EE@Base 9.55.0~dfsg1-0ubuntu1
 _ZTSSt17_Weak_result_typeIMN9tesseract11StrokeWidthEFbPNS0_12ColPartitionEPNS0_4TBOXEEE@Base 9.55.0~dfsg1-0ubuntu1
 _ZTSSt17_Weak_result_typeIMN9tesseract16LocalFilePointerEFPcS2_iEE@Base 9.55.0~dfsg1-0ubuntu1
 _ZTSSt17_Weak_result_typeIMN9tesseract5TFileEFPcS2_iEE@Base 9.55.0~dfsg1-0ubuntu1
 _ZTSSt17_Weak_result_typeIMN9tesseract7TabFindEFbiEE@Base 9.55.0~dfsg1-0ubuntu1
 _ZTSSt17_Weak_result_typeIMN9tesseract8WERD_RESEFbRKNS0_4TBOXES4_EE@Base 9.55.0~dfsg1-0ubuntu1
 _ZTSSt17_Weak_result_typeIMN9tesseract8WERD_RESEFiiiEE@Base 9.55.0~dfsg1-0ubuntu1
 _ZTSSt17_Weak_result_typeIPFbP8_IO_FILERKN9tesseract7FontSetEEE@Base 9.55.0~dfsg1-0ubuntu1
 _ZTSSt17_Weak_result_typeIPFbP8_IO_FILERKN9tesseract8FontInfoEEE@Base 9.55.0~dfsg1-0ubuntu1
 _ZTSSt17_Weak_result_typeIPFbPN9tesseract5TFileEPNS0_7FontSetEEE@Base 9.55.0~dfsg1-0ubuntu1
 _ZTSSt17_Weak_result_typeIPFbPN9tesseract5TFileEPNS0_8FontInfoEEE@Base 9.55.0~dfsg1-0ubuntu1
 _ZTSSt17_Weak_result_typeIPFvN9tesseract7FontSetEEE@Base 9.55.0~dfsg1-0ubuntu1
 _ZTSSt17_Weak_result_typeIPFvN9tesseract8FontInfoEEE@Base 9.55.0~dfsg1-0ubuntu1
 _ZTSSt17_Weak_result_typeIPFvPN9tesseract8WERD_RESERsS3_iEE@Base 9.55.0~dfsg1-0ubuntu1
 _ZTSSt17_Weak_result_typeIPFvPN9tesseract8WERD_RESEiEE@Base 9.55.0~dfsg1-0ubuntu1
 _ZTSSt17_Weak_result_typeIPFvRsiEE@Base 9.55.0~dfsg1-0ubuntu1
 _ZTSSt17_Weak_result_typeIPFvSt8functionIFvPKcEEPKN9tesseract11WERD_CHOICEEEE@Base 9.55.0~dfsg1-0ubuntu1
 _ZTSSt22_Weak_result_type_implIPFbP8_IO_FILERKN9tesseract7FontSetEEE@Base 9.55.0~dfsg1-0ubuntu1
 _ZTSSt22_Weak_result_type_implIPFbP8_IO_FILERKN9tesseract8FontInfoEEE@Base 9.55.0~dfsg1-0ubuntu1
 _ZTSSt22_Weak_result_type_implIPFbPN9tesseract5TFileEPNS0_7FontSetEEE@Base 9.55.0~dfsg1-0ubuntu1
 _ZTSSt22_Weak_result_type_implIPFbPN9tesseract5TFileEPNS0_8FontInfoEEE@Base 9.55.0~dfsg1-0ubuntu1
 _ZTSSt22_Weak_result_type_implIPFvN9tesseract7FontSetEEE@Base 9.55.0~dfsg1-0ubuntu1
 _ZTSSt22_Weak_result_type_implIPFvN9tesseract8FontInfoEEE@Base 9.55.0~dfsg1-0ubuntu1
 _ZTSSt22_Weak_result_type_implIPFvPN9tesseract8WERD_RESERsS3_iEE@Base 9.55.0~dfsg1-0ubuntu1
 _ZTSSt22_Weak_result_type_implIPFvPN9tesseract8WERD_RESEiEE@Base 9.55.0~dfsg1-0ubuntu1
 _ZTSSt22_Weak_result_type_implIPFvRsiEE@Base 9.55.0~dfsg1-0ubuntu1
 _ZTSSt22_Weak_result_type_implIPFvSt8functionIFvPKcEEPKN9tesseract11WERD_CHOICEEEE@Base 9.55.0~dfsg1-0ubuntu1
 _ZTSSt24_Weak_result_type_memfunIMN9tesseract10DawgLoaderEFPNS0_4DawgEvELb1EE@Base 9.55.0~dfsg1-0ubuntu1
 _ZTSSt24_Weak_result_type_memfunIMN9tesseract11StrokeWidthEFbPKNS0_12ColPartitionES4_ELb1EE@Base 9.55.0~dfsg1-0ubuntu1
 _ZTSSt24_Weak_result_type_memfunIMN9tesseract11StrokeWidthEFbPNS0_12ColPartitionEPNS0_4TBOXEELb1EE@Base 9.55.0~dfsg1-0ubuntu1
 _ZTSSt24_Weak_result_type_memfunIMN9tesseract16LocalFilePointerEFPcS2_iELb1EE@Base 9.55.0~dfsg1-0ubuntu1
 _ZTSSt24_Weak_result_type_memfunIMN9tesseract5TFileEFPcS2_iELb1EE@Base 9.55.0~dfsg1-0ubuntu1
 _ZTSSt24_Weak_result_type_memfunIMN9tesseract7TabFindEFbiELb1EE@Base 9.55.0~dfsg1-0ubuntu1
 _ZTSSt24_Weak_result_type_memfunIMN9tesseract8WERD_RESEFbRKNS0_4TBOXES4_ELb1EE@Base 9.55.0~dfsg1-0ubuntu1
 _ZTSSt24_Weak_result_type_memfunIMN9tesseract8WERD_RESEFiiiELb1EE@Base 9.55.0~dfsg1-0ubuntu1
 _ZTSSt24_Weak_result_type_memfunIPFbP8_IO_FILERKN9tesseract7FontSetEELb0EE@Base 9.55.0~dfsg1-0ubuntu1
 _ZTSSt24_Weak_result_type_memfunIPFbP8_IO_FILERKN9tesseract8FontInfoEELb0EE@Base 9.55.0~dfsg1-0ubuntu1
 _ZTSSt24_Weak_result_type_memfunIPFbPN9tesseract5TFileEPNS0_7FontSetEELb0EE@Base 9.55.0~dfsg1-0ubuntu1
 _ZTSSt24_Weak_result_type_memfunIPFbPN9tesseract5TFileEPNS0_8FontInfoEELb0EE@Base 9.55.0~dfsg1-0ubuntu1
 _ZTSSt24_Weak_result_type_memfunIPFvN9tesseract7FontSetEELb0EE@Base 9.55.0~dfsg1-0ubuntu1
 _ZTSSt24_Weak_result_type_memfunIPFvN9tesseract8FontInfoEELb0EE@Base 9.55.0~dfsg1-0ubuntu1
 _ZTSSt24_Weak_result_type_memfunIPFvPN9tesseract8WERD_RESERsS3_iELb0EE@Base 9.55.0~dfsg1-0ubuntu1
 _ZTSSt24_Weak_result_type_memfunIPFvPN9tesseract8WERD_RESEiELb0EE@Base 9.55.0~dfsg1-0ubuntu1
 _ZTSSt24_Weak_result_type_memfunIPFvRsiELb0EE@Base 9.55.0~dfsg1-0ubuntu1
 _ZTSSt24_Weak_result_type_memfunIPFvSt8functionIFvPKcEEPKN9tesseract11WERD_CHOICEEELb0EE@Base 9.55.0~dfsg1-0ubuntu1
 _ZTSSt5_BindIFMN9tesseract10DawgLoaderEFPNS0_4DawgEvEPS1_EE@Base 9.55.0~dfsg1-0ubuntu1
 _ZTSSt5_BindIFMN9tesseract11StrokeWidthEFbPKNS0_12ColPartitionES4_EPS1_St12_PlaceholderILi1EES8_ILi2EEEE@Base 9.55.0~dfsg1-0ubuntu1
 _ZTSSt5_BindIFMN9tesseract11StrokeWidthEFbPNS0_12ColPartitionEPNS0_4TBOXEEPS1_St12_PlaceholderILi1EES9_ILi2EEEE@Base 9.55.0~dfsg1-0ubuntu1
 _ZTSSt5_BindIFMN9tesseract16LocalFilePointerEFPcS2_iEPS1_St12_PlaceholderILi1EES6_ILi2EEEE@Base 9.55.0~dfsg1-0ubuntu1
 _ZTSSt5_BindIFMN9tesseract5TFileEFPcS2_iEPS1_St12_PlaceholderILi1EES6_ILi2EEEE@Base 9.55.0~dfsg1-0ubuntu1
 _ZTSSt5_BindIFMN9tesseract7TabFindEFbiEPS1_St12_PlaceholderILi1EEEE@Base 9.55.0~dfsg1-0ubuntu1
 _ZTSSt5_BindIFMN9tesseract8WERD_RESEFbRKNS0_4TBOXES4_EPS1_St12_PlaceholderILi1EES8_ILi2EEEE@Base 9.55.0~dfsg1-0ubuntu1
 _ZTSSt5_BindIFMN9tesseract8WERD_RESEFiiiEPS1_St12_PlaceholderILi1EES5_ILi2EEEE@Base 9.55.0~dfsg1-0ubuntu1
 _ZTSSt5_BindIFPFbP8_IO_FILERKN9tesseract7FontSetEESt12_PlaceholderILi1EES8_ILi2EEEE@Base 9.55.0~dfsg1-0ubuntu1
 _ZTSSt5_BindIFPFbP8_IO_FILERKN9tesseract8FontInfoEESt12_PlaceholderILi1EES8_ILi2EEEE@Base 9.55.0~dfsg1-0ubuntu1
 _ZTSSt5_BindIFPFbPN9tesseract5TFileEPNS0_7FontSetEESt12_PlaceholderILi1EES7_ILi2EEEE@Base 9.55.0~dfsg1-0ubuntu1
 _ZTSSt5_BindIFPFbPN9tesseract5TFileEPNS0_8FontInfoEESt12_PlaceholderILi1EES7_ILi2EEEE@Base 9.55.0~dfsg1-0ubuntu1
 _ZTSSt5_BindIFPFvN9tesseract7FontSetEESt12_PlaceholderILi1EEEE@Base 9.55.0~dfsg1-0ubuntu1
 _ZTSSt5_BindIFPFvN9tesseract8FontInfoEESt12_PlaceholderILi1EEEE@Base 9.55.0~dfsg1-0ubuntu1
 _ZTSSt5_BindIFPFvPN9tesseract8WERD_RESERsS3_iES2_ssSt12_PlaceholderILi1EEEE@Base 9.55.0~dfsg1-0ubuntu1
 _ZTSSt5_BindIFPFvPN9tesseract8WERD_RESEiES2_St12_PlaceholderILi1EEEE@Base 9.55.0~dfsg1-0ubuntu1
 _ZTSSt5_BindIFPFvRsiEsSt12_PlaceholderILi1EEEE@Base 9.55.0~dfsg1-0ubuntu1
 _ZTSSt5_BindIFPFvSt8functionIFvPKcEEPKN9tesseract11WERD_CHOICEEES4_St12_PlaceholderILi1EEEE@Base 9.55.0~dfsg1-0ubuntu1
 _ZTVN9tesseract11AlignedBlobE@Base 9.55.0~dfsg1-0ubuntu1
 _ZTVN9tesseract11StrokeWidthE@Base 9.55.0~dfsg1-0ubuntu1
 _ZTVN9tesseract11TessBaseAPIE@Base 9.55.0~dfsg1-0ubuntu1
 _ZTVN9tesseract12ColumnFinderE@Base 9.55.0~dfsg1-0ubuntu1
 _ZTVN9tesseract12IndexMapBiDiE@Base 9.55.0~dfsg1-0ubuntu1
 _ZTVN9tesseract12PageIteratorE@Base 9.55.0~dfsg1-0ubuntu1
 _ZTVN9tesseract12SquishedDawgE@Base 9.55.0~dfsg1-0ubuntu1
 _ZTVN9tesseract14EquationDetectE@Base 9.55.0~dfsg1-0ubuntu1
 _ZTVN9tesseract14FullyConnectedE@Base 9.55.0~dfsg1-0ubuntu1
 _ZTVN9tesseract14ResultIteratorE@Base 9.55.0~dfsg1-0ubuntu1
 _ZTVN9tesseract14SVEventHandlerE@Base 9.55.0~dfsg1-0ubuntu1
 _ZTVN9tesseract14TessClassifierE@Base 9.55.0~dfsg1-0ubuntu1
 _ZTVN9tesseract15CCNonTextDetectE@Base 9.55.0~dfsg1-0ubuntu1
 _ZTVN9tesseract15MutableIteratorE@Base 9.55.0~dfsg1-0ubuntu1
 _ZTVN9tesseract15ShapeClassifierE@Base 9.55.0~dfsg1-0ubuntu1
 _ZTVN9tesseract15TessOsdRendererE@Base 9.55.0~dfsg1-0ubuntu1
 _ZTVN9tesseract15TessPDFRendererE@Base 9.55.0~dfsg1-0ubuntu1
 _ZTVN9tesseract15TessTsvRendererE@Base 9.55.0~dfsg1-0ubuntu1
 _ZTVN9tesseract15TransposedArrayE@Base 9.55.0~dfsg1-0ubuntu1
 _ZTVN9tesseract16ColPartitionGridE@Base 9.55.0~dfsg1-0ubuntu1
 _ZTVN9tesseract16ImageThresholderE@Base 9.55.0~dfsg1-0ubuntu1
 _ZTVN9tesseract16TessAltoRendererE@Base 9.55.0~dfsg1-0ubuntu1
 _ZTVN9tesseract16TessHOcrRendererE@Base 9.55.0~dfsg1-0ubuntu1
 _ZTVN9tesseract16TessTextRendererE@Base 9.55.0~dfsg1-0ubuntu1
 _ZTVN9tesseract16TessUnlvRendererE@Base 9.55.0~dfsg1-0ubuntu1
 _ZTVN9tesseract17LTRResultIteratorE@Base 9.55.0~dfsg1-0ubuntu1
 _ZTVN9tesseract18EquationDetectBaseE@Base 9.55.0~dfsg1-0ubuntu1
 _ZTVN9tesseract18ShiroRekhaSplitterE@Base 9.55.0~dfsg1-0ubuntu1
 _ZTVN9tesseract18TessResultRendererE@Base 9.55.0~dfsg1-0ubuntu1
 _ZTVN9tesseract19TessBoxTextRendererE@Base 9.55.0~dfsg1-0ubuntu1
 _ZTVN9tesseract19TessLSTMBoxRendererE@Base 9.55.0~dfsg1-0ubuntu1
 _ZTVN9tesseract22TessWordStrBoxRendererE@Base 9.55.0~dfsg1-0ubuntu1
 _ZTVN9tesseract4DawgE@Base 9.55.0~dfsg1-0ubuntu1
 _ZTVN9tesseract4LSTME@Base 9.55.0~dfsg1-0ubuntu1
 _ZTVN9tesseract4TrieE@Base 9.55.0~dfsg1-0ubuntu1
 _ZTVN9tesseract5InputE@Base 9.55.0~dfsg1-0ubuntu1
 _ZTVN9tesseract6CCUtilE@Base 9.55.0~dfsg1-0ubuntu1
 _ZTVN9tesseract6MATRIXE@Base 9.55.0~dfsg1-0ubuntu1
 _ZTVN9tesseract6SeriesE@Base 9.55.0~dfsg1-0ubuntu1
 _ZTVN9tesseract7IntGridE@Base 9.55.0~dfsg1-0ubuntu1
 _ZTVN9tesseract7MaxpoolE@Base 9.55.0~dfsg1-0ubuntu1
 _ZTVN9tesseract7NetworkE@Base 9.55.0~dfsg1-0ubuntu1
 _ZTVN9tesseract7TabFindE@Base 9.55.0~dfsg1-0ubuntu1
 _ZTVN9tesseract7WordrecE@Base 9.55.0~dfsg1-0ubuntu1
 _ZTVN9tesseract8BlobGridE@Base 9.55.0~dfsg1-0ubuntu1
 _ZTVN9tesseract8CCStructE@Base 9.55.0~dfsg1-0ubuntu1
 _ZTVN9tesseract8ClassifyE@Base 9.55.0~dfsg1-0ubuntu1
 _ZTVN9tesseract8ConvolveE@Base 9.55.0~dfsg1-0ubuntu1
 _ZTVN9tesseract8GridBaseE@Base 9.55.0~dfsg1-0ubuntu1
 _ZTVN9tesseract8IndexMapE@Base 9.55.0~dfsg1-0ubuntu1
 _ZTVN9tesseract8ParallelE@Base 9.55.0~dfsg1-0ubuntu1
 _ZTVN9tesseract8PlumbingE@Base 9.55.0~dfsg1-0ubuntu1
 _ZTVN9tesseract8ReconfigE@Base 9.55.0~dfsg1-0ubuntu1
 _ZTVN9tesseract8ReversedE@Base 9.55.0~dfsg1-0ubuntu1
 _ZTVN9tesseract9TesseractE@Base 9.55.0~dfsg1-0ubuntu1
 a_identity@Base 9.00~dfsg
 abc_identity@Base 9.00~dfsg
 addColorizedGrayToCmap@Base 9.55.0~dfsg1-0ubuntu1
 add_FID@Base 8.61.dfsg.1
 adjacentOnPixelInRaster@Base 9.55.0~dfsg1-0ubuntu1
 adjust_first_last_char@Base 8.61.dfsg.1
 aes_crypt_cbc@Base 8.64~dfsg
 aes_crypt_cfb@Base 8.64~dfsg
 aes_crypt_ecb@Base 8.64~dfsg
 aes_setkey_dec@Base 8.64~dfsg
 aes_setkey_enc@Base 8.64~dfsg
 affineInvertXform@Base 9.55.0~dfsg1-0ubuntu1
 affineXformPt@Base 9.55.0~dfsg1-0ubuntu1
 affineXformSampledPt@Base 9.55.0~dfsg1-0ubuntu1
 alloc_any_names_since_save@Base 8.61.dfsg.1
 alloc_close_clump@Base 9.20~dfsg
 alloc_device_n_map@Base 8.61.dfsg.1
 alloc_find_save@Base 8.61.dfsg.1
 alloc_forget_save_in@Base 8.61.dfsg.1
 alloc_free_clump@Base 9.20~dfsg
 alloc_function_array@Base 8.61.dfsg.1
 alloc_indexed_map@Base 8.61.dfsg.1
 alloc_init_clump@Base 9.20~dfsg
 alloc_init_free_strings@Base 8.61.dfsg.1
 alloc_is_since_save@Base 8.61.dfsg.1
 alloc_link_clump@Base 9.20~dfsg
 alloc_name_index_is_since_save@Base 8.61.dfsg.1
 alloc_name_is_since_save@Base 8.61.dfsg.1
 alloc_open_clump@Base 9.20~dfsg
 alloc_restore_all@Base 8.61.dfsg.1
 alloc_restore_step_in@Base 8.61.dfsg.1
 alloc_save__filter_changes@Base 8.61.dfsg.1
 alloc_save_change@Base 8.61.dfsg.1
 alloc_save_change_alloc@Base 8.61.dfsg.1
 alloc_save_change_in@Base 8.61.dfsg.1
 alloc_save_client_data@Base 8.61.dfsg.1
 alloc_save_current@Base 8.61.dfsg.1
 alloc_save_current_id@Base 8.61.dfsg.1
 alloc_save_init@Base 8.61.dfsg.1
 alloc_save_remove@Base 8.61.dfsg.1
 alloc_save_state@Base 8.61.dfsg.1
 alloc_set_in_save@Base 8.61.dfsg.1
 alloc_set_not_in_save@Base 8.61.dfsg.1
 alloc_unlink_clump@Base 9.20~dfsg
 alpha_buffer_bits@Base 9.00~dfsg
 amapGetCountForColor@Base 9.55.0~dfsg1-0ubuntu1
 annot_LE_dispatch@Base 9.55.0~dfsg
 annot_dispatch@Base 9.55.0~dfsg
 annot_preserve_dispatch@Base 9.55.0~dfsg
 appendSubdirs@Base 9.55.0~dfsg1-0ubuntu1
 applyCubicFit@Base 9.55.0~dfsg1-0ubuntu1
 applyLinearFit@Base 9.55.0~dfsg1-0ubuntu1
 applyQuadraticFit@Base 9.55.0~dfsg1-0ubuntu1
 applyQuarticFit@Base 9.55.0~dfsg1-0ubuntu1
 applymap16@Base 9.16~dfsg
 applymap8@Base 9.16~dfsg
 arg_copy@Base 8.61.dfsg.1
 arg_finit@Base 8.61.dfsg.1
 arg_free@Base 9.06~dfsg
 arg_init@Base 8.61.dfsg.1
 arg_next@Base 8.61.dfsg.1
 arg_push_decoded_memory_string@Base 9.10~dfsg
 arg_push_memory_string@Base 8.61.dfsg.1
 arg_strcmp@Base 9.10~dfsg
 arrayFindEachSequence@Base 9.55.0~dfsg1-0ubuntu1
 arrayFindSequence@Base 9.55.0~dfsg1-0ubuntu1
 arrayReplaceEachSequence@Base 9.55.0~dfsg1-0ubuntu1
 array_get@Base 8.61.dfsg.1
 array_indexed_param_list_read@Base 8.61.dfsg.1
 array_param_list_read@Base 8.61.dfsg.1
 art_blend_luminosity_cmyk_16@Base 9.28~~rc1~dfsg
 art_blend_luminosity_cmyk_8@Base 8.61.dfsg.1
 art_blend_luminosity_custom_16@Base 9.28~~rc1~dfsg
 art_blend_luminosity_custom_8@Base 8.61.dfsg.1
 art_blend_luminosity_rgb_16@Base 9.28~~rc1~dfsg
 art_blend_luminosity_rgb_8@Base 8.61.dfsg.1
 art_blend_pixel_16@Base 9.28~~rc1~dfsg
 art_blend_pixel_8@Base 8.61.dfsg.1
 art_blend_saturation_cmyk_16@Base 9.28~~rc1~dfsg
 art_blend_saturation_cmyk_8@Base 8.61.dfsg.1
 art_blend_saturation_custom_16@Base 9.28~~rc1~dfsg
 art_blend_saturation_custom_8@Base 8.61.dfsg.1
 art_blend_saturation_rgb_16@Base 9.28~~rc1~dfsg
 art_blend_saturation_rgb_8@Base 8.61.dfsg.1
 art_blend_soft_light_8@Base 8.61.dfsg.1
 art_blend_sq_diff_8@Base 8.61.dfsg.1
 art_pdf_composite_knockout_16@Base 9.28~~rc1~dfsg
 art_pdf_composite_knockout_8@Base 8.61.dfsg.1
 art_pdf_composite_pixel_alpha_16@Base 9.28~~rc1~dfsg
 art_pdf_composite_pixel_alpha_8@Base 8.61.dfsg.1
 art_pdf_knockoutisolated_group_16@Base 9.28~~rc1~dfsg
 art_pdf_knockoutisolated_group_8@Base 9.01~
 art_pdf_knockoutisolated_group_aa_8@Base 9.20~dfsg
 basic_enum_ptrs@Base 8.61.dfsg.1
 basic_reloc_ptrs@Base 8.61.dfsg.1
 bbox_default_add_rect@Base 8.61.dfsg.1
 bbox_default_get_box@Base 8.61.dfsg.1
 bbox_default_in_rect@Base 8.61.dfsg.1
 bbox_default_init_box@Base 8.61.dfsg.1
 bbufferCreate@Base 9.55.0~dfsg1-0ubuntu1
 bbufferDestroy@Base 9.55.0~dfsg1-0ubuntu1
 bbufferDestroyAndSaveData@Base 9.55.0~dfsg1-0ubuntu1
 bbufferExtendArray@Base 9.55.0~dfsg1-0ubuntu1
 bbufferRead@Base 9.55.0~dfsg1-0ubuntu1
 bbufferReadStream@Base 9.55.0~dfsg1-0ubuntu1
 bbufferWrite@Base 9.55.0~dfsg1-0ubuntu1
 bbufferWriteStream@Base 9.55.0~dfsg1-0ubuntu1
 bilinearXformPt@Base 9.55.0~dfsg1-0ubuntu1
 bilinearXformSampledPt@Base 9.55.0~dfsg1-0ubuntu1
 bits_bounding_box@Base 8.61.dfsg.1
 bits_compress_scaled@Base 8.61.dfsg.1
 bits_expand_plane@Base 8.61.dfsg.1
 bits_extract_plane@Base 8.61.dfsg.1
 bits_fill_rectangle@Base 8.61.dfsg.1
 bits_fill_rectangle_masked@Base 8.61.dfsg.1
 bits_replicate_horizontally@Base 8.61.dfsg.1
 bits_replicate_vertically@Base 8.61.dfsg.1
 bjc_build_gamma_table@Base 8.61.dfsg.1
 bjc_compress@Base 8.61.dfsg.1
 bjc_init_tresh@Base 8.61.dfsg.1
 bjc_invert_bytes@Base 8.61.dfsg.1
 bjc_invert_cmyk_bytes@Base 8.61.dfsg.1
 bjc_put_CR@Base 8.61.dfsg.1
 bjc_put_FF@Base 8.61.dfsg.1
 bjc_put_LF@Base 8.61.dfsg.1
 bjc_put_bjl_command@Base 8.61.dfsg.1
 bjc_put_cmyk_image@Base 8.61.dfsg.1
 bjc_put_continue_image@Base 8.61.dfsg.1
 bjc_put_extended_margins@Base 8.61.dfsg.1
 bjc_put_image_format@Base 8.61.dfsg.1
 bjc_put_indexed_image@Base 8.61.dfsg.1
 bjc_put_initialize@Base 8.61.dfsg.1
 bjc_put_media_supply@Base 8.61.dfsg.1
 bjc_put_move_lines@Base 8.61.dfsg.1
 bjc_put_move_lines_unit@Base 8.61.dfsg.1
 bjc_put_page_id@Base 8.61.dfsg.1
 bjc_put_page_margins@Base 8.61.dfsg.1
 bjc_put_print_method@Base 8.61.dfsg.1
 bjc_put_print_method_short@Base 8.61.dfsg.1
 bjc_put_raster_resolution@Base 8.61.dfsg.1
 bjc_put_raster_skip@Base 8.61.dfsg.1
 bjc_put_set_compression@Base 8.61.dfsg.1
 bjc_put_set_initial@Base 8.61.dfsg.1
 bjc_rand@Base 8.61.dfsg.1
 bjc_rand_seed@Base 8.61.dfsg.1
 bjc_rgb_to_cmy@Base 8.61.dfsg.1
 bjc_rgb_to_gray@Base 8.61.dfsg.1
 black_sep@Base 8.61.dfsg.1
 blend_valid_for_spot@Base 9.21~dfsg
 bmfCreate@Base 9.55.0~dfsg1-0ubuntu1
 bmfDestroy@Base 9.55.0~dfsg1-0ubuntu1
 bmfGetBaseline@Base 9.55.0~dfsg1-0ubuntu1
 bmfGetLineStrings@Base 9.55.0~dfsg1-0ubuntu1
 bmfGetPix@Base 9.55.0~dfsg1-0ubuntu1
 bmfGetStringWidth@Base 9.55.0~dfsg1-0ubuntu1
 bmfGetWidth@Base 9.55.0~dfsg1-0ubuntu1
 bmfGetWordWidths@Base 9.55.0~dfsg1-0ubuntu1
 bmp_map_16m_color_rgb@Base 8.61.dfsg.1
 bmp_map_16m_rgb_color@Base 8.61.dfsg.1
 boxAdjustSides@Base 9.55.0~dfsg1-0ubuntu1
 boxBoundingRegion@Base 9.55.0~dfsg1-0ubuntu1
 boxChangeRefcount@Base 9.55.0~dfsg1-0ubuntu1
 boxClipToRectangle@Base 9.55.0~dfsg1-0ubuntu1
 boxClipToRectangleParams@Base 9.55.0~dfsg1-0ubuntu1
 boxClone@Base 9.55.0~dfsg1-0ubuntu1
 boxCompareSize@Base 9.55.0~dfsg1-0ubuntu1
 boxContains@Base 9.55.0~dfsg1-0ubuntu1
 boxContainsPt@Base 9.55.0~dfsg1-0ubuntu1
 boxConvertToPta@Base 9.55.0~dfsg1-0ubuntu1
 boxCopy@Base 9.55.0~dfsg1-0ubuntu1
 boxCreate@Base 9.55.0~dfsg1-0ubuntu1
 boxCreateValid@Base 9.55.0~dfsg1-0ubuntu1
 boxDestroy@Base 9.55.0~dfsg1-0ubuntu1
 boxEqual@Base 9.55.0~dfsg1-0ubuntu1
 boxGetCenter@Base 9.55.0~dfsg1-0ubuntu1
 boxGetGeometry@Base 9.55.0~dfsg1-0ubuntu1
 boxGetRefcount@Base 9.55.0~dfsg1-0ubuntu1
 boxGetSideLocations@Base 9.55.0~dfsg1-0ubuntu1
 boxIntersectByLine@Base 9.55.0~dfsg1-0ubuntu1
 boxIntersects@Base 9.55.0~dfsg1-0ubuntu1
 boxIsValid@Base 9.55.0~dfsg1-0ubuntu1
 boxOverlapArea@Base 9.55.0~dfsg1-0ubuntu1
 boxOverlapDistance@Base 9.55.0~dfsg1-0ubuntu1
 boxOverlapFraction@Base 9.55.0~dfsg1-0ubuntu1
 boxOverlapRegion@Base 9.55.0~dfsg1-0ubuntu1
 boxPrintStreamInfo@Base 9.55.0~dfsg1-0ubuntu1
 boxRelocateOneSide@Base 9.55.0~dfsg1-0ubuntu1
 boxRotateOrth@Base 9.55.0~dfsg1-0ubuntu1
 boxSeparationDistance@Base 9.55.0~dfsg1-0ubuntu1
 boxSetGeometry@Base 9.55.0~dfsg1-0ubuntu1
 boxSetSide@Base 9.55.0~dfsg1-0ubuntu1
 boxSetSideLocations@Base 9.55.0~dfsg1-0ubuntu1
 boxSimilar@Base 9.55.0~dfsg1-0ubuntu1
 boxTransform@Base 9.55.0~dfsg1-0ubuntu1
 boxTransformOrdered@Base 9.55.0~dfsg1-0ubuntu1
 boxaAddBox@Base 9.55.0~dfsg1-0ubuntu1
 boxaAdjustBoxSides@Base 9.55.0~dfsg1-0ubuntu1
 boxaAdjustHeightToTarget@Base 9.55.0~dfsg1-0ubuntu1
 boxaAdjustSides@Base 9.55.0~dfsg1-0ubuntu1
 boxaAdjustWidthToTarget@Base 9.55.0~dfsg1-0ubuntu1
 boxaAffineTransform@Base 9.55.0~dfsg1-0ubuntu1
 boxaBinSort@Base 9.55.0~dfsg1-0ubuntu1
 boxaClear@Base 9.55.0~dfsg1-0ubuntu1
 boxaClipToBox@Base 9.55.0~dfsg1-0ubuntu1
 boxaCombineOverlaps@Base 9.55.0~dfsg1-0ubuntu1
 boxaCombineOverlapsInPair@Base 9.55.0~dfsg1-0ubuntu1
 boxaCompareRegions@Base 9.55.0~dfsg1-0ubuntu1
 boxaConstrainSize@Base 9.55.0~dfsg1-0ubuntu1
 boxaContainedInBox@Base 9.55.0~dfsg1-0ubuntu1
 boxaContainedInBoxCount@Base 9.55.0~dfsg1-0ubuntu1
 boxaContainedInBoxa@Base 9.55.0~dfsg1-0ubuntu1
 boxaConvertToPta@Base 9.55.0~dfsg1-0ubuntu1
 boxaCopy@Base 9.55.0~dfsg1-0ubuntu1
 boxaCreate@Base 9.55.0~dfsg1-0ubuntu1
 boxaDestroy@Base 9.55.0~dfsg1-0ubuntu1
 boxaDisplayTiled@Base 9.55.0~dfsg1-0ubuntu1
 boxaEncapsulateAligned@Base 9.55.0~dfsg1-0ubuntu1
 boxaEqual@Base 9.55.0~dfsg1-0ubuntu1
 boxaExtendArray@Base 9.55.0~dfsg1-0ubuntu1
 boxaExtendArrayToSize@Base 9.55.0~dfsg1-0ubuntu1
 boxaExtractAsNuma@Base 9.55.0~dfsg1-0ubuntu1
 boxaExtractAsPta@Base 9.55.0~dfsg1-0ubuntu1
 boxaExtractCorners@Base 9.55.0~dfsg1-0ubuntu1
 boxaExtractSortedPattern@Base 9.55.0~dfsg1-0ubuntu1
 boxaFillSequence@Base 9.55.0~dfsg1-0ubuntu1
 boxaFindInvalidBoxes@Base 9.55.0~dfsg1-0ubuntu1
 boxaFindNearestBoxes@Base 9.55.0~dfsg1-0ubuntu1
 boxaGetArea@Base 9.55.0~dfsg1-0ubuntu1
 boxaGetAverageSize@Base 9.55.0~dfsg1-0ubuntu1
 boxaGetBox@Base 9.55.0~dfsg1-0ubuntu1
 boxaGetBoxGeometry@Base 9.55.0~dfsg1-0ubuntu1
 boxaGetCount@Base 9.55.0~dfsg1-0ubuntu1
 boxaGetCoverage@Base 9.55.0~dfsg1-0ubuntu1
 boxaGetExtent@Base 9.55.0~dfsg1-0ubuntu1
 boxaGetMedianVals@Base 9.55.0~dfsg1-0ubuntu1
 boxaGetNearestByDirection@Base 9.55.0~dfsg1-0ubuntu1
 boxaGetNearestToLine@Base 9.55.0~dfsg1-0ubuntu1
 boxaGetNearestToPt@Base 9.55.0~dfsg1-0ubuntu1
 boxaGetRankVals@Base 9.55.0~dfsg1-0ubuntu1
 boxaGetSizes@Base 9.55.0~dfsg1-0ubuntu1
 boxaGetValidBox@Base 9.55.0~dfsg1-0ubuntu1
 boxaGetValidCount@Base 9.55.0~dfsg1-0ubuntu1
 boxaGetWhiteblocks@Base 9.55.0~dfsg1-0ubuntu1
 boxaHandleOverlaps@Base 9.55.0~dfsg1-0ubuntu1
 boxaInitFull@Base 9.55.0~dfsg1-0ubuntu1
 boxaInsertBox@Base 9.55.0~dfsg1-0ubuntu1
 boxaIntersectsBox@Base 9.55.0~dfsg1-0ubuntu1
 boxaIntersectsBoxCount@Base 9.55.0~dfsg1-0ubuntu1
 boxaIsFull@Base 9.55.0~dfsg1-0ubuntu1
 boxaJoin@Base 9.55.0~dfsg1-0ubuntu1
 boxaLocationRange@Base 9.55.0~dfsg1-0ubuntu1
 boxaMakeAreaIndicator@Base 9.55.0~dfsg1-0ubuntu1
 boxaMakeSizeIndicator@Base 9.55.0~dfsg1-0ubuntu1
 boxaMakeWHRatioIndicator@Base 9.55.0~dfsg1-0ubuntu1
 boxaMedianDimensions@Base 9.55.0~dfsg1-0ubuntu1
 boxaMergeEvenOdd@Base 9.55.0~dfsg1-0ubuntu1
 boxaModifyWithBoxa@Base 9.55.0~dfsg1-0ubuntu1
 boxaPermutePseudorandom@Base 9.55.0~dfsg1-0ubuntu1
 boxaPermuteRandom@Base 9.55.0~dfsg1-0ubuntu1
 boxaPlotSides@Base 9.55.0~dfsg1-0ubuntu1
 boxaPlotSizes@Base 9.55.0~dfsg1-0ubuntu1
 boxaPruneSortedOnOverlap@Base 9.55.0~dfsg1-0ubuntu1
 boxaRead@Base 9.55.0~dfsg1-0ubuntu1
 boxaReadMem@Base 9.55.0~dfsg1-0ubuntu1
 boxaReadStream@Base 9.55.0~dfsg1-0ubuntu1
 boxaReconcileAllByMedian@Base 9.55.0~dfsg1-0ubuntu1
 boxaReconcileEvenOddHeight@Base 9.55.0~dfsg1-0ubuntu1
 boxaReconcilePairWidth@Base 9.55.0~dfsg1-0ubuntu1
 boxaReconcileSidesByMedian@Base 9.55.0~dfsg1-0ubuntu1
 boxaReconcileSizeByMedian@Base 9.55.0~dfsg1-0ubuntu1
 boxaRemoveBox@Base 9.55.0~dfsg1-0ubuntu1
 boxaRemoveBoxAndSave@Base 9.55.0~dfsg1-0ubuntu1
 boxaReplaceBox@Base 9.55.0~dfsg1-0ubuntu1
 boxaRotate@Base 9.55.0~dfsg1-0ubuntu1
 boxaRotateOrth@Base 9.55.0~dfsg1-0ubuntu1
 boxaSaveValid@Base 9.55.0~dfsg1-0ubuntu1
 boxaScale@Base 9.55.0~dfsg1-0ubuntu1
 boxaSelectByArea@Base 9.55.0~dfsg1-0ubuntu1
 boxaSelectBySize@Base 9.55.0~dfsg1-0ubuntu1
 boxaSelectByWHRatio@Base 9.55.0~dfsg1-0ubuntu1
 boxaSelectLargeULBox@Base 9.55.0~dfsg1-0ubuntu1
 boxaSelectRange@Base 9.55.0~dfsg1-0ubuntu1
 boxaSelectWithIndicator@Base 9.55.0~dfsg1-0ubuntu1
 boxaSetSide@Base 9.55.0~dfsg1-0ubuntu1
 boxaShiftWithPta@Base 9.55.0~dfsg1-0ubuntu1
 boxaSimilar@Base 9.55.0~dfsg1-0ubuntu1
 boxaSizeConsistency1@Base 9.55.0~dfsg1-0ubuntu1
 boxaSizeConsistency2@Base 9.55.0~dfsg1-0ubuntu1
 boxaSizeRange@Base 9.55.0~dfsg1-0ubuntu1
 boxaSizeVariation@Base 9.55.0~dfsg1-0ubuntu1
 boxaSmoothSequenceMedian@Base 9.55.0~dfsg1-0ubuntu1
 boxaSort2d@Base 9.55.0~dfsg1-0ubuntu1
 boxaSort2dByIndex@Base 9.55.0~dfsg1-0ubuntu1
 boxaSort@Base 9.55.0~dfsg1-0ubuntu1
 boxaSortByIndex@Base 9.55.0~dfsg1-0ubuntu1
 boxaSplitEvenOdd@Base 9.55.0~dfsg1-0ubuntu1
 boxaSwapBoxes@Base 9.55.0~dfsg1-0ubuntu1
 boxaTransform@Base 9.55.0~dfsg1-0ubuntu1
 boxaTransformOrdered@Base 9.55.0~dfsg1-0ubuntu1
 boxaTranslate@Base 9.55.0~dfsg1-0ubuntu1
 boxaWindowedMedian@Base 9.55.0~dfsg1-0ubuntu1
 boxaWrite@Base 9.55.0~dfsg1-0ubuntu1
 boxaWriteDebug@Base 9.55.0~dfsg1-0ubuntu1
 boxaWriteMem@Base 9.55.0~dfsg1-0ubuntu1
 boxaWriteStderr@Base 9.55.0~dfsg1-0ubuntu1
 boxaWriteStream@Base 9.55.0~dfsg1-0ubuntu1
 boxaaAddBox@Base 9.55.0~dfsg1-0ubuntu1
 boxaaAddBoxa@Base 9.55.0~dfsg1-0ubuntu1
 boxaaAlignBox@Base 9.55.0~dfsg1-0ubuntu1
 boxaaCopy@Base 9.55.0~dfsg1-0ubuntu1
 boxaaCreate@Base 9.55.0~dfsg1-0ubuntu1
 boxaaDestroy@Base 9.55.0~dfsg1-0ubuntu1
 boxaaDisplay@Base 9.55.0~dfsg1-0ubuntu1
 boxaaExtendArray@Base 9.55.0~dfsg1-0ubuntu1
 boxaaExtendArrayToSize@Base 9.55.0~dfsg1-0ubuntu1
 boxaaExtendWithInit@Base 9.55.0~dfsg1-0ubuntu1
 boxaaFlattenAligned@Base 9.55.0~dfsg1-0ubuntu1
 boxaaFlattenToBoxa@Base 9.55.0~dfsg1-0ubuntu1
 boxaaGetBox@Base 9.55.0~dfsg1-0ubuntu1
 boxaaGetBoxCount@Base 9.55.0~dfsg1-0ubuntu1
 boxaaGetBoxa@Base 9.55.0~dfsg1-0ubuntu1
 boxaaGetCount@Base 9.55.0~dfsg1-0ubuntu1
 boxaaGetExtent@Base 9.55.0~dfsg1-0ubuntu1
 boxaaInitFull@Base 9.55.0~dfsg1-0ubuntu1
 boxaaInsertBoxa@Base 9.55.0~dfsg1-0ubuntu1
 boxaaJoin@Base 9.55.0~dfsg1-0ubuntu1
 boxaaQuadtreeRegions@Base 9.55.0~dfsg1-0ubuntu1
 boxaaRead@Base 9.55.0~dfsg1-0ubuntu1
 boxaaReadFromFiles@Base 9.55.0~dfsg1-0ubuntu1
 boxaaReadMem@Base 9.55.0~dfsg1-0ubuntu1
 boxaaReadStream@Base 9.55.0~dfsg1-0ubuntu1
 boxaaRemoveBoxa@Base 9.55.0~dfsg1-0ubuntu1
 boxaaReplaceBoxa@Base 9.55.0~dfsg1-0ubuntu1
 boxaaSelectRange@Base 9.55.0~dfsg1-0ubuntu1
 boxaaSizeRange@Base 9.55.0~dfsg1-0ubuntu1
 boxaaTranspose@Base 9.55.0~dfsg1-0ubuntu1
 boxaaWrite@Base 9.55.0~dfsg1-0ubuntu1
 boxaaWriteMem@Base 9.55.0~dfsg1-0ubuntu1
 boxaaWriteStream@Base 9.55.0~dfsg1-0ubuntu1
 bpc_to_depth@Base 8.61.dfsg.1
 build_charstring_font@Base 8.61.dfsg.1
 build_cmyk_map@Base 9.18~dfsg
 build_function_type_table@Base 8.61.dfsg.1
 build_function_type_table_count@Base 8.61.dfsg.1
 build_gs_FDArray_font@Base 8.61.dfsg.1
 build_gs_TrueType_font@Base 8.61.dfsg.1
 build_gs_font@Base 8.61.dfsg.1
 build_gs_font_procs@Base 8.61.dfsg.1
 build_gs_outline_font@Base 8.61.dfsg.1
 build_gs_primitive_font@Base 8.61.dfsg.1
 build_gs_simple_font@Base 8.61.dfsg.1
 build_gs_sub_font@Base 8.61.dfsg.1
 build_proc_name_refs@Base 8.61.dfsg.1
 buildfunction@Base 8.64~dfsg
 bwmap@Base 9.55.0~dfsg1-0ubuntu1
 byte_acegbdfh_to_abcdefgh@Base 8.61.dfsg.1
 byte_bit_run_length@Base 8.61.dfsg.1
 byte_bit_run_length_0@Base 8.61.dfsg.1
 byte_bit_run_length_1@Base 8.61.dfsg.1
 byte_bit_run_length_2@Base 8.61.dfsg.1
 byte_bit_run_length_3@Base 8.61.dfsg.1
 byte_bit_run_length_4@Base 8.61.dfsg.1
 byte_bit_run_length_5@Base 8.61.dfsg.1
 byte_bit_run_length_6@Base 8.61.dfsg.1
 byte_bit_run_length_7@Base 8.61.dfsg.1
 byte_bit_run_length_neg@Base 8.61.dfsg.1
 byte_count_bits@Base 8.61.dfsg.1
 byte_reverse_bits@Base 8.61.dfsg.1
 byte_right_mask@Base 8.61.dfsg.1
 bytes_compare@Base 8.61.dfsg.1
 bytes_copy_rectangle@Base 8.61.dfsg.1
 bytes_copy_rectangle_zero_padding@Base 9.01~
 bytes_fill_rectangle@Base 8.61.dfsg.1
 bytes_rectangle_is_const@Base 9.10~dfsg
 callSystemDebug@Base 9.55.0~dfsg1-0ubuntu1
 capture_spot_equivalent_cmyk_colors@Base 8.61.dfsg.1
 ccbCreate@Base 9.55.0~dfsg1-0ubuntu1
 ccbDestroy@Base 9.55.0~dfsg1-0ubuntu1
 ccbaAddCcb@Base 9.55.0~dfsg1-0ubuntu1
 ccbaCreate@Base 9.55.0~dfsg1-0ubuntu1
 ccbaDestroy@Base 9.55.0~dfsg1-0ubuntu1
 ccbaDisplayBorder@Base 9.55.0~dfsg1-0ubuntu1
 ccbaDisplayImage1@Base 9.55.0~dfsg1-0ubuntu1
 ccbaDisplayImage2@Base 9.55.0~dfsg1-0ubuntu1
 ccbaDisplaySPBorder@Base 9.55.0~dfsg1-0ubuntu1
 ccbaGenerateGlobalLocs@Base 9.55.0~dfsg1-0ubuntu1
 ccbaGenerateSPGlobalLocs@Base 9.55.0~dfsg1-0ubuntu1
 ccbaGenerateSinglePath@Base 9.55.0~dfsg1-0ubuntu1
 ccbaGenerateStepChains@Base 9.55.0~dfsg1-0ubuntu1
 ccbaGetCcb@Base 9.55.0~dfsg1-0ubuntu1
 ccbaGetCount@Base 9.55.0~dfsg1-0ubuntu1
 ccbaRead@Base 9.55.0~dfsg1-0ubuntu1
 ccbaReadStream@Base 9.55.0~dfsg1-0ubuntu1
 ccbaStepChainsToPixCoords@Base 9.55.0~dfsg1-0ubuntu1
 ccbaWrite@Base 9.55.0~dfsg1-0ubuntu1
 ccbaWriteSVG@Base 9.55.0~dfsg1-0ubuntu1
 ccbaWriteSVGString@Base 9.55.0~dfsg1-0ubuntu1
 ccbaWriteStream@Base 9.55.0~dfsg1-0ubuntu1
 cf1_run_uncompressed@Base 8.61.dfsg.1
 cf2_run_eol_1d@Base 8.61.dfsg.1
 cf2_run_eol_2d@Base 8.61.dfsg.1
 cf2_run_horizontal@Base 8.61.dfsg.1
 cf2_run_pass@Base 8.61.dfsg.1
 cf2_run_uncompressed@Base 8.61.dfsg.1
 cf2_run_vertical@Base 8.61.dfsg.1
 cf_2d_decode@Base 8.61.dfsg.1
 cf_black_decode@Base 8.61.dfsg.1
 cf_black_runs@Base 8.61.dfsg.1
 cf_run_eol@Base 8.61.dfsg.1
 cf_uncompressed@Base 8.61.dfsg.1
 cf_uncompressed_decode@Base 8.61.dfsg.1
 cf_uncompressed_exit@Base 8.61.dfsg.1
 cf_white_decode@Base 8.61.dfsg.1
 cf_white_runs@Base 8.61.dfsg.1
 changeFormatForMissingLib@Base 9.55.0~dfsg1-0ubuntu1
 charstring_execchar@Base 8.61.dfsg.1
 charstring_font_get_refs@Base 8.61.dfsg.1
 charstring_font_init@Base 8.61.dfsg.1
 charstring_font_params@Base 8.61.dfsg.1
 check_cie_range@Base 9.02~dfsg
 check_cmyk_color_model_comps@Base 8.63.dfsg.1
 check_device_compatible_encoding@Base 9.22~dfsg
 check_device_separable@Base 8.61.dfsg.1
 check_pcm_and_separation_names@Base 8.61.dfsg.1
 check_proc_failed@Base 8.61.dfsg.1
 check_range@Base 9.00~dfsg
 check_separation_names@Base 9.21~dfsg
 check_type_failed@Base 8.61.dfsg.1
 cidConvertToPdfData@Base 9.55.0~dfsg1-0ubuntu1
 cid_fill_CIDMap@Base 8.61.dfsg.1
 cid_fill_Identity_CIDMap@Base 8.70~
 cid_font_data_param@Base 8.61.dfsg.1
 cid_font_system_info_param@Base 8.61.dfsg.1
 cid_system_info_is_null@Base 8.61.dfsg.1
 cid_system_info_param@Base 8.61.dfsg.1
 cid_system_info_set_null@Base 8.61.dfsg.1
 cid_to_TT_charcode@Base 8.61.dfsg.1
 cie_cache_joint@Base 8.61.dfsg.1
 cie_cache_push_finish@Base 8.61.dfsg.1
 cie_matrix_mult3@Base 9.00~dfsg
 cie_matrix_transpose3@Base 9.00~dfsg
 cie_mult3@Base 9.00~dfsg
 cie_points_param@Base 8.61.dfsg.1
 cie_prepare_cache@Base 8.61.dfsg.1
 cie_prepare_caches_4@Base 8.61.dfsg.1
 cie_set_finish@Base 8.61.dfsg.1
 cie_table_param@Base 8.61.dfsg.1
 cieabcspace@Base 8.64~dfsg
 cieaspace@Base 8.64~dfsg
 ciedefgspace@Base 8.64~dfsg
 ciedefspace@Base 8.64~dfsg
 cieicc_prepare_caches@Base 9.00~dfsg
 cl_cache_alloc@Base 9.16~dfsg
 cl_cache_destroy@Base 9.16~dfsg
 cl_cache_get_empty_slot@Base 9.16~dfsg
 cl_cache_load_slot@Base 9.16~dfsg
 cl_cache_read@Base 9.16~dfsg
 cl_cache_read_init@Base 9.16~dfsg
 cleanup_context_interpretation@Base 9.55.0~dfsg
 clear_stack_oper_func@Base 9.55.0~dfsg
 clip_call_copy_alpha@Base 8.61.dfsg.1
 clip_call_copy_alpha_hl_color@Base 9.06~dfsg
 clip_call_copy_color@Base 8.61.dfsg.1
 clip_call_copy_mono@Base 8.61.dfsg.1
 clip_call_copy_planes@Base 9.05~dfsg
 clip_call_fill_mask@Base 8.61.dfsg.1
 clip_call_fill_rectangle@Base 8.61.dfsg.1
 clip_call_fill_rectangle_hl_color@Base 9.06~dfsg
 clip_call_strip_copy_rop2@Base 9.05~
 clip_call_strip_tile_rect_devn@Base 9.06~dfsg
 clip_call_strip_tile_rectangle@Base 8.61.dfsg.1
 clist_begin_typed_image@Base 8.61.dfsg.1
 clist_bitmap_bytes@Base 8.61.dfsg.1
 clist_cfd_init@Base 8.61.dfsg.1
 clist_cfe_init@Base 8.61.dfsg.1
 clist_change_bits@Base 8.61.dfsg.1
 clist_change_tile@Base 8.61.dfsg.1
 clist_close@Base 9.55.0~dfsg
 clist_close_output_file@Base 8.61.dfsg.1
 clist_close_page_info@Base 8.61.dfsg.1
 clist_close_writer_and_init_reader@Base 8.63.dfsg.1
 clist_composite@Base 9.55.0~dfsg
 clist_compressor_init@Base 9.00~dfsg
 clist_compressor_template@Base 9.00~dfsg
 clist_copy_alpha@Base 8.61.dfsg.1
 clist_copy_alpha_hl_color@Base 9.06~dfsg
 clist_copy_color@Base 8.61.dfsg.1
 clist_copy_mono@Base 8.61.dfsg.1
 clist_copy_planes@Base 9.05~
 clist_data_size@Base 8.63.dfsg.1
 clist_decompressor_init@Base 9.00~dfsg
 clist_decompressor_template@Base 9.00~dfsg
 clist_dev_spec_op@Base 9.04~dfsg
 clist_enable_multi_thread_render@Base 8.63.dfsg.1
 clist_end_page@Base 8.61.dfsg.1
 clist_fill_linear_color_trapezoid@Base 8.61.dfsg.1
 clist_fill_linear_color_triangle@Base 8.61.dfsg.1
 clist_fill_mask@Base 8.61.dfsg.1
 clist_fill_parallelogram@Base 8.61.dfsg.1
 clist_fill_path@Base 8.61.dfsg.1
 clist_fill_rectangle@Base 8.61.dfsg.1
 clist_fill_rectangle_hl_color@Base 9.06~dfsg
 clist_fill_stroke_path@Base 9.51~dfsg
 clist_fill_trapezoid@Base 8.61.dfsg.1
 clist_fill_triangle@Base 8.61.dfsg.1
 clist_fillpage@Base 8.64~dfsg
 clist_finish_page@Base 8.61.dfsg.1
 clist_free_icc_table@Base 9.15~dfsg
 clist_get_bits_rectangle@Base 8.61.dfsg.1
 clist_get_data@Base 8.63.dfsg.1
 clist_icc_addentry@Base 9.00~dfsg
 clist_icc_addprofile@Base 9.00~dfsg
 clist_icc_searchtable@Base 9.00~dfsg
 clist_icc_table_finalize@Base 9.15~dfsg
 clist_icc_writetable@Base 9.00~dfsg
 clist_init_io_procs@Base 8.61.dfsg.1
 clist_initialize_device_procs@Base 9.55.0~dfsg
 clist_io_procs_file_global@Base 8.61.dfsg.1
 clist_io_procs_memory@Base 8.61.dfsg.1
 clist_io_procs_memory_global@Base 8.61.dfsg.1
 clist_make_accum_device@Base 9.15~dfsg
 clist_minimum_buffer@Base 9.53.0~dfsg
 clist_mutate_to_clist@Base 9.54.0~dfsg
 clist_open@Base 8.63.dfsg.1
 clist_output_page@Base 9.15~dfsg
 clist_playback_band@Base 8.61.dfsg.1
 clist_playback_file_bands@Base 8.61.dfsg.1
 clist_process_page@Base 9.15~dfsg
 clist_put_data@Base 8.63.dfsg.1
 clist_rasterize_lines@Base 8.63.dfsg.1
 clist_read_chunk@Base 9.00~dfsg
 clist_read_color_usage_array@Base 9.10~dfsg
 clist_read_icctable@Base 9.00~dfsg
 clist_read_op_equiv_cmyk_colors@Base 9.54.0~dfsg
 clist_render_init@Base 8.63.dfsg.1
 clist_render_rectangle@Base 8.61.dfsg.1
 clist_rld_init@Base 8.61.dfsg.1
 clist_rle_init@Base 8.61.dfsg.1
 clist_select_color0@Base 8.61.dfsg.1
 clist_select_color1@Base 8.61.dfsg.1
 clist_select_render_plane@Base 8.63.dfsg.1
 clist_select_tile_color0@Base 8.61.dfsg.1
 clist_select_tile_color1@Base 8.61.dfsg.1
 clist_setup_params@Base 8.61.dfsg.1
 clist_strip_copy_rop2@Base 9.05~
 clist_strip_tile_rect_devn@Base 9.06~dfsg
 clist_strip_tile_rectangle@Base 8.61.dfsg.1
 clist_stroke_path@Base 8.61.dfsg.1
 clist_teardown_render_threads@Base 8.63.dfsg.1
 clist_update_trans_bbox@Base 9.10~dfsg
 clist_write_color_usage_array@Base 9.10~dfsg
 clist_write_op_equiv_cmyk_colors@Base 9.54.0~dfsg
 clist_writer_check_empty_cropping_stack@Base 8.63.dfsg.1
 clist_writer_color_usage@Base 9.10~dfsg
 clist_writer_pop_cropping@Base 8.63.dfsg.1
 clist_writer_push_cropping@Base 8.63.dfsg.1
 clist_writer_push_no_cropping@Base 8.63.dfsg.1
 clump_locate_ptr@Base 9.20~dfsg
 clump_splay_app@Base 9.20~dfsg
 clump_splay_walk_bwd@Base 9.20~dfsg
 clump_splay_walk_bwd_init@Base 9.20~dfsg
 clump_splay_walk_fwd@Base 9.20~dfsg
 clump_splay_walk_init@Base 9.20~dfsg
 clump_splay_walk_init_mid@Base 9.20~dfsg
 cmapEqual@Base 9.55.0~dfsg1-0ubuntu1
 cmap_procs_default@Base 8.61.dfsg.1
 cmap_transfer@Base 9.02~dfsg
 cmap_transfer_halftone@Base 9.00~dfsg
 cmap_transfer_plane@Base 9.04~dfsg
 cmd_check_clip_path@Base 8.61.dfsg.1
 cmd_clear_known@Base 8.61.dfsg.1
 cmd_delta_offsets@Base 8.61.dfsg.1
 cmd_drawing_color_usage@Base 9.06~dfsg
 cmd_get_buffer_space@Base 8.63.dfsg.1
 cmd_put_bits@Base 8.61.dfsg.1
 cmd_put_color@Base 8.61.dfsg.1
 cmd_put_color_map@Base 8.61.dfsg.1
 cmd_put_color_mapping@Base 8.61.dfsg.1
 cmd_put_drawing_color@Base 8.61.dfsg.1
 cmd_put_enable_clip@Base 8.61.dfsg.1
 cmd_put_enable_lop@Base 8.61.dfsg.1
 cmd_put_frac31@Base 8.61.dfsg.1
 cmd_put_halftone@Base 8.61.dfsg.1
 cmd_put_list_op@Base 8.61.dfsg.1
 cmd_put_params@Base 8.61.dfsg.1
 cmd_put_range_op@Base 8.61.dfsg.1
 cmd_put_w@Base 8.61.dfsg.1
 cmd_read_matrix@Base 8.62.dfsg.1
 cmd_set_lop@Base 8.61.dfsg.1
 cmd_set_tile_colors@Base 8.61.dfsg.1
 cmd_set_tile_phase@Base 8.61.dfsg.1
 cmd_set_tile_phase_generic@Base 8.63.dfsg.1
 cmd_size_frac31@Base 8.61.dfsg.1
 cmd_size_w@Base 8.61.dfsg.1
 cmd_slow_rop@Base 8.61.dfsg.1
 cmd_update_lop@Base 8.61.dfsg.1
 cmd_write_buffer@Base 8.61.dfsg.1
 cmd_write_ctm@Base 8.61.dfsg.1
 cmd_write_ctm_return_length@Base 8.61.dfsg.1
 cmd_write_ctm_return_length_nodevice@Base 8.62.dfsg.1
 cmd_write_page_rect_cmd@Base 8.64~dfsg
 cmd_write_pseudo_band@Base 9.10~dfsg
 cmd_write_rect_cmd@Base 8.61.dfsg.1
 cmd_write_rect_hl_cmd@Base 9.06~dfsg
 cmd_write_unknown@Base 8.61.dfsg.1
 cmyk_16bit_map_cmyk_color@Base 8.71~dfsg
 cmyk_16bit_map_color_cmyk@Base 8.71~dfsg
 cmyk_16bit_map_color_rgb@Base 9.55.0~dfsg
 cmyk_1bit_map_cmyk_color@Base 8.61.dfsg.1
 cmyk_1bit_map_color_cmyk@Base 8.61.dfsg.1
 cmyk_1bit_map_color_rgb@Base 8.61.dfsg.1
 cmyk_8bit_map_cmyk_color@Base 8.61.dfsg.1
 cmyk_8bit_map_color_cmyk@Base 8.61.dfsg.1
 cmyk_8bit_map_color_rgb@Base 8.61.dfsg.1
 cmyk_cs_to_cmyk_cm@Base 8.61.dfsg.1
 cmyk_cs_to_devn_cm@Base 8.61.dfsg.1
 codepoint_to_utf8@Base 9.10~dfsg
 colorProcs@Base 8.64~dfsg
 color_cmyk_to_gray@Base 8.61.dfsg.1
 color_cmyk_to_rgb@Base 8.61.dfsg.1
 color_rgb_to_cmyk@Base 8.61.dfsg.1
 color_rgb_to_gray@Base 8.61.dfsg.1
 common_identity@Base 9.00~dfsg
 compareTilesByHisto@Base 9.55.0~dfsg1-0ubuntu1
 composeRGBAPixel@Base 9.55.0~dfsg1-0ubuntu1
 composeRGBPixel@Base 9.55.0~dfsg1-0ubuntu1
 concatenatePdf@Base 9.55.0~dfsg1-0ubuntu1
 concatenatePdfToData@Base 9.55.0~dfsg1-0ubuntu1
 const_90_degrees@Base 9.01~
 constant_color_quadrangle@Base 8.61.dfsg.1
 context_state_alloc@Base 8.61.dfsg.1
 context_state_free@Base 8.61.dfsg.1
 context_state_load@Base 8.61.dfsg.1
 context_state_store@Base 8.61.dfsg.1
 convertFilesFittedToPS@Base 9.55.0~dfsg1-0ubuntu1
 convertFilesTo1bpp@Base 9.55.0~dfsg1-0ubuntu1
 convertFilesToPS@Base 9.55.0~dfsg1-0ubuntu1
 convertFilesToPdf@Base 9.55.0~dfsg1-0ubuntu1
 convertFlateToPS@Base 9.55.0~dfsg1-0ubuntu1
 convertFlateToPSEmbed@Base 9.55.0~dfsg1-0ubuntu1
 convertG4ToPS@Base 9.55.0~dfsg1-0ubuntu1
 convertG4ToPSEmbed@Base 9.55.0~dfsg1-0ubuntu1
 convertGrayCodeToInt@Base 9.55.0~dfsg1-0ubuntu1
 convertHSVToRGB@Base 9.55.0~dfsg1-0ubuntu1
 convertImageDataToPdf@Base 9.55.0~dfsg1-0ubuntu1
 convertImageDataToPdfData@Base 9.55.0~dfsg1-0ubuntu1
 convertIntToGrayCode@Base 9.55.0~dfsg1-0ubuntu1
 convertJpegToPS@Base 9.55.0~dfsg1-0ubuntu1
 convertJpegToPSEmbed@Base 9.55.0~dfsg1-0ubuntu1
 convertLABToRGB@Base 9.55.0~dfsg1-0ubuntu1
 convertLABToXYZ@Base 9.55.0~dfsg1-0ubuntu1
 convertNumberedMasksToBoxaa@Base 9.55.0~dfsg1-0ubuntu1
 convertOnBigEnd16@Base 9.55.0~dfsg1-0ubuntu1
 convertOnBigEnd32@Base 9.55.0~dfsg1-0ubuntu1
 convertOnLittleEnd16@Base 9.55.0~dfsg1-0ubuntu1
 convertOnLittleEnd32@Base 9.55.0~dfsg1-0ubuntu1
 convertPtaLineTo4cc@Base 9.55.0~dfsg1-0ubuntu1
 convertRGBToHSV@Base 9.55.0~dfsg1-0ubuntu1
 convertRGBToLAB@Base 9.55.0~dfsg1-0ubuntu1
 convertRGBToXYZ@Base 9.55.0~dfsg1-0ubuntu1
 convertRGBToYUV@Base 9.55.0~dfsg1-0ubuntu1
 convertSegmentedFilesToPdf@Base 9.55.0~dfsg1-0ubuntu1
 convertSegmentedPagesToPS@Base 9.55.0~dfsg1-0ubuntu1
 convertSepCharsInPath@Base 9.55.0~dfsg1-0ubuntu1
 convertSortedToNumberedPathnames@Base 9.55.0~dfsg1-0ubuntu1
 convertTiffMultipageToPS@Base 9.55.0~dfsg1-0ubuntu1
 convertTiffMultipageToPdf@Base 9.55.0~dfsg1-0ubuntu1
 convertToNUpFiles@Base 9.55.0~dfsg1-0ubuntu1
 convertToNUpPixa@Base 9.55.0~dfsg1-0ubuntu1
 convertToPSEmbed@Base 9.55.0~dfsg1-0ubuntu1
 convertToPdf@Base 9.55.0~dfsg1-0ubuntu1
 convertToPdfData@Base 9.55.0~dfsg1-0ubuntu1
 convertToPdfDataSegmented@Base 9.55.0~dfsg1-0ubuntu1
 convertToPdfSegmented@Base 9.55.0~dfsg1-0ubuntu1
 convertUnscaledFilesToPdf@Base 9.55.0~dfsg1-0ubuntu1
 convertUnscaledToPdfData@Base 9.55.0~dfsg1-0ubuntu1
 convertXYZToLAB@Base 9.55.0~dfsg1-0ubuntu1
 convertXYZToRGB@Base 9.55.0~dfsg1-0ubuntu1
 convertYUVToRGB@Base 9.55.0~dfsg1-0ubuntu1
 convert_DeviceN_alternate@Base 9.10~dfsg
 convert_separation_alternate@Base 9.10~dfsg
 copied_drop_extension_glyphs@Base 8.61.dfsg.1
 copied_get_notdef@Base 8.61.dfsg.1
 copied_order_font@Base 8.61.dfsg.1
 copy_font_name@Base 8.61.dfsg.1
 cos_array_add@Base 8.61.dfsg.1
 cos_array_add_c_string@Base 8.61.dfsg.1
 cos_array_add_int@Base 8.61.dfsg.1
 cos_array_add_no_copy@Base 8.61.dfsg.1
 cos_array_add_object@Base 8.61.dfsg.1
 cos_array_add_real@Base 8.61.dfsg.1
 cos_array_alloc@Base 8.61.dfsg.1
 cos_array_element_first@Base 8.61.dfsg.1
 cos_array_element_next@Base 8.61.dfsg.1
 cos_array_from_floats@Base 8.61.dfsg.1
 cos_array_procs@Base 8.61.dfsg.1
 cos_array_put@Base 8.61.dfsg.1
 cos_array_put_no_copy@Base 8.61.dfsg.1
 cos_array_unadd@Base 8.61.dfsg.1
 cos_become@Base 8.61.dfsg.1
 cos_c_string_value@Base 8.61.dfsg.1
 cos_dict_alloc@Base 8.61.dfsg.1
 cos_dict_delete_c_key@Base 9.10~dfsg
 cos_dict_elements_write@Base 8.61.dfsg.1
 cos_dict_find@Base 8.61.dfsg.1
 cos_dict_find_c_key@Base 8.61.dfsg.1
 cos_dict_forall@Base 8.61.dfsg.1
 cos_dict_move_all@Base 8.61.dfsg.1
 cos_dict_objects_delete@Base 8.61.dfsg.1
 cos_dict_objects_write@Base 8.61.dfsg.1
 cos_dict_procs@Base 8.61.dfsg.1
 cos_dict_put@Base 8.61.dfsg.1
 cos_dict_put_c_key@Base 8.61.dfsg.1
 cos_dict_put_c_key_bool@Base 8.61.dfsg.1
 cos_dict_put_c_key_floats@Base 8.61.dfsg.1
 cos_dict_put_c_key_int@Base 8.61.dfsg.1
 cos_dict_put_c_key_object@Base 8.61.dfsg.1
 cos_dict_put_c_key_real@Base 8.61.dfsg.1
 cos_dict_put_c_key_string@Base 8.61.dfsg.1
 cos_dict_put_c_strings@Base 8.61.dfsg.1
 cos_dict_put_no_copy@Base 8.61.dfsg.1
 cos_dict_put_string@Base 8.61.dfsg.1
 cos_dict_put_string_copy@Base 8.61.dfsg.1
 cos_free@Base 8.61.dfsg.1
 cos_generic_procs@Base 8.61.dfsg.1
 cos_object_alloc@Base 8.61.dfsg.1
 cos_object_memory@Base 8.61.dfsg.1
 cos_object_value@Base 8.61.dfsg.1
 cos_param_list_writer_init@Base 8.61.dfsg.1
 cos_reference_alloc@Base 9.06~dfsg
 cos_reference_procs@Base 9.06~dfsg
 cos_release@Base 8.61.dfsg.1
 cos_resource_value@Base 8.61.dfsg.1
 cos_stream_add@Base 8.61.dfsg.1
 cos_stream_add_bytes@Base 8.61.dfsg.1
 cos_stream_add_stream_contents@Base 8.61.dfsg.1
 cos_stream_alloc@Base 8.61.dfsg.1
 cos_stream_contents_write@Base 8.61.dfsg.1
 cos_stream_dict@Base 8.61.dfsg.1
 cos_stream_elements_write@Base 8.61.dfsg.1
 cos_stream_from_pipeline@Base 8.61.dfsg.1
 cos_stream_length@Base 8.61.dfsg.1
 cos_stream_procs@Base 8.61.dfsg.1
 cos_stream_release_pieces@Base 8.61.dfsg.1
 cos_string_value@Base 8.61.dfsg.1
 cos_value_free@Base 8.61.dfsg.1
 cos_value_write@Base 8.61.dfsg.1
 cos_write@Base 8.61.dfsg.1
 cos_write_dict_as_ordered_array@Base 9.15~dfsg
 cos_write_object@Base 8.61.dfsg.1
 cos_write_stream_alloc@Base 8.61.dfsg.1
 cpath_is_rectangle@Base 8.61.dfsg.1
 create2dFloatArray@Base 9.55.0~dfsg1-0ubuntu1
 create2dIntArray@Base 9.55.0~dfsg1-0ubuntu1
 createMatrix2dRotate@Base 9.55.0~dfsg1-0ubuntu1
 createMatrix2dScale@Base 9.55.0~dfsg1-0ubuntu1
 createMatrix2dTranslate@Base 9.55.0~dfsg1-0ubuntu1
 create_2d_gauss_filter@Base 9.22~dfsg
 create_names_array@Base 8.61.dfsg.1
 cs_adjust_counts_icc@Base 9.00~dfsg
 cs_adjust_swappedcounts_icc@Base 9.54.0~dfsg
 cups_close@Base 8.61.dfsg.1
 cups_decode_color@Base 8.61.dfsg.1
 cups_encode_color@Base 8.61.dfsg.1
 cups_get_color_comp_index@Base 8.71~dfsg2-5~
 cups_get_color_mapping_procs@Base 8.61.dfsg.1
 cups_get_matrix@Base 8.61.dfsg.1
 cups_get_params@Base 8.61.dfsg.1
 cups_get_space_params@Base 8.61.dfsg.1
 cups_map_cmyk@Base 8.61.dfsg.1
 cups_map_gray@Base 8.61.dfsg.1
 cups_map_rgb@Base 8.61.dfsg.1
 cups_open@Base 8.61.dfsg.1
 cups_output_page@Base 9.10~dfsg
 cups_print_pages@Base 8.61.dfsg.1
 cups_put_params@Base 8.61.dfsg.1
 cups_set_color_info@Base 8.61.dfsg.1
 cups_spec_op@Base 9.25~dfsg
 cups_sync_output@Base 8.61.dfsg.1
 curve_coeffs_ranged@Base 8.61.dfsg.1
 data_image_params@Base 8.61.dfsg.1
 data_source_access_bytes@Base 8.61.dfsg.1
 data_source_access_stream@Base 8.61.dfsg.1
 data_source_access_string@Base 8.61.dfsg.1
 debug_dump_array@Base 8.61.dfsg.1
 debug_dump_bitmap@Base 8.61.dfsg.1
 debug_dump_bytes@Base 8.61.dfsg.1
 debug_dump_one_ref@Base 8.61.dfsg.1
 debug_dump_refs@Base 8.61.dfsg.1
 debug_dump_stack@Base 8.61.dfsg.1
 debug_fp@Base 9.55.0~dfsg1-0ubuntu1
 debug_print_name@Base 8.61.dfsg.1
 debug_print_name_index@Base 8.61.dfsg.1
 debug_print_ref@Base 8.61.dfsg.1
 debug_print_ref_packed@Base 8.61.dfsg.1
 debug_print_string@Base 8.61.dfsg.1
 debug_print_string_hex@Base 8.61.dfsg.1
 debug_print_string_hex_nomem@Base 9.10~dfsg
 decodeAscii85@Base 9.55.0~dfsg1-0ubuntu1
 decodeAscii85WithComp@Base 9.55.0~dfsg1-0ubuntu1
 decodeBase64@Base 9.55.0~dfsg1-0ubuntu1
 default_defaultWidthX@Base 8.61.dfsg.1
 default_subclass_begin_page@Base 9.55.0~dfsg
 default_subclass_begin_transparency_group@Base 9.18~dfsg
 default_subclass_begin_transparency_mask@Base 9.18~dfsg
 default_subclass_begin_typed_image@Base 9.18~dfsg
 default_subclass_close_device@Base 9.18~dfsg
 default_subclass_composite@Base 9.55.0~dfsg
 default_subclass_copy_alpha@Base 9.18~dfsg
 default_subclass_copy_alpha_hl_color@Base 9.18~dfsg
 default_subclass_copy_color@Base 9.18~dfsg
 default_subclass_copy_mono@Base 9.18~dfsg
 default_subclass_copy_planes@Base 9.18~dfsg
 default_subclass_decode_color@Base 9.18~dfsg
 default_subclass_dev_spec_op@Base 9.18~dfsg
 default_subclass_discard_transparency_layer@Base 9.18~dfsg
 default_subclass_draw_thin_line@Base 9.18~dfsg
 default_subclass_encode_color@Base 9.18~dfsg
 default_subclass_end_page@Base 9.55.0~dfsg
 default_subclass_end_transparency_group@Base 9.18~dfsg
 default_subclass_end_transparency_mask@Base 9.18~dfsg
 default_subclass_fill_linear_color_scanline@Base 9.18~dfsg
 default_subclass_fill_linear_color_trapezoid@Base 9.18~dfsg
 default_subclass_fill_linear_color_triangle@Base 9.18~dfsg
 default_subclass_fill_mask@Base 9.18~dfsg
 default_subclass_fill_parallelogram@Base 9.18~dfsg
 default_subclass_fill_path@Base 9.18~dfsg
 default_subclass_fill_rectangle@Base 9.18~dfsg
 default_subclass_fill_rectangle_hl_color@Base 9.18~dfsg
 default_subclass_fill_stroke_path@Base 9.51~dfsg
 default_subclass_fill_trapezoid@Base 9.18~dfsg
 default_subclass_fill_triangle@Base 9.18~dfsg
 default_subclass_fillpage@Base 9.18~dfsg
 default_subclass_finalize@Base 9.25~dfsg
 default_subclass_get_alpha_bits@Base 9.18~dfsg
 default_subclass_get_bits_rectangle@Base 9.18~dfsg
 default_subclass_get_clipping_box@Base 9.18~dfsg
 default_subclass_get_color_comp_index@Base 9.18~dfsg
 default_subclass_get_color_mapping_procs@Base 9.18~dfsg
 default_subclass_get_hardware_params@Base 9.18~dfsg
 default_subclass_get_initial_matrix@Base 9.18~dfsg
 default_subclass_get_page_device@Base 9.18~dfsg
 default_subclass_get_params@Base 9.18~dfsg
 default_subclass_get_profile@Base 9.18~dfsg
 default_subclass_include_color_space@Base 9.18~dfsg
 default_subclass_initialize_device_procs@Base 9.55.0~dfsg
 default_subclass_install@Base 9.55.0~dfsg
 default_subclass_map_cmyk_color@Base 9.18~dfsg
 default_subclass_map_color_rgb@Base 9.18~dfsg
 default_subclass_map_rgb_color@Base 9.18~dfsg
 default_subclass_open_device@Base 9.18~dfsg
 default_subclass_output_page@Base 9.18~dfsg
 default_subclass_pop_transparency_state@Base 9.18~dfsg
 default_subclass_process_page@Base 9.18~dfsg
 default_subclass_push_transparency_state@Base 9.18~dfsg
 default_subclass_put_image@Base 9.18~dfsg
 default_subclass_put_params@Base 9.18~dfsg
 default_subclass_ret_devn_params@Base 9.18~dfsg
 default_subclass_set_graphics_type_tag@Base 9.18~dfsg
 default_subclass_strip_copy_rop2@Base 9.18~dfsg
 default_subclass_strip_tile_rect_devn@Base 9.18~dfsg
 default_subclass_strip_tile_rectangle@Base 9.18~dfsg
 default_subclass_stroke_path@Base 9.18~dfsg
 default_subclass_sync_output@Base 9.18~dfsg
 default_subclass_text_begin@Base 9.18~dfsg
 default_subclass_transform_pixel_region@Base 9.26~dfsg
 default_subclass_update_spot_equivalent_colors@Base 9.18~dfsg
 define_gs_font@Base 8.61.dfsg.1
 devn_copy_params@Base 9.02~dfsg
 devn_free_params@Base 9.02~dfsg
 devn_get_color_comp_index@Base 8.61.dfsg.1
 devn_get_params@Base 8.61.dfsg.1
 devn_printer_put_params@Base 8.61.dfsg.1
 devn_put_params@Base 8.61.dfsg.1
 dewarpBuildLineModel@Base 9.55.0~dfsg1-0ubuntu1
 dewarpBuildPageModel@Base 9.55.0~dfsg1-0ubuntu1
 dewarpCreate@Base 9.55.0~dfsg1-0ubuntu1
 dewarpCreateRef@Base 9.55.0~dfsg1-0ubuntu1
 dewarpDebug@Base 9.55.0~dfsg1-0ubuntu1
 dewarpDestroy@Base 9.55.0~dfsg1-0ubuntu1
 dewarpFindHorizDisparity@Base 9.55.0~dfsg1-0ubuntu1
 dewarpFindHorizSlopeDisparity@Base 9.55.0~dfsg1-0ubuntu1
 dewarpFindVertDisparity@Base 9.55.0~dfsg1-0ubuntu1
 dewarpGetTextlineCenters@Base 9.55.0~dfsg1-0ubuntu1
 dewarpMinimize@Base 9.55.0~dfsg1-0ubuntu1
 dewarpPopulateFullRes@Base 9.55.0~dfsg1-0ubuntu1
 dewarpRead@Base 9.55.0~dfsg1-0ubuntu1
 dewarpReadMem@Base 9.55.0~dfsg1-0ubuntu1
 dewarpReadStream@Base 9.55.0~dfsg1-0ubuntu1
 dewarpRemoveShortLines@Base 9.55.0~dfsg1-0ubuntu1
 dewarpShowResults@Base 9.55.0~dfsg1-0ubuntu1
 dewarpSinglePage@Base 9.55.0~dfsg1-0ubuntu1
 dewarpSinglePageInit@Base 9.55.0~dfsg1-0ubuntu1
 dewarpSinglePageRun@Base 9.55.0~dfsg1-0ubuntu1
 dewarpWrite@Base 9.55.0~dfsg1-0ubuntu1
 dewarpWriteMem@Base 9.55.0~dfsg1-0ubuntu1
 dewarpWriteStream@Base 9.55.0~dfsg1-0ubuntu1
 dewarpaApplyDisparity@Base 9.55.0~dfsg1-0ubuntu1
 dewarpaApplyDisparityBoxa@Base 9.55.0~dfsg1-0ubuntu1
 dewarpaCreate@Base 9.55.0~dfsg1-0ubuntu1
 dewarpaCreateFromPixacomp@Base 9.55.0~dfsg1-0ubuntu1
 dewarpaDestroy@Base 9.55.0~dfsg1-0ubuntu1
 dewarpaDestroyDewarp@Base 9.55.0~dfsg1-0ubuntu1
 dewarpaGetDewarp@Base 9.55.0~dfsg1-0ubuntu1
 dewarpaInfo@Base 9.55.0~dfsg1-0ubuntu1
 dewarpaInsertDewarp@Base 9.55.0~dfsg1-0ubuntu1
 dewarpaInsertRefModels@Base 9.55.0~dfsg1-0ubuntu1
 dewarpaListPages@Base 9.55.0~dfsg1-0ubuntu1
 dewarpaModelStats@Base 9.55.0~dfsg1-0ubuntu1
 dewarpaModelStatus@Base 9.55.0~dfsg1-0ubuntu1
 dewarpaRead@Base 9.55.0~dfsg1-0ubuntu1
 dewarpaReadMem@Base 9.55.0~dfsg1-0ubuntu1
 dewarpaReadStream@Base 9.55.0~dfsg1-0ubuntu1
 dewarpaRestoreModels@Base 9.55.0~dfsg1-0ubuntu1
 dewarpaSetCheckColumns@Base 9.55.0~dfsg1-0ubuntu1
 dewarpaSetCurvatures@Base 9.55.0~dfsg1-0ubuntu1
 dewarpaSetMaxDistance@Base 9.55.0~dfsg1-0ubuntu1
 dewarpaSetValidModels@Base 9.55.0~dfsg1-0ubuntu1
 dewarpaShowArrays@Base 9.55.0~dfsg1-0ubuntu1
 dewarpaStripRefModels@Base 9.55.0~dfsg1-0ubuntu1
 dewarpaUseBothArrays@Base 9.55.0~dfsg1-0ubuntu1
 dewarpaWrite@Base 9.55.0~dfsg1-0ubuntu1
 dewarpaWriteMem@Base 9.55.0~dfsg1-0ubuntu1
 dewarpaWriteStream@Base 9.55.0~dfsg1-0ubuntu1
 dflush@Base 8.61.dfsg.1
 dict_alloc@Base 8.61.dfsg.1
 dict_bool_param@Base 8.61.dfsg.1
 dict_check_uid_param@Base 8.61.dfsg.1
 dict_copy_entries@Base 8.61.dfsg.1
 dict_find@Base 8.61.dfsg.1
 dict_find_string@Base 8.61.dfsg.1
 dict_first@Base 8.61.dfsg.1
 dict_float_array_check_param@Base 8.61.dfsg.1
 dict_float_array_param@Base 8.61.dfsg.1
 dict_float_param@Base 8.61.dfsg.1
 dict_floats_param@Base 8.61.dfsg.1
 dict_floats_param_errorinfo@Base 8.61.dfsg.1
 dict_grow@Base 8.61.dfsg.1
 dict_index_entry@Base 8.61.dfsg.1
 dict_int_array_check_param@Base 8.61.dfsg.1
 dict_int_array_param@Base 8.61.dfsg.1
 dict_int_null_param@Base 8.61.dfsg.1
 dict_int_param@Base 8.61.dfsg.1
 dict_ints_param@Base 8.61.dfsg.1
 dict_length@Base 8.61.dfsg.1
 dict_matrix3_param@Base 8.61.dfsg.1
 dict_matrix_param@Base 8.61.dfsg.1
 dict_max_index@Base 8.61.dfsg.1
 dict_max_size@Base 8.61.dfsg.1
 dict_maxlength@Base 8.61.dfsg.1
 dict_next@Base 8.61.dfsg.1
 dict_param_list_read@Base 8.61.dfsg.1
 dict_param_list_write@Base 8.61.dfsg.1
 dict_proc3_param@Base 8.61.dfsg.1
 dict_proc_array_param@Base 8.61.dfsg.1
 dict_proc_param@Base 8.61.dfsg.1
 dict_put@Base 8.61.dfsg.1
 dict_put_string@Base 8.61.dfsg.1
 dict_put_string_copy@Base 9.25~dfsg
 dict_range3_param@Base 8.61.dfsg.1
 dict_ranges_param@Base 8.61.dfsg.1
 dict_read_password@Base 8.61.dfsg.1
 dict_resize@Base 8.61.dfsg.1
 dict_round_size_large@Base 8.61.dfsg.1
 dict_round_size_small@Base 8.61.dfsg.1
 dict_uid_param@Base 8.61.dfsg.1
 dict_uint_param@Base 8.61.dfsg.1
 dict_undef@Base 8.61.dfsg.1
 dict_unpack@Base 8.61.dfsg.1
 dict_value_index@Base 8.61.dfsg.1
 dict_write_password@Base 8.61.dfsg.1
 displayHSVColorRange@Base 9.55.0~dfsg1-0ubuntu1
 ditherToBinaryLineLow@Base 9.55.0~dfsg1-0ubuntu1
 dljet_mono_print_page@Base 8.61.dfsg.1
 dljet_mono_print_page_copies@Base 8.61.dfsg.1
 dmprintf_file_and_line@Base 9.10~dfsg
 dorestore@Base 9.25~dfsg
 dpixAddMultConstant@Base 9.55.0~dfsg1-0ubuntu1
 dpixChangeRefcount@Base 9.55.0~dfsg1-0ubuntu1
 dpixClone@Base 9.55.0~dfsg1-0ubuntu1
 dpixConvertToFPix@Base 9.55.0~dfsg1-0ubuntu1
 dpixConvertToPix@Base 9.55.0~dfsg1-0ubuntu1
 dpixCopy@Base 9.55.0~dfsg1-0ubuntu1
 dpixCopyResolution@Base 9.55.0~dfsg1-0ubuntu1
 dpixCreate@Base 9.55.0~dfsg1-0ubuntu1
 dpixCreateTemplate@Base 9.55.0~dfsg1-0ubuntu1
 dpixDestroy@Base 9.55.0~dfsg1-0ubuntu1
 dpixEndianByteSwap@Base 9.55.0~dfsg1-0ubuntu1
 dpixGetData@Base 9.55.0~dfsg1-0ubuntu1
 dpixGetDimensions@Base 9.55.0~dfsg1-0ubuntu1
 dpixGetMax@Base 9.55.0~dfsg1-0ubuntu1
 dpixGetMin@Base 9.55.0~dfsg1-0ubuntu1
 dpixGetPixel@Base 9.55.0~dfsg1-0ubuntu1
 dpixGetRefcount@Base 9.55.0~dfsg1-0ubuntu1
 dpixGetResolution@Base 9.55.0~dfsg1-0ubuntu1
 dpixGetWpl@Base 9.55.0~dfsg1-0ubuntu1
 dpixLinearCombination@Base 9.55.0~dfsg1-0ubuntu1
 dpixRead@Base 9.55.0~dfsg1-0ubuntu1
 dpixReadMem@Base 9.55.0~dfsg1-0ubuntu1
 dpixReadStream@Base 9.55.0~dfsg1-0ubuntu1
 dpixScaleByInteger@Base 9.55.0~dfsg1-0ubuntu1
 dpixSetAllArbitrary@Base 9.55.0~dfsg1-0ubuntu1
 dpixSetData@Base 9.55.0~dfsg1-0ubuntu1
 dpixSetDimensions@Base 9.55.0~dfsg1-0ubuntu1
 dpixSetPixel@Base 9.55.0~dfsg1-0ubuntu1
 dpixSetResolution@Base 9.55.0~dfsg1-0ubuntu1
 dpixSetWpl@Base 9.55.0~dfsg1-0ubuntu1
 dpixWrite@Base 9.55.0~dfsg1-0ubuntu1
 dpixWriteMem@Base 9.55.0~dfsg1-0ubuntu1
 dpixWriteStream@Base 9.55.0~dfsg1-0ubuntu1
 dprintf_file_and_line@Base 8.61.dfsg.1
 dprintf_file_and_line_format@Base 8.61.dfsg.1
 dprintf_file_only_format@Base 8.61.dfsg.1
 dsc_add_media@Base 8.61.dfsg.1
 dsc_add_page@Base 8.61.dfsg.1
 dsc_debug_print@Base 8.61.dfsg.1
 dsc_find_platefile@Base 8.61.dfsg.1
 dsc_fixup@Base 8.61.dfsg.1
 dsc_free@Base 8.61.dfsg.1
 dsc_init@Base 8.61.dfsg.1
 dsc_init_with_alloc@Base 8.61.dfsg.1
 dsc_known_media@Base 8.61.dfsg.1
 dsc_new@Base 8.61.dfsg.1
 dsc_ref@Base 8.61.dfsg.1
 dsc_scan_data@Base 8.61.dfsg.1
 dsc_set_debug_function@Base 8.61.dfsg.1
 dsc_set_error_function@Base 8.61.dfsg.1
 dsc_set_length@Base 8.61.dfsg.1
 dsc_set_page_bbox@Base 8.61.dfsg.1
 dsc_stricmp@Base 8.61.dfsg.1
 dsc_unref@Base 8.61.dfsg.1
 dstack_dict_is_permanent@Base 8.61.dfsg.1
 dstack_find_name_by_index@Base 8.61.dfsg.1
 dstack_gc_cleanup@Base 8.61.dfsg.1
 dstack_set_top@Base 8.61.dfsg.1
 eb_free_aligned@Base 8.63.dfsg.1
 eb_malloc_aligned@Base 8.63.dfsg.1
 emprintf_program_ident@Base 9.00~dfsg
 enc_num_bytes@Base 8.61.dfsg.1
 enc_s_get_int@Base 8.61.dfsg.1
 enc_s_get_int_nc@Base 8.61.dfsg.1
 enc_s_put_int@Base 8.61.dfsg.1
 enc_s_size_int@Base 8.61.dfsg.1
 enc_u_get_uint@Base 8.61.dfsg.1
 enc_u_get_uint_nc@Base 8.61.dfsg.1
 enc_u_put_uint@Base 8.61.dfsg.1
 enc_u_size_uint@Base 8.61.dfsg.1
 encodeAscii85@Base 9.55.0~dfsg1-0ubuntu1
 encodeAscii85WithComp@Base 9.55.0~dfsg1-0ubuntu1
 encodeBase64@Base 9.55.0~dfsg1-0ubuntu1
 encode_binary_token@Base 8.61.dfsg.1
 enum_bytestring@Base 8.61.dfsg.1
 enum_const_bytestring@Base 8.61.dfsg.1
 epo_check_and_install@Base 9.25~dfsg
 epo_disable@Base 9.25~dfsg
 eprintf_program_ident@Base 8.61.dfsg.1
 eprn_bits_for_levels@Base 8.61.dfsg.1
 eprn_check_colour_info@Base 8.61.dfsg.1
 eprn_close_device@Base 8.61.dfsg.1
 eprn_colour_model_list@Base 8.61.dfsg.1
 eprn_fetch_scan_line@Base 8.61.dfsg.1
 eprn_fillpage@Base 9.18~dfsg
 eprn_finalize@Base 8.61.dfsg.1
 eprn_get_initial_matrix@Base 8.61.dfsg.1
 eprn_get_int@Base 8.61.dfsg.1
 eprn_get_params@Base 8.61.dfsg.1
 eprn_get_planes@Base 8.61.dfsg.1
 eprn_get_string@Base 8.61.dfsg.1
 eprn_init_device@Base 8.61.dfsg.1
 eprn_map_cmyk_color@Base 8.61.dfsg.1
 eprn_map_cmyk_color_flex@Base 8.61.dfsg.1
 eprn_map_cmyk_color_glob@Base 8.61.dfsg.1
 eprn_map_cmyk_color_max@Base 8.61.dfsg.1
 eprn_map_color_rgb@Base 8.61.dfsg.1
 eprn_map_rgb_color_for_CMY_or_K@Base 8.61.dfsg.1
 eprn_map_rgb_color_for_CMY_or_K_flex@Base 8.61.dfsg.1
 eprn_map_rgb_color_for_CMY_or_K_max@Base 8.61.dfsg.1
 eprn_map_rgb_color_for_RGB@Base 8.61.dfsg.1
 eprn_map_rgb_color_for_RGB_flex@Base 8.61.dfsg.1
 eprn_map_rgb_color_for_RGB_max@Base 8.61.dfsg.1
 eprn_number_of_bitplanes@Base 8.61.dfsg.1
 eprn_number_of_octets@Base 8.61.dfsg.1
 eprn_open_device@Base 8.61.dfsg.1
 eprn_output_page@Base 8.61.dfsg.1
 eprn_put_params@Base 8.61.dfsg.1
 eprn_set_media_data@Base 8.61.dfsg.1
 eprn_set_media_flags@Base 8.61.dfsg.1
 eprn_set_page_layout@Base 8.61.dfsg.1
 eprn_split_FS@Base 8.61.dfsg.1
 errflush@Base 8.61.dfsg.1
 errflush_nomem@Base 9.00~dfsg
 errorexec_find@Base 9.25~dfsg-3~
 errprintf@Base 8.61.dfsg.1
 errprintf_nomem@Base 9.00~dfsg
 errwrite@Base 8.61.dfsg.1
 errwrite_nomem@Base 9.00~dfsg
 ets_calloc@Base 9.21~dfsg
 ets_create@Base 9.21~dfsg
 ets_destroy@Base 9.21~dfsg
 ets_free@Base 9.21~dfsg
 ets_line@Base 9.21~dfsg
 ets_malloc@Base 9.21~dfsg
 even_better_free@Base 8.63.dfsg.1
 even_better_line@Base 8.63.dfsg.1
 even_better_line_rll@Base 8.63.dfsg.1
 even_better_new@Base 8.63.dfsg.1
 extractG4DataFromFile@Base 9.55.0~dfsg1-0ubuntu1
 extractMinMaxComponent@Base 9.55.0~dfsg1-0ubuntu1
 extractNumberFromFilename@Base 9.55.0~dfsg1-0ubuntu1
 extractRGBAValues@Base 9.55.0~dfsg1-0ubuntu1
 extractRGBValues@Base 9.55.0~dfsg1-0ubuntu1
 fax_adjusted_width@Base 9.01~
 fc_color_quo@Base 8.61.dfsg.1
 fgetJp2kResolution@Base 9.55.0~dfsg1-0ubuntu1
 fgetJpegComment@Base 9.55.0~dfsg1-0ubuntu1
 fgetJpegResolution@Base 9.55.0~dfsg1-0ubuntu1
 fgetPngColormapInfo@Base 9.55.0~dfsg1-0ubuntu1
 fgetPngResolution@Base 9.55.0~dfsg1-0ubuntu1
 fhmtautogen1@Base 9.55.0~dfsg1-0ubuntu1
 fhmtautogen2@Base 9.55.0~dfsg1-0ubuntu1
 fhmtautogen@Base 9.55.0~dfsg1-0ubuntu1
 fhmtgen_low_1@Base 9.55.0~dfsg1-0ubuntu1
 fileAppendString@Base 9.55.0~dfsg1-0ubuntu1
 fileConcatenate@Base 9.55.0~dfsg1-0ubuntu1
 fileCopy@Base 9.55.0~dfsg1-0ubuntu1
 fileCorruptByDeletion@Base 9.55.0~dfsg1-0ubuntu1
 fileCorruptByMutation@Base 9.55.0~dfsg1-0ubuntu1
 fileFormatIsTiff@Base 9.55.0~dfsg1-0ubuntu1
 fileReplaceBytes@Base 9.55.0~dfsg1-0ubuntu1
 fileSplitLinesUniform@Base 9.55.0~dfsg1-0ubuntu1
 file_alloc_stream@Base 8.61.dfsg.1
 file_close@Base 8.61.dfsg.1
 file_close_disable@Base 8.61.dfsg.1
 file_close_file@Base 8.61.dfsg.1
 file_close_finish@Base 8.61.dfsg.1
 file_default_buffer_size@Base 8.61.dfsg.1
 file_init_stream@Base 8.61.dfsg.1
 file_open_stream@Base 8.61.dfsg.1
 file_prepare_stream@Base 8.61.dfsg.1
 file_read_string@Base 8.61.dfsg.1
 file_switch_to_read@Base 8.61.dfsg.1
 file_switch_to_write@Base 8.61.dfsg.1
 filesAreIdentical@Base 9.55.0~dfsg1-0ubuntu1
 fill_bool_array_from_dict@Base 9.55.0~dfsg
 fill_domain_from_dict@Base 9.55.0~dfsg
 fill_float_array_from_dict@Base 9.55.0~dfsg
 fill_matrix_from_dict@Base 9.55.0~dfsg
 filter_mark_strm_temp@Base 8.61.dfsg.1
 filter_mark_temp@Base 8.61.dfsg.1
 filter_open@Base 8.61.dfsg.1
 filter_read@Base 8.61.dfsg.1
 filter_read_predictor@Base 8.61.dfsg.1
 filter_read_simple@Base 8.61.dfsg.1
 filter_report_error@Base 8.61.dfsg.1
 filter_write@Base 8.61.dfsg.1
 filter_write_predictor@Base 8.61.dfsg.1
 filter_write_simple@Base 8.61.dfsg.1
 findFileFormat@Base 9.55.0~dfsg1-0ubuntu1
 findFileFormatBuffer@Base 9.55.0~dfsg1-0ubuntu1
 findFileFormatStream@Base 9.55.0~dfsg1-0ubuntu1
 findNextLargerPrime@Base 9.55.0~dfsg1-0ubuntu1
 findTiffCompression@Base 9.55.0~dfsg1-0ubuntu1
 fixed_coeff_mult@Base 8.61.dfsg.1
 fixed_mult_quo@Base 8.61.dfsg.1
 float_param@Base 8.61.dfsg.1
 float_params@Base 8.61.dfsg.1
 fmorphautogen1@Base 9.55.0~dfsg1-0ubuntu1
 fmorphautogen2@Base 9.55.0~dfsg1-0ubuntu1
 fmorphautogen@Base 9.55.0~dfsg1-0ubuntu1
 fmorphopgen_low_1@Base 9.55.0~dfsg1-0ubuntu1
 fmorphopgen_low_2@Base 9.55.0~dfsg1-0ubuntu1
 fn_build_float_array@Base 8.61.dfsg.1
 fn_build_float_array_forced@Base 8.61.dfsg.1
 fn_build_function@Base 8.61.dfsg.1
 fn_build_sub_function@Base 8.61.dfsg.1
 fn_check_mnDR@Base 8.61.dfsg.1
 fn_common_free@Base 8.61.dfsg.1
 fn_common_free_params@Base 8.61.dfsg.1
 fn_common_get_params@Base 8.61.dfsg.1
 fn_common_scale@Base 8.61.dfsg.1
 fn_common_serialize@Base 8.61.dfsg.1
 fn_copy_values@Base 8.61.dfsg.1
 fn_scale_pairs@Base 8.61.dfsg.1
 fnbytesInFile@Base 9.55.0~dfsg1-0ubuntu1
 font_GlyphDirectory_param@Base 8.61.dfsg.1
 font_bbox_param@Base 8.61.dfsg.1
 font_gdir_get_outline@Base 8.61.dfsg.1
 font_param@Base 8.61.dfsg.1
 font_resource_encoded_alloc@Base 8.61.dfsg.1
 font_resource_free@Base 9.06~dfsg
 font_restore@Base 8.61.dfsg.1
 font_string_array_param@Base 8.61.dfsg.1
 fopenReadFromMemory@Base 9.55.0~dfsg1-0ubuntu1
 fopenReadStream@Base 9.55.0~dfsg1-0ubuntu1
 fopenWriteStream@Base 9.55.0~dfsg1-0ubuntu1
 fopenWriteWinTempfile@Base 9.55.0~dfsg1-0ubuntu1
 fpixAddBorder@Base 9.55.0~dfsg1-0ubuntu1
 fpixAddContinuedBorder@Base 9.55.0~dfsg1-0ubuntu1
 fpixAddMirroredBorder@Base 9.55.0~dfsg1-0ubuntu1
 fpixAddMultConstant@Base 9.55.0~dfsg1-0ubuntu1
 fpixAddSlopeBorder@Base 9.55.0~dfsg1-0ubuntu1
 fpixAffine@Base 9.55.0~dfsg1-0ubuntu1
 fpixAffinePta@Base 9.55.0~dfsg1-0ubuntu1
 fpixAutoRenderContours@Base 9.55.0~dfsg1-0ubuntu1
 fpixChangeRefcount@Base 9.55.0~dfsg1-0ubuntu1
 fpixClone@Base 9.55.0~dfsg1-0ubuntu1
 fpixConvertToDPix@Base 9.55.0~dfsg1-0ubuntu1
 fpixConvertToPix@Base 9.55.0~dfsg1-0ubuntu1
 fpixConvolve@Base 9.55.0~dfsg1-0ubuntu1
 fpixConvolveSep@Base 9.55.0~dfsg1-0ubuntu1
 fpixCopy@Base 9.55.0~dfsg1-0ubuntu1
 fpixCopyResolution@Base 9.55.0~dfsg1-0ubuntu1
 fpixCreate@Base 9.55.0~dfsg1-0ubuntu1
 fpixCreateTemplate@Base 9.55.0~dfsg1-0ubuntu1
 fpixDestroy@Base 9.55.0~dfsg1-0ubuntu1
 fpixDisplayMaxDynamicRange@Base 9.55.0~dfsg1-0ubuntu1
 fpixEndianByteSwap@Base 9.55.0~dfsg1-0ubuntu1
 fpixFlipLR@Base 9.55.0~dfsg1-0ubuntu1
 fpixFlipTB@Base 9.55.0~dfsg1-0ubuntu1
 fpixGetData@Base 9.55.0~dfsg1-0ubuntu1
 fpixGetDimensions@Base 9.55.0~dfsg1-0ubuntu1
 fpixGetMax@Base 9.55.0~dfsg1-0ubuntu1
 fpixGetMin@Base 9.55.0~dfsg1-0ubuntu1
 fpixGetPixel@Base 9.55.0~dfsg1-0ubuntu1
 fpixGetRefcount@Base 9.55.0~dfsg1-0ubuntu1
 fpixGetResolution@Base 9.55.0~dfsg1-0ubuntu1
 fpixGetWpl@Base 9.55.0~dfsg1-0ubuntu1
 fpixLinearCombination@Base 9.55.0~dfsg1-0ubuntu1
 fpixPrintStream@Base 9.55.0~dfsg1-0ubuntu1
 fpixProjective@Base 9.55.0~dfsg1-0ubuntu1
 fpixProjectivePta@Base 9.55.0~dfsg1-0ubuntu1
 fpixRasterop@Base 9.55.0~dfsg1-0ubuntu1
 fpixRead@Base 9.55.0~dfsg1-0ubuntu1
 fpixReadMem@Base 9.55.0~dfsg1-0ubuntu1
 fpixReadStream@Base 9.55.0~dfsg1-0ubuntu1
 fpixRemoveBorder@Base 9.55.0~dfsg1-0ubuntu1
 fpixRenderContours@Base 9.55.0~dfsg1-0ubuntu1
 fpixRotate180@Base 9.55.0~dfsg1-0ubuntu1
 fpixRotate90@Base 9.55.0~dfsg1-0ubuntu1
 fpixRotateOrth@Base 9.55.0~dfsg1-0ubuntu1
 fpixScaleByInteger@Base 9.55.0~dfsg1-0ubuntu1
 fpixSetAllArbitrary@Base 9.55.0~dfsg1-0ubuntu1
 fpixSetData@Base 9.55.0~dfsg1-0ubuntu1
 fpixSetDimensions@Base 9.55.0~dfsg1-0ubuntu1
 fpixSetPixel@Base 9.55.0~dfsg1-0ubuntu1
 fpixSetResolution@Base 9.55.0~dfsg1-0ubuntu1
 fpixSetWpl@Base 9.55.0~dfsg1-0ubuntu1
 fpixThresholdToPix@Base 9.55.0~dfsg1-0ubuntu1
 fpixWrite@Base 9.55.0~dfsg1-0ubuntu1
 fpixWriteMem@Base 9.55.0~dfsg1-0ubuntu1
 fpixWriteStream@Base 9.55.0~dfsg1-0ubuntu1
 fpixaAddFPix@Base 9.55.0~dfsg1-0ubuntu1
 fpixaChangeRefcount@Base 9.55.0~dfsg1-0ubuntu1
 fpixaConvertLABToRGB@Base 9.55.0~dfsg1-0ubuntu1
 fpixaConvertLABToXYZ@Base 9.55.0~dfsg1-0ubuntu1
 fpixaConvertXYZToLAB@Base 9.55.0~dfsg1-0ubuntu1
 fpixaConvertXYZToRGB@Base 9.55.0~dfsg1-0ubuntu1
 fpixaCopy@Base 9.55.0~dfsg1-0ubuntu1
 fpixaCreate@Base 9.55.0~dfsg1-0ubuntu1
 fpixaDestroy@Base 9.55.0~dfsg1-0ubuntu1
 fpixaDisplayQuadtree@Base 9.55.0~dfsg1-0ubuntu1
 fpixaGetCount@Base 9.55.0~dfsg1-0ubuntu1
 fpixaGetData@Base 9.55.0~dfsg1-0ubuntu1
 fpixaGetFPix@Base 9.55.0~dfsg1-0ubuntu1
 fpixaGetFPixDimensions@Base 9.55.0~dfsg1-0ubuntu1
 fpixaGetPixel@Base 9.55.0~dfsg1-0ubuntu1
 fpixaSetPixel@Base 9.55.0~dfsg1-0ubuntu1
 fprintTiffInfo@Base 9.55.0~dfsg1-0ubuntu1
 freadHeaderJp2k@Base 9.55.0~dfsg1-0ubuntu1
 freadHeaderJpeg@Base 9.55.0~dfsg1-0ubuntu1
 freadHeaderPng@Base 9.55.0~dfsg1-0ubuntu1
 freadHeaderPnm@Base 9.55.0~dfsg1-0ubuntu1
 freadHeaderSpix@Base 9.55.0~dfsg1-0ubuntu1
 freadHeaderTiff@Base 9.55.0~dfsg1-0ubuntu1
 free_color_space@Base 9.06~dfsg
 free_function_refs@Base 9.22~dfsg
 free_indexed_map@Base 8.61.dfsg.1
 free_separation_names@Base 8.61.dfsg.1
 gaussDistribSampling@Base 9.55.0~dfsg1-0ubuntu1
 gaussjordan@Base 9.55.0~dfsg1-0ubuntu1
 gc_locate@Base 8.61.dfsg.1
 gc_string_mark@Base 8.61.dfsg.1
 gc_strings_clear_reloc@Base 8.61.dfsg.1
 gc_strings_compact@Base 8.61.dfsg.1
 gc_strings_set_marks@Base 8.61.dfsg.1
 gc_strings_set_reloc@Base 8.61.dfsg.1
 gcst_get_memory_ptr@Base 8.61.dfsg.1
 gdev_begin_input_media@Base 8.61.dfsg.1
 gdev_begin_output_media@Base 8.61.dfsg.1
 gdev_create_buf_device@Base 8.61.dfsg.1
 gdev_end_input_media@Base 8.61.dfsg.1
 gdev_end_output_media@Base 8.61.dfsg.1
 gdev_fax_get_params@Base 8.61.dfsg.1
 gdev_fax_init_fax_state@Base 8.61.dfsg.1
 gdev_fax_init_state@Base 8.61.dfsg.1
 gdev_fax_open@Base 8.61.dfsg.1
 gdev_fax_print_page@Base 8.61.dfsg.1
 gdev_fax_print_strip@Base 8.61.dfsg.1
 gdev_fax_put_params@Base 8.61.dfsg.1
 gdev_input_media_default@Base 8.61.dfsg.1
 gdev_mem_bits_size@Base 8.61.dfsg.1
 gdev_mem_data_size@Base 8.61.dfsg.1
 gdev_mem_device_for_bits@Base 8.61.dfsg.1
 gdev_mem_fns_16@Base 9.55.0~dfsg
 gdev_mem_fns_1@Base 9.55.0~dfsg
 gdev_mem_fns_1w@Base 9.55.0~dfsg
 gdev_mem_fns_24@Base 9.55.0~dfsg
 gdev_mem_fns_24w@Base 9.55.0~dfsg
 gdev_mem_fns_2@Base 9.55.0~dfsg
 gdev_mem_fns_2w@Base 9.55.0~dfsg
 gdev_mem_fns_32@Base 9.55.0~dfsg
 gdev_mem_fns_32w@Base 9.55.0~dfsg
 gdev_mem_fns_40@Base 9.55.0~dfsg
 gdev_mem_fns_40w@Base 9.55.0~dfsg
 gdev_mem_fns_48@Base 9.55.0~dfsg
 gdev_mem_fns_48w@Base 9.55.0~dfsg
 gdev_mem_fns_4@Base 9.55.0~dfsg
 gdev_mem_fns_4w@Base 9.55.0~dfsg
 gdev_mem_fns_56@Base 9.55.0~dfsg
 gdev_mem_fns_56w@Base 9.55.0~dfsg
 gdev_mem_fns_64@Base 9.55.0~dfsg
 gdev_mem_fns_64w@Base 9.55.0~dfsg
 gdev_mem_fns_8@Base 9.55.0~dfsg
 gdev_mem_fns_8w@Base 9.55.0~dfsg
 gdev_mem_functions_for_bits@Base 9.55.0~dfsg
 gdev_mem_line_ptrs_size@Base 8.61.dfsg.1
 gdev_mem_max_height@Base 8.61.dfsg.1
 gdev_mem_mono_set_inverted@Base 8.61.dfsg.1
 gdev_mem_open_scan_lines@Base 8.61.dfsg.1
 gdev_mem_open_scan_lines_interleaved@Base 9.53.0~dfsg
 gdev_mem_set_line_ptrs@Base 8.61.dfsg.1
 gdev_mem_set_line_ptrs_interleaved@Base 9.53.0~dfsg
 gdev_mem_set_planar@Base 8.61.dfsg.1
 gdev_mem_set_planar_interleaved@Base 9.53.0~dfsg
 gdev_mem_word_device_for_bits@Base 8.61.dfsg.1
 gdev_mem_word_functions_for_bits@Base 9.55.0~dfsg
 gdev_output_media_default@Base 8.61.dfsg.1
 gdev_pcl_3bit_map_color_rgb@Base 8.61.dfsg.1
 gdev_pcl_3bit_map_rgb_color@Base 8.61.dfsg.1
 gdev_pcl_mode2compress@Base 8.61.dfsg.1
 gdev_pcl_mode2compress_padded@Base 8.61.dfsg.1
 gdev_pcl_mode3compress@Base 8.61.dfsg.1
 gdev_pcl_mode9compress@Base 8.61.dfsg.1
 gdev_pcl_page_orientation@Base 9.15~dfsg
 gdev_pcl_paper_size@Base 8.61.dfsg.1
 gdev_pdf_begin_transparency_group@Base 8.61.dfsg.1
 gdev_pdf_begin_transparency_mask@Base 8.61.dfsg.1
 gdev_pdf_begin_typed_image@Base 8.61.dfsg.1
 gdev_pdf_composite@Base 9.55.0~dfsg
 gdev_pdf_copy_color@Base 8.61.dfsg.1
 gdev_pdf_copy_mono@Base 8.61.dfsg.1
 gdev_pdf_dev_spec_op@Base 9.04~dfsg
 gdev_pdf_end_transparency_group@Base 8.61.dfsg.1
 gdev_pdf_end_transparency_mask@Base 8.61.dfsg.1
 gdev_pdf_fill_mask@Base 8.61.dfsg.1
 gdev_pdf_fill_path@Base 8.61.dfsg.1
 gdev_pdf_fill_rectangle@Base 8.61.dfsg.1
 gdev_pdf_fill_rectangle_hl_color@Base 8.61.dfsg.1
 gdev_pdf_fill_stroke_path@Base 9.51~dfsg
 gdev_pdf_fillpage@Base 8.64~dfsg
 gdev_pdf_get_param@Base 9.15~dfsg
 gdev_pdf_get_params@Base 8.61.dfsg.1
 gdev_pdf_include_color_space@Base 8.61.dfsg.1
 gdev_pdf_put_params@Base 8.61.dfsg.1
 gdev_pdf_strip_tile_rectangle@Base 8.61.dfsg.1
 gdev_pdf_stroke_path@Base 8.61.dfsg.1
 gdev_pdf_text_begin@Base 8.61.dfsg.1
 gdev_prn_allocate_memory@Base 8.61.dfsg.1
 gdev_prn_bg_output_page@Base 9.10~dfsg
 gdev_prn_bg_output_page_seekable@Base 9.10~dfsg
 gdev_prn_clear_trailing_bits@Base 8.61.dfsg.1
 gdev_prn_close@Base 8.61.dfsg.1
 gdev_prn_close_printer@Base 8.61.dfsg.1
 gdev_prn_color_usage@Base 9.06~dfsg
 gdev_prn_copy_scan_lines@Base 8.61.dfsg.1
 gdev_prn_create_buf_planar@Base 8.61.dfsg.1
 gdev_prn_dev_spec_op@Base 9.15~dfsg
 gdev_prn_file_is_new@Base 8.61.dfsg.1
 gdev_prn_finalize@Base 9.25~dfsg
 gdev_prn_forwarding_dev_spec_op@Base 9.15~dfsg
 gdev_prn_free_memory@Base 8.61.dfsg.1
 gdev_prn_get_bits@Base 8.61.dfsg.1
 gdev_prn_get_lines@Base 8.61.dfsg.1
 gdev_prn_get_param@Base 9.15~dfsg
 gdev_prn_get_params@Base 8.61.dfsg.1
 gdev_prn_get_params_planar@Base 8.61.dfsg.1
 gdev_prn_initialize_device_procs@Base 9.55.0~dfsg
 gdev_prn_initialize_device_procs_bg@Base 9.55.0~dfsg
 gdev_prn_initialize_device_procs_cmyk16@Base 9.55.0~dfsg
 gdev_prn_initialize_device_procs_cmyk16_bg@Base 9.55.0~dfsg
 gdev_prn_initialize_device_procs_cmyk1@Base 9.55.0~dfsg
 gdev_prn_initialize_device_procs_cmyk1_bg@Base 9.55.0~dfsg
 gdev_prn_initialize_device_procs_cmyk8@Base 9.55.0~dfsg
 gdev_prn_initialize_device_procs_cmyk8_bg@Base 9.55.0~dfsg
 gdev_prn_initialize_device_procs_gray8@Base 9.55.0~dfsg
 gdev_prn_initialize_device_procs_gray8_bg@Base 9.55.0~dfsg
 gdev_prn_initialize_device_procs_gray@Base 9.55.0~dfsg
 gdev_prn_initialize_device_procs_gray_bg@Base 9.55.0~dfsg
 gdev_prn_initialize_device_procs_mono@Base 9.55.0~dfsg
 gdev_prn_initialize_device_procs_mono_bg@Base 9.55.0~dfsg
 gdev_prn_initialize_device_procs_rgb@Base 9.55.0~dfsg
 gdev_prn_initialize_device_procs_rgb_bg@Base 9.55.0~dfsg
 gdev_prn_maybe_realloc_memory@Base 8.61.dfsg.1
 gdev_prn_open@Base 8.61.dfsg.1
 gdev_prn_open_planar@Base 8.61.dfsg.1
 gdev_prn_open_printer@Base 8.61.dfsg.1
 gdev_prn_open_printer_seekable@Base 8.61.dfsg.1
 gdev_prn_output_page@Base 8.61.dfsg.1
 gdev_prn_output_page_seekable@Base 9.10~dfsg
 gdev_prn_print_scan_lines@Base 8.61.dfsg.1
 gdev_prn_put_params@Base 8.61.dfsg.1
 gdev_prn_put_params_planar@Base 8.61.dfsg.1
 gdev_prn_reallocate_memory@Base 8.61.dfsg.1
 gdev_prn_render_pages@Base 8.61.dfsg.1
 gdev_prn_save_page@Base 8.61.dfsg.1
 gdev_prn_set_procs_planar@Base 8.61.dfsg.1
 gdev_prn_size_buf_planar@Base 8.61.dfsg.1
 gdev_psdf_get_param@Base 9.15~dfsg
 gdev_psdf_get_params@Base 8.61.dfsg.1
 gdev_psdf_put_params@Base 8.61.dfsg.1
 gdev_space_params_cmp@Base 9.53.0~dfsg
 gdev_tiff_begin_page@Base 8.61.dfsg.1
 gdev_vector_begin_image@Base 8.61.dfsg.1
 gdev_vector_close_file@Base 8.61.dfsg.1
 gdev_vector_dev_spec_op@Base 9.15~dfsg
 gdev_vector_dopath@Base 8.61.dfsg.1
 gdev_vector_dopath_init@Base 8.61.dfsg.1
 gdev_vector_dopath_segment@Base 8.61.dfsg.1
 gdev_vector_dorect@Base 8.61.dfsg.1
 gdev_vector_end_image@Base 8.61.dfsg.1
 gdev_vector_fill_parallelogram@Base 8.61.dfsg.1
 gdev_vector_fill_path@Base 8.61.dfsg.1
 gdev_vector_fill_rectangle@Base 8.61.dfsg.1
 gdev_vector_fill_trapezoid@Base 8.61.dfsg.1
 gdev_vector_fill_triangle@Base 8.61.dfsg.1
 gdev_vector_get_param@Base 9.15~dfsg
 gdev_vector_get_params@Base 8.61.dfsg.1
 gdev_vector_init@Base 8.61.dfsg.1
 gdev_vector_open_file_options@Base 8.61.dfsg.1
 gdev_vector_prepare_fill@Base 8.61.dfsg.1
 gdev_vector_prepare_stroke@Base 8.61.dfsg.1
 gdev_vector_put_params@Base 8.61.dfsg.1
 gdev_vector_reset@Base 8.61.dfsg.1
 gdev_vector_setflat@Base 8.61.dfsg.1
 gdev_vector_stream@Base 8.61.dfsg.1
 gdev_vector_stroke_path@Base 8.61.dfsg.1
 gdev_vector_stroke_scaling@Base 8.61.dfsg.1
 gdev_vector_update_clip_path@Base 8.61.dfsg.1
 gdev_vector_update_fill_color@Base 8.61.dfsg.1
 gdev_vector_update_log_op@Base 8.61.dfsg.1
 gdev_vector_write_clip_path@Base 8.61.dfsg.1
 gdev_vector_write_polygon@Base 8.61.dfsg.1
 gdev_vector_write_rectangle@Base 8.61.dfsg.1
 gdev_write_input_media@Base 8.61.dfsg.1
 gdev_write_input_page_size@Base 8.61.dfsg.1
 gdev_write_output_media@Base 8.61.dfsg.1
 genConstrainedNumaInRange@Base 9.55.0~dfsg1-0ubuntu1
 genPathname@Base 9.55.0~dfsg1-0ubuntu1
 genRandomIntOnInterval@Base 9.55.0~dfsg1-0ubuntu1
 generatePtaBox@Base 9.55.0~dfsg1-0ubuntu1
 generatePtaBoxa@Base 9.55.0~dfsg1-0ubuntu1
 generatePtaFilledCircle@Base 9.55.0~dfsg1-0ubuntu1
 generatePtaFilledSquare@Base 9.55.0~dfsg1-0ubuntu1
 generatePtaGrid@Base 9.55.0~dfsg1-0ubuntu1
 generatePtaHashBox@Base 9.55.0~dfsg1-0ubuntu1
 generatePtaHashBoxa@Base 9.55.0~dfsg1-0ubuntu1
 generatePtaLine@Base 9.55.0~dfsg1-0ubuntu1
 generatePtaLineFromPt@Base 9.55.0~dfsg1-0ubuntu1
 generatePtaPolyline@Base 9.55.0~dfsg1-0ubuntu1
 generatePtaWideLine@Base 9.55.0~dfsg1-0ubuntu1
 generatePtaaBoxa@Base 9.55.0~dfsg1-0ubuntu1
 generatePtaaHashBoxa@Base 9.55.0~dfsg1-0ubuntu1
 generateUncompressedPS@Base 9.55.0~dfsg1-0ubuntu1
 getAffineXformCoeffs@Base 9.55.0~dfsg1-0ubuntu1
 getBilinearXformCoeffs@Base 9.55.0~dfsg1-0ubuntu1
 getCompositeParameters@Base 9.55.0~dfsg1-0ubuntu1
 getCutPathForHole@Base 9.55.0~dfsg1-0ubuntu1
 getExtendedCompositeParameters@Base 9.55.0~dfsg1-0ubuntu1
 getFilenamesInDirectory@Base 9.55.0~dfsg1-0ubuntu1
 getFormatExtension@Base 9.55.0~dfsg1-0ubuntu1
 getImagelibVersions@Base 9.55.0~dfsg1-0ubuntu1
 getImpliedFileFormat@Base 9.55.0~dfsg1-0ubuntu1
 getLeptonicaVersion@Base 9.55.0~dfsg1-0ubuntu1
 getLogBase2@Base 9.55.0~dfsg1-0ubuntu1
 getMorphBorderPixelColor@Base 9.55.0~dfsg1-0ubuntu1
 getNumberedPathnamesInDirectory@Base 9.55.0~dfsg1-0ubuntu1
 getOctcubeIndexFromRGB@Base 9.55.0~dfsg1-0ubuntu1
 getProjectiveXformCoeffs@Base 9.55.0~dfsg1-0ubuntu1
 getRGBFromIndex@Base 9.55.0~dfsg1-0ubuntu1
 getResA4Page@Base 9.55.0~dfsg1-0ubuntu1
 getResLetterPage@Base 9.55.0~dfsg1-0ubuntu1
 getSortedPathnamesInDirectory@Base 9.55.0~dfsg1-0ubuntu1
 getTiffResolution@Base 9.55.0~dfsg1-0ubuntu1
 get_GlyphNames2Unicode@Base 8.61.dfsg.1
 get_cie_range@Base 9.02~dfsg
 get_font_name@Base 8.61.dfsg.1
 get_global_op_array@Base 9.00~dfsg
 get_local_op_array@Base 9.00~dfsg
 get_map@Base 9.16~dfsg
 get_minst_from_memory@Base 8.61.dfsg.1
 get_op_array@Base 9.00~dfsg
 get_space_object@Base 8.64~dfsg
 get_u32_msb@Base 8.61.dfsg.1
 get_unpack_proc@Base 9.16~dfsg
 get_zfont_glyph_name@Base 9.55.0~dfsg
 glyph_ref@Base 8.61.dfsg.1
 gp_can_share_fdesc@Base 9.16~dfsg
 gp_close_printer@Base 8.61.dfsg.1
 gp_create_thread@Base 8.61.dfsg.1
 gp_current_directory_name@Base 8.61.dfsg.1
 gp_defaultpapersize@Base 8.64~dfsg
 gp_do_exit@Base 8.61.dfsg.1
 gp_enumerate_files_close@Base 8.61.dfsg.1
 gp_enumerate_files_close_impl@Base 9.28~~rc1~dfsg
 gp_enumerate_files_init@Base 8.61.dfsg.1
 gp_enumerate_files_init_impl@Base 9.28~~rc1~dfsg
 gp_enumerate_files_next@Base 8.61.dfsg.1
 gp_enumerate_files_next_impl@Base 9.28~~rc1~dfsg
 gp_enumerate_fonts_free@Base 8.61.dfsg.1
 gp_enumerate_fonts_init@Base 8.61.dfsg.1
 gp_enumerate_fonts_next@Base 8.61.dfsg.1
 gp_exit@Base 8.61.dfsg.1
 gp_fdup_impl@Base 9.28~~rc1~dfsg
 gp_fgets@Base 9.28~~rc1~dfsg
 gp_file_FILE_alloc@Base 9.28~~rc1~dfsg
 gp_file_FILE_set@Base 9.28~~rc1~dfsg
 gp_file_alloc@Base 9.28~~rc1~dfsg
 gp_file_dealloc@Base 9.28~~rc1~dfsg
 gp_file_name_combine@Base 8.61.dfsg.1
 gp_file_name_combine_generic@Base 8.61.dfsg.1
 gp_file_name_current@Base 8.61.dfsg.1
 gp_file_name_cwds@Base 8.61.dfsg.1
 gp_file_name_directory_separator@Base 8.61.dfsg.1
 gp_file_name_good_char@Base 9.10~dfsg
 gp_file_name_is_absolute@Base 8.61.dfsg.1
 gp_file_name_is_current@Base 8.61.dfsg.1
 gp_file_name_is_empty_item_meanful@Base 8.61.dfsg.1
 gp_file_name_is_parent@Base 8.61.dfsg.1
 gp_file_name_is_parent_allowed@Base 9.15~dfsg
 gp_file_name_list_separator@Base 8.61.dfsg.1
 gp_file_name_parent@Base 8.61.dfsg.1
 gp_file_name_parents@Base 8.61.dfsg.1
 gp_file_name_reduce@Base 8.61.dfsg.1
 gp_file_name_root@Base 8.61.dfsg.1
 gp_file_name_separator@Base 8.61.dfsg.1
 gp_fmode_binary_suffix@Base 8.61.dfsg.1
 gp_fmode_rb@Base 8.61.dfsg.1
 gp_fmode_wb@Base 8.61.dfsg.1
 gp_fopen@Base 8.61.dfsg.1
 gp_fopen_impl@Base 9.28~~rc1~dfsg
 gp_fopentemp@Base 8.61.dfsg.1
 gp_fprintf@Base 9.28~~rc1~dfsg
 gp_fseek_impl@Base 9.28~~rc1~dfsg
 gp_fseekable_impl@Base 9.28~~rc1~dfsg
 gp_ftell_impl@Base 9.28~~rc1~dfsg
 gp_get_realtime@Base 8.61.dfsg.1
 gp_get_usertime@Base 8.61.dfsg.1
 gp_getenv@Base 8.61.dfsg.1
 gp_getenv_display@Base 8.61.dfsg.1
 gp_gettmpdir@Base 8.61.dfsg.1
 gp_init@Base 8.61.dfsg.1
 gp_monitor_close@Base 8.61.dfsg.1
 gp_monitor_enter@Base 8.61.dfsg.1
 gp_monitor_label@Base 9.20~dfsg
 gp_monitor_leave@Base 8.61.dfsg.1
 gp_monitor_open@Base 8.61.dfsg.1
 gp_monitor_sizeof@Base 8.61.dfsg.1
 gp_null_file_name@Base 8.61.dfsg.1
 gp_open_printer@Base 8.61.dfsg.1
 gp_open_printer_impl@Base 9.28~~rc1~dfsg
 gp_open_scratch_file@Base 8.61.dfsg.1
 gp_open_scratch_file_impl@Base 9.28~~rc1~dfsg
 gp_open_scratch_file_rm@Base 9.16~dfsg
 gp_pread_impl@Base 9.28~~rc1~dfsg
 gp_pwrite_impl@Base 9.28~~rc1~dfsg
 gp_read_macresource@Base 8.61.dfsg.1
 gp_readline@Base 8.61.dfsg.1
 gp_readline_finit@Base 8.61.dfsg.1
 gp_readline_init@Base 8.61.dfsg.1
 gp_rename@Base 9.53.0~dfsg
 gp_rename_impl@Base 9.53.0~dfsg
 gp_scratch_file_name_prefix@Base 8.61.dfsg.1
 gp_semaphore_close@Base 8.61.dfsg.1
 gp_semaphore_label@Base 9.20~dfsg
 gp_semaphore_open@Base 8.61.dfsg.1
 gp_semaphore_signal@Base 8.61.dfsg.1
 gp_semaphore_sizeof@Base 8.61.dfsg.1
 gp_semaphore_wait@Base 8.61.dfsg.1
 gp_serialnumber@Base 9.05~
 gp_setmode_binary_impl@Base 9.28~~rc1~dfsg
 gp_stat@Base 9.18~dfsg
 gp_stat_impl@Base 9.18~dfsg
 gp_stdin_read@Base 8.61.dfsg.1
 gp_strerror@Base 8.61.dfsg.1
 gp_thread_finish@Base 9.00~dfsg
 gp_thread_label@Base 9.20~dfsg
 gp_thread_start@Base 9.00~dfsg
 gp_unlink@Base 9.53.0~dfsg
 gp_unlink_impl@Base 9.53.0~dfsg
 gp_validate_path@Base 9.28~~rc1~dfsg
 gp_validate_path_len@Base 9.28~~rc1~dfsg
 gp_xpsprint@Base 9.19~~rc1~dfsg
 gplotAddPlot@Base 9.55.0~dfsg1-0ubuntu1
 gplotCreate@Base 9.55.0~dfsg1-0ubuntu1
 gplotDestroy@Base 9.55.0~dfsg1-0ubuntu1
 gplotGenCommandFile@Base 9.55.0~dfsg1-0ubuntu1
 gplotGenDataFiles@Base 9.55.0~dfsg1-0ubuntu1
 gplotGeneralPix1@Base 9.55.0~dfsg1-0ubuntu1
 gplotGeneralPix2@Base 9.55.0~dfsg1-0ubuntu1
 gplotGeneralPixN@Base 9.55.0~dfsg1-0ubuntu1
 gplotMakeOutput@Base 9.55.0~dfsg1-0ubuntu1
 gplotMakeOutputPix@Base 9.55.0~dfsg1-0ubuntu1
 gplotRead@Base 9.55.0~dfsg1-0ubuntu1
 gplotSetScaling@Base 9.55.0~dfsg1-0ubuntu1
 gplotSimple1@Base 9.55.0~dfsg1-0ubuntu1
 gplotSimple2@Base 9.55.0~dfsg1-0ubuntu1
 gplotSimpleN@Base 9.55.0~dfsg1-0ubuntu1
 gplotSimplePix1@Base 9.55.0~dfsg1-0ubuntu1
 gplotSimplePix2@Base 9.55.0~dfsg1-0ubuntu1
 gplotSimplePixN@Base 9.55.0~dfsg1-0ubuntu1
 gplotSimpleXY1@Base 9.55.0~dfsg1-0ubuntu1
 gplotSimpleXY2@Base 9.55.0~dfsg1-0ubuntu1
 gplotSimpleXYN@Base 9.55.0~dfsg1-0ubuntu1
 gplotWrite@Base 9.55.0~dfsg1-0ubuntu1
 gplotfileoutputs@Base 9.55.0~dfsg1-0ubuntu1
 gplotstylenames@Base 9.55.0~dfsg1-0ubuntu1
 grayHistogramsToEMD@Base 9.55.0~dfsg1-0ubuntu1
 grayInterHistogramStats@Base 9.55.0~dfsg1-0ubuntu1
 gray_cs_to_devn_cm@Base 8.61.dfsg.1
 gray_cs_to_gray_cm@Base 8.61.dfsg.1
 gs_PCLm_device@Base 9.25~dfsg
 gs_abort@Base 8.61.dfsg.1
 gs_abort_pdf14trans_device@Base 9.15~dfsg
 gs_activate_path_control@Base 9.28~~rc1~dfsg
 gs_add_control_path@Base 9.28~~rc1~dfsg
 gs_add_control_path_flags@Base 9.53.0~dfsg
 gs_add_control_path_len@Base 9.28~~rc1~dfsg
 gs_add_control_path_len_flags@Base 9.53.0~dfsg
 gs_add_explicit_control_path@Base 9.28~~rc1~dfsg
 gs_add_fs@Base 9.28~~rc1~dfsg
 gs_add_outputfile_control_path@Base 9.28~~rc1~dfsg
 gs_alc1900_device@Base 8.61.dfsg.1
 gs_alc2000_device@Base 8.61.dfsg.1
 gs_alc4000_device@Base 8.61.dfsg.1
 gs_alc4100_device@Base 8.61.dfsg.1
 gs_alc8500_device@Base 8.61.dfsg.1
 gs_alc8600_device@Base 8.61.dfsg.1
 gs_alc9100_device@Base 8.61.dfsg.1
 gs_alloc_fill_alloc@Base 8.61.dfsg.1
 gs_alloc_fill_block@Base 8.61.dfsg.1
 gs_alloc_fill_collected@Base 8.61.dfsg.1
 gs_alloc_fill_deleted@Base 8.61.dfsg.1
 gs_alloc_fill_free@Base 8.61.dfsg.1
 gs_alloc_memset@Base 8.61.dfsg.1
 gs_alloc_ref_array@Base 8.61.dfsg.1
 gs_alloc_string_ref@Base 8.61.dfsg.1
 gs_ap3250_device@Base 8.61.dfsg.1
 gs_appledmp_device@Base 9.51~dfsg
 gs_arc@Base 8.61.dfsg.1
 gs_arc_add@Base 8.61.dfsg.1
 gs_arcn@Base 8.61.dfsg.1
 gs_arcto@Base 8.61.dfsg.1
 gs_ashow_begin@Base 8.61.dfsg.1
 gs_atan2_degrees@Base 8.61.dfsg.1
 gs_attach_colorant_to_space@Base 9.55.0~dfsg
 gs_attachcolorant@Base 9.28~~rc1~dfsg
 gs_atx23_device@Base 8.61.dfsg.1
 gs_atx24_device@Base 8.61.dfsg.1
 gs_atx38_device@Base 8.61.dfsg.1
 gs_awidthshow_begin@Base 8.61.dfsg.1
 gs_band_donor_band_full@Base 9.16~dfsg
 gs_band_donor_band_get@Base 9.16~dfsg
 gs_band_donor_band_release@Base 9.16~dfsg
 gs_band_donor_fin@Base 9.16~dfsg
 gs_band_donor_init@Base 9.16~dfsg
 gs_base_make_font@Base 8.61.dfsg.1
 gs_base_same_font@Base 8.61.dfsg.1
 gs_bbox_device@Base 8.61.dfsg.1
 gs_bbox_transform@Base 8.61.dfsg.1
 gs_bbox_transform_inverse@Base 8.61.dfsg.1
 gs_bbox_transform_only@Base 8.61.dfsg.1
 gs_begin_transparency_group@Base 8.61.dfsg.1
 gs_begin_transparency_mask@Base 8.61.dfsg.1
 gs_begin_transparency_text_group@Base 9.21~dfsg
 gs_bit_device@Base 8.61.dfsg.1
 gs_bitcmyk_device@Base 8.61.dfsg.1
 gs_bitrgb_device@Base 8.61.dfsg.1
 gs_bitrgbtags_device@Base 8.61.dfsg.1
 gs_bj10e_device@Base 8.61.dfsg.1
 gs_bj10v_device@Base 8.61.dfsg.1
 gs_bj10vh_device@Base 8.61.dfsg.1
 gs_bj200_device@Base 8.61.dfsg.1
 gs_bjc600_device@Base 8.61.dfsg.1
 gs_bjc800_device@Base 8.61.dfsg.1
 gs_bjc880j_device@Base 8.61.dfsg.1
 gs_bjccmyk_device@Base 8.61.dfsg.1
 gs_bjccolor_device@Base 8.61.dfsg.1
 gs_bjcgray_device@Base 8.61.dfsg.1
 gs_bjcmono_device@Base 8.61.dfsg.1
 gs_bmp16_device@Base 8.61.dfsg.1
 gs_bmp16m_device@Base 8.61.dfsg.1
 gs_bmp256_device@Base 8.61.dfsg.1
 gs_bmp32b_device@Base 8.61.dfsg.1
 gs_bmpgray_device@Base 8.61.dfsg.1
 gs_bmpmono_device@Base 8.61.dfsg.1
 gs_bmpsep1_device@Base 8.61.dfsg.1
 gs_bmpsep8_device@Base 8.61.dfsg.1
 gs_build_function_0@Base 8.61.dfsg.1
 gs_build_function_2@Base 8.61.dfsg.1
 gs_build_function_3@Base 8.61.dfsg.1
 gs_build_function_4@Base 8.61.dfsg.1
 gs_buildtime@Base 8.61.dfsg.1
 gs_c_decode@Base 8.61.dfsg.1
 gs_c_glyph_name@Base 8.61.dfsg.1
 gs_c_known_encode@Base 8.61.dfsg.1
 gs_c_known_encoding_chars@Base 8.61.dfsg.1
 gs_c_known_encoding_count@Base 8.61.dfsg.1
 gs_c_known_encoding_lengths@Base 8.61.dfsg.1
 gs_c_known_encoding_max_length@Base 8.61.dfsg.1
 gs_c_known_encoding_offsets@Base 8.61.dfsg.1
 gs_c_known_encoding_reverse_lengths@Base 8.61.dfsg.1
 gs_c_known_encoding_total_chars@Base 8.61.dfsg.1
 gs_c_known_encodings@Base 8.61.dfsg.1
 gs_c_known_encodings_reverse@Base 8.61.dfsg.1
 gs_c_min_std_encoding_glyph@Base 8.61.dfsg.1
 gs_c_name_glyph@Base 8.61.dfsg.1
 gs_c_param_list_alloc@Base 8.61.dfsg.1
 gs_c_param_list_read@Base 8.61.dfsg.1
 gs_c_param_list_release@Base 8.61.dfsg.1
 gs_c_param_list_set_target@Base 8.61.dfsg.1
 gs_c_param_list_write@Base 8.61.dfsg.1
 gs_c_param_list_write_more@Base 8.61.dfsg.1
 gs_c_pdf_glyph_type@Base 8.61.dfsg.1
 gs_cached_color_index@Base 8.61.dfsg.1
 gs_cachestatus@Base 8.61.dfsg.1
 gs_ccr_device@Base 8.61.dfsg.1
 gs_cdeskjet_device@Base 8.61.dfsg.1
 gs_cdj1600_device@Base 8.61.dfsg.1
 gs_cdj500_device@Base 8.61.dfsg.1
 gs_cdj550_device@Base 8.61.dfsg.1
 gs_cdj670_device@Base 8.61.dfsg.1
 gs_cdj850_device@Base 8.61.dfsg.1
 gs_cdj880_device@Base 8.61.dfsg.1
 gs_cdj890_device@Base 8.61.dfsg.1
 gs_cdj970_device@Base 8.61.dfsg.1
 gs_cdjcolor_device@Base 8.61.dfsg.1
 gs_cdjmono_device@Base 8.61.dfsg.1
 gs_cdnj500_device@Base 8.64~dfsg-3~
 gs_cfax_device@Base 8.61.dfsg.1
 gs_char_flatness@Base 8.61.dfsg.1
 gs_charboxpath_begin@Base 8.61.dfsg.1
 gs_charpath_begin@Base 8.61.dfsg.1
 gs_check_file_permission@Base 9.20~dfsg
 gs_chp2200_device@Base 8.61.dfsg.1
 gs_cid0_has_type2@Base 8.61.dfsg.1
 gs_cid0_indexed_font@Base 8.61.dfsg.1
 gs_cie_a_complete@Base 8.61.dfsg.1
 gs_cie_abc_complete@Base 8.61.dfsg.1
 gs_cie_cache_init@Base 8.61.dfsg.1
 gs_cie_cache_to_fracs@Base 8.61.dfsg.1
 gs_cie_cached_value@Base 8.61.dfsg.1
 gs_cie_compute_points_sd@Base 8.61.dfsg.1
 gs_cie_cs_common@Base 8.61.dfsg.1
 gs_cie_cs_complete@Base 8.61.dfsg.1
 gs_cie_def_complete@Base 8.61.dfsg.1
 gs_cie_defg_complete@Base 8.61.dfsg.1
 gs_cie_defx_set_lookup_table@Base 8.61.dfsg.1
 gs_cie_jc_complete@Base 8.61.dfsg.1
 gs_cie_render1_build@Base 8.61.dfsg.1
 gs_cie_render1_init_from@Base 8.61.dfsg.1
 gs_cie_render1_initialize@Base 8.61.dfsg.1
 gs_cie_render1_param_initialize@Base 8.61.dfsg.1
 gs_cie_render_complete@Base 8.61.dfsg.1
 gs_cie_render_init@Base 8.61.dfsg.1
 gs_cie_render_sample@Base 8.61.dfsg.1
 gs_cif_device@Base 8.61.dfsg.1
 gs_clean_fm_pair@Base 8.61.dfsg.1
 gs_clip@Base 8.61.dfsg.1
 gs_clippath@Base 8.61.dfsg.1
 gs_cliprestore@Base 8.61.dfsg.1
 gs_clipsave@Base 8.61.dfsg.1
 gs_cljet5_device@Base 8.61.dfsg.1
 gs_cljet5c_device@Base 8.61.dfsg.1
 gs_cljet5pr_device@Base 8.61.dfsg.1
 gs_closedevice@Base 8.61.dfsg.1
 gs_closepath@Base 8.61.dfsg.1
 gs_cmap_ToUnicode_add_pair@Base 8.61.dfsg.1
 gs_cmap_ToUnicode_alloc@Base 8.61.dfsg.1
 gs_cmap_ToUnicode_check_pair@Base 9.54.0~dfsg
 gs_cmap_ToUnicode_free@Base 9.06~dfsg
 gs_cmap_ToUnicode_realloc@Base 9.20~dfsg
 gs_cmap_adobe1_alloc@Base 8.61.dfsg.1
 gs_cmap_alloc@Base 8.61.dfsg.1
 gs_cmap_compute_identity@Base 8.61.dfsg.1
 gs_cmap_create_char_identity@Base 8.61.dfsg.1
 gs_cmap_create_identity@Base 8.61.dfsg.1
 gs_cmap_decode_next@Base 8.61.dfsg.1
 gs_cmap_enum_next_entry@Base 8.61.dfsg.1
 gs_cmap_enum_next_lookup@Base 8.61.dfsg.1
 gs_cmap_enum_next_range@Base 8.61.dfsg.1
 gs_cmap_free@Base 9.06~dfsg
 gs_cmap_from_type42_cmap@Base 8.61.dfsg.1
 gs_cmap_init@Base 8.61.dfsg.1
 gs_cmap_is_identity@Base 8.61.dfsg.1
 gs_cmap_lookups_enum_init@Base 8.61.dfsg.1
 gs_cmap_lookups_enum_setup@Base 8.61.dfsg.1
 gs_cmap_no_lookups_procs@Base 8.61.dfsg.1
 gs_cmap_ranges_enum_init@Base 8.61.dfsg.1
 gs_cmap_ranges_enum_setup@Base 8.61.dfsg.1
 gs_cname_to_colorant_number@Base 8.61.dfsg.1
 gs_color_index_cache_create@Base 8.61.dfsg.1
 gs_color_index_cache_destroy@Base 8.61.dfsg.1
 gs_color_name_component_number@Base 8.61.dfsg.1
 gs_color_space_get_index@Base 8.61.dfsg.1
 gs_color_space_is_CIE@Base 8.64~dfsg
 gs_color_space_is_ICC@Base 8.64~dfsg-3~
 gs_color_space_is_PSCIE@Base 9.00~dfsg
 gs_color_space_num_components@Base 8.61.dfsg.1
 gs_color_space_restrict_color@Base 8.61.dfsg.1
 gs_color_space_type_CIEA@Base 8.61.dfsg.1
 gs_color_space_type_CIEABC@Base 8.61.dfsg.1
 gs_color_space_type_CIEDEF@Base 8.61.dfsg.1
 gs_color_space_type_CIEDEFG@Base 8.61.dfsg.1
 gs_color_space_type_DeviceN@Base 8.61.dfsg.1
 gs_color_space_type_ICC@Base 9.00~dfsg
 gs_color_space_type_Indexed@Base 8.61.dfsg.1
 gs_color_space_type_Indexed_Named@Base 9.16~dfsg
 gs_color_space_type_Pattern@Base 8.61.dfsg.1
 gs_color_space_type_Separation@Base 8.61.dfsg.1
 gs_colorspace_set_icc_equivalent@Base 9.00~dfsg
 gs_composite_overprint_type@Base 8.61.dfsg.1
 gs_composite_pdf14trans_no_clist_writer_type@Base 8.61.dfsg.1
 gs_composite_pdf14trans_type@Base 8.61.dfsg.1
 gs_concat@Base 8.61.dfsg.1
 gs_copied_can_copy_glyphs@Base 8.61.dfsg.1
 gs_copied_font_add_encoding@Base 8.61.dfsg.1
 gs_copy_font@Base 8.61.dfsg.1
 gs_copy_font_complete@Base 8.61.dfsg.1
 gs_copy_glyph@Base 8.61.dfsg.1
 gs_copy_glyph_options@Base 8.61.dfsg.1
 gs_copydevice2@Base 8.61.dfsg.1
 gs_copydevice@Base 8.61.dfsg.1
 gs_copygstate@Base 8.61.dfsg.1
 gs_copypage@Base 8.61.dfsg.1
 gs_copyright@Base 8.61.dfsg.1
 gs_copyscanlines@Base 8.61.dfsg.1
 gs_cos_degrees@Base 8.61.dfsg.1
 gs_coslw2p_device@Base 8.61.dfsg.1
 gs_coslwxl_device@Base 8.61.dfsg.1
 gs_create_overprint@Base 8.61.dfsg.1
 gs_cshow_begin@Base 8.61.dfsg.1
 gs_cspace_alloc@Base 8.61.dfsg.1
 gs_cspace_base_space@Base 8.61.dfsg.1
 gs_cspace_build_CIEA@Base 8.61.dfsg.1
 gs_cspace_build_CIEABC@Base 8.61.dfsg.1
 gs_cspace_build_CIEDEF@Base 8.61.dfsg.1
 gs_cspace_build_CIEDEFG@Base 8.61.dfsg.1
 gs_cspace_build_ICC@Base 9.00~dfsg
 gs_cspace_build_Indexed@Base 8.61.dfsg.1
 gs_cspace_build_Pattern1@Base 8.61.dfsg.1
 gs_cspace_devn_process_space@Base 9.28~~rc1~dfsg
 gs_cspace_get_devn_function@Base 8.61.dfsg.1
 gs_cspace_get_sepr_function@Base 8.61.dfsg.1
 gs_cspace_indexed_lookup@Base 8.61.dfsg.1
 gs_cspace_indexed_lookup_bytes@Base 8.63.dfsg.1
 gs_cspace_indexed_lookup_frac@Base 8.63.dfsg.1
 gs_cspace_indexed_num_entries@Base 8.61.dfsg.1
 gs_cspace_indexed_set_proc@Base 8.61.dfsg.1
 gs_cspace_indexed_value_array@Base 8.61.dfsg.1
 gs_cspace_new_DeviceCMYK@Base 8.61.dfsg.1
 gs_cspace_new_DeviceGray@Base 8.61.dfsg.1
 gs_cspace_new_DeviceN@Base 8.61.dfsg.1
 gs_cspace_new_DevicePixel@Base 8.61.dfsg.1
 gs_cspace_new_DeviceRGB@Base 8.61.dfsg.1
 gs_cspace_new_ICC@Base 9.06~dfsg
 gs_cspace_new_Separation@Base 8.61.dfsg.1
 gs_cspace_new_scrgb@Base 9.27~dfsg
 gs_cspace_set_devn_function@Base 8.61.dfsg.1
 gs_cspace_set_sepr_function@Base 8.61.dfsg.1
 gs_cups_device@Base 8.61.dfsg.1
 gs_currentPDFfontsize@Base 9.25~dfsg
 gs_current_logical_op@Base 8.61.dfsg.1
 gs_currentaccuratecurves@Base 8.61.dfsg.1
 gs_currentaccuratescreens@Base 8.61.dfsg.1
 gs_currentaligntopixels@Base 8.61.dfsg.1
 gs_currentblackgeneration@Base 8.61.dfsg.1
 gs_currentblackptcomp@Base 9.10~dfsg
 gs_currentblendmode@Base 8.61.dfsg.1
 gs_currentcachelower@Base 8.61.dfsg.1
 gs_currentcachesize@Base 8.61.dfsg.1
 gs_currentcacheupper@Base 8.61.dfsg.1
 gs_currentcharmatrix@Base 8.61.dfsg.1
 gs_currentcolor@Base 8.61.dfsg.1
 gs_currentcolorrendering@Base 8.61.dfsg.1
 gs_currentcolorscreen@Base 8.61.dfsg.1
 gs_currentcolorspace@Base 8.61.dfsg.1
 gs_currentcolortransfer@Base 8.61.dfsg.1
 gs_currentcpsimode@Base 9.00~dfsg
 gs_currentcurvejoin@Base 8.61.dfsg.1
 gs_currentdash_length@Base 8.61.dfsg.1
 gs_currentdash_offset@Base 8.61.dfsg.1
 gs_currentdash_pattern@Base 8.61.dfsg.1
 gs_currentdashadapt@Base 8.61.dfsg.1
 gs_currentdefaultcmykicc@Base 9.06~dfsg
 gs_currentdefaultgrayicc@Base 9.06~dfsg
 gs_currentdefaultrgbicc@Base 9.06~dfsg
 gs_currentdevice@Base 8.61.dfsg.1
 gs_currentdevicecolor@Base 8.71~dfsg
 gs_currentdevicenicc@Base 9.06~dfsg
 gs_currentdotlength@Base 8.61.dfsg.1
 gs_currentdotlength_absolute@Base 8.61.dfsg.1
 gs_currentfilladjust@Base 8.61.dfsg.1
 gs_currentfilloverprint@Base 9.22~dfsg
 gs_currentflat@Base 8.61.dfsg.1
 gs_currentfont@Base 8.61.dfsg.1
 gs_currentgridfittt@Base 8.61.dfsg.1
 gs_currentgstate@Base 8.61.dfsg.1
 gs_currenthalftone@Base 8.61.dfsg.1
 gs_currenthpglpathmode@Base 9.06~dfsg
 gs_currenticcdirectory@Base 9.06~dfsg
 gs_currentlabicc@Base 9.06~dfsg
 gs_currentlimitclamp@Base 8.61.dfsg.1
 gs_currentlinecap@Base 8.61.dfsg.1
 gs_currentlinejoin@Base 8.61.dfsg.1
 gs_currentlineparams@Base 8.61.dfsg.1
 gs_currentlinewidth@Base 8.61.dfsg.1
 gs_currentmatrix@Base 8.61.dfsg.1
 gs_currentminscreenlevels@Base 8.61.dfsg.1
 gs_currentmiterlimit@Base 8.61.dfsg.1
 gs_currentnamedicc@Base 9.06~dfsg
 gs_currentoverprint@Base 8.61.dfsg.1
 gs_currentoverprintmode@Base 8.61.dfsg.1
 gs_currentoverrideicc@Base 9.04~dfsg
 gs_currentpoint@Base 8.61.dfsg.1
 gs_currentrasterop@Base 8.71~dfsg
 gs_currentrenderingintent@Base 8.61.dfsg.1
 gs_currentscreen@Base 8.61.dfsg.1
 gs_currentscreenlevels@Base 8.61.dfsg.1
 gs_currentscreenphase@Base 8.61.dfsg.1
 gs_currentscreenphase_pgs@Base 9.20~dfsg
 gs_currentsmoothness@Base 8.61.dfsg.1
 gs_currentsourcetransparent@Base 8.71~dfsg
 gs_currentsrcgtagicc@Base 9.06~dfsg
 gs_currentstrokeadjust@Base 8.61.dfsg.1
 gs_currentstrokeoverprint@Base 9.22~dfsg
 gs_currenttexthscaling@Base 9.22~dfsg
 gs_currenttextknockout@Base 8.61.dfsg.1
 gs_currenttextleading@Base 9.22~dfsg
 gs_currenttextrenderingmode@Base 8.61.dfsg.1
 gs_currenttextrise@Base 9.22~dfsg
 gs_currenttextspacing@Base 9.22~dfsg
 gs_currenttexturetransparent@Base 8.71~dfsg
 gs_currenttransfer@Base 8.61.dfsg.1
 gs_currentundercolorremoval@Base 8.61.dfsg.1
 gs_currentwordspacing@Base 9.22~dfsg
 gs_curveto@Base 8.61.dfsg.1
 gs_dashpath@Base 8.61.dfsg.1
 gs_data_image_t_init@Base 8.61.dfsg.1
 gs_dc_get_pattern_id@Base 8.63.dfsg.1
 gs_debug@Base 8.61.dfsg.1
 gs_debug_c@Base 8.61.dfsg.1
 gs_debug_flag_implied_by@Base 9.05~
 gs_debug_flags@Base 9.05~
 gs_debug_flags_list@Base 9.05~
 gs_debug_flags_parse@Base 9.05~
 gs_declj250_device@Base 8.61.dfsg.1
 gs_default_font_info@Base 8.61.dfsg.1
 gs_default_glyph_info@Base 8.61.dfsg.1
 gs_default_init_fstack@Base 8.61.dfsg.1
 gs_default_next_char_glyph@Base 8.61.dfsg.1
 gs_default_same_font@Base 8.61.dfsg.1
 gs_defaultmatrix@Base 8.61.dfsg.1
 gs_definefont@Base 8.61.dfsg.1
 gs_deskjet_device@Base 8.61.dfsg.1
 gs_dev_defaults@Base 8.61.dfsg.1
 gs_device_is_abuf@Base 8.61.dfsg.1
 gs_device_is_memory@Base 8.61.dfsg.1
 gs_deviceinitialmatrix@Base 8.61.dfsg.1
 gs_devicen_device@Base 8.61.dfsg.1
 gs_devicename@Base 8.61.dfsg.1
 gs_dfaxhigh_device@Base 8.61.dfsg.1
 gs_dfaxlow_device@Base 8.61.dfsg.1
 gs_display_device@Base 8.61.dfsg.1
 gs_distance_transform2fixed@Base 8.61.dfsg.1
 gs_distance_transform@Base 8.61.dfsg.1
 gs_distance_transform_inverse@Base 8.61.dfsg.1
 gs_dj505j_device@Base 8.61.dfsg.1
 gs_djet500_device@Base 8.61.dfsg.1
 gs_djet500c_device@Base 8.61.dfsg.1
 gs_dl2100_device@Base 8.61.dfsg.1
 gs_dnj650c_device@Base 8.61.dfsg.1
 gs_do_set_overprint@Base 8.61.dfsg.1
 gs_doc_directory@Base 8.61.dfsg.1
 gs_dotorientation@Base 8.61.dfsg.1
 gs_dtransform@Base 8.61.dfsg.1
 gs_emulators@Base 9.10~dfsg
 gs_emulators_sizeof@Base 9.10~dfsg
 gs_end_transparency_group@Base 8.61.dfsg.1
 gs_end_transparency_mask@Base 8.61.dfsg.1
 gs_end_transparency_text_group@Base 9.21~dfsg
 gs_enumerate_files_close@Base 8.64~dfsg-3~
 gs_enumerate_files_init@Base 8.64~dfsg-3~
 gs_enumerate_files_next@Base 8.64~dfsg-3~
 gs_eoclip@Base 8.61.dfsg.1
 gs_eofill@Base 8.61.dfsg.1
 gs_eofillstroke@Base 9.51~dfsg
 gs_epl2050_device@Base 8.61.dfsg.1
 gs_epl2050p_device@Base 8.61.dfsg.1
 gs_epl2120_device@Base 8.61.dfsg.1
 gs_epl2500_device@Base 8.61.dfsg.1
 gs_epl2750_device@Base 8.61.dfsg.1
 gs_epl5800_device@Base 8.61.dfsg.1
 gs_epl5900_device@Base 8.61.dfsg.1
 gs_epl6100_device@Base 8.61.dfsg.1
 gs_epl6200_device@Base 8.61.dfsg.1
 gs_eplcolor_device@Base 8.70~
 gs_eplmono_device@Base 8.70~
 gs_epo_device@Base 9.25~dfsg
 gs_eps2write_device@Base 9.15~dfsg
 gs_eps9high_device@Base 8.61.dfsg.1
 gs_eps9mid_device@Base 8.61.dfsg.1
 gs_epson_device@Base 8.61.dfsg.1
 gs_epsonc_device@Base 8.61.dfsg.1
 gs_erasepage@Base 8.61.dfsg.1
 gs_error_names@Base 8.61.dfsg.1
 gs_error_strings@Base 9.55.0~dfsg
 gs_errorinfo_put_pair@Base 8.61.dfsg.1
 gs_errorinfo_put_pair_from_dict@Base 8.61.dfsg.1
 gs_errorinfo_put_string@Base 8.61.dfsg.1
 gs_errorname@Base 8.61.dfsg.1
 gs_errstr@Base 8.61.dfsg.1
 gs_escp_device@Base 8.61.dfsg.1
 gs_escpage_device@Base 8.61.dfsg.1
 gs_escpc_device@Base 8.61.dfsg.1
 gs_fapi_available@Base 9.10~dfsg
 gs_fapi_do_char@Base 9.10~dfsg
 gs_fapi_find_server@Base 9.10~dfsg
 gs_fapi_finish_render@Base 9.10~dfsg
 gs_fapi_finit@Base 9.10~dfsg
 gs_fapi_ft_init@Base 9.19~~rc1~dfsg
 gs_fapi_get_font_info@Base 9.10~dfsg
 gs_fapi_get_metrics_count@Base 9.10~dfsg
 gs_fapi_get_server_list@Base 9.10~dfsg
 gs_fapi_init@Base 9.10~dfsg
 gs_fapi_passfont@Base 9.10~dfsg
 gs_fapi_prepare_font@Base 9.10~dfsg
 gs_fapi_serialize_type1_font@Base 9.19~~rc1~dfsg
 gs_fapi_serialize_type1_font_complete@Base 9.19~~rc1~dfsg
 gs_fapi_serialize_type2_font@Base 9.19~~rc1~dfsg
 gs_fapi_server_inits@Base 9.10~dfsg
 gs_fapi_set_servers_client_data@Base 9.10~dfsg
 gs_faxg32d_device@Base 8.61.dfsg.1
 gs_faxg3_device@Base 8.61.dfsg.1
 gs_faxg4_device@Base 8.61.dfsg.1
 gs_file_name_check_separator@Base 8.61.dfsg.1
 gs_fill@Base 8.61.dfsg.1
 gs_fillpage@Base 8.61.dfsg.1
 gs_fillstroke@Base 9.51~dfsg
 gs_find_compositor@Base 8.61.dfsg.1
 gs_find_font_by_id@Base 8.61.dfsg.1
 gs_findiodevice@Base 8.61.dfsg.1
 gs_flattenpath@Base 8.61.dfsg.1
 gs_flp_device@Base 9.18~dfsg
 gs_flushpage@Base 8.61.dfsg.1
 gs_fmlbp_device@Base 8.61.dfsg.1
 gs_fmpr_device@Base 8.61.dfsg.1
 gs_font_alloc@Base 8.61.dfsg.1
 gs_font_base_alloc@Base 8.61.dfsg.1
 gs_font_cid0_enumerate_glyph@Base 8.61.dfsg.1
 gs_font_cid2_from_type42@Base 8.61.dfsg.1
 gs_font_cid_system_info@Base 8.61.dfsg.1
 gs_font_dir_alloc2@Base 8.61.dfsg.1
 gs_font_dir_alloc2_limits@Base 8.61.dfsg.1
 gs_font_finalize@Base 8.61.dfsg.1
 gs_font_find_similar@Base 8.61.dfsg.1
 gs_font_glyph_is_notdef@Base 8.61.dfsg.1
 gs_font_map_glyph_to_unicode@Base 8.61.dfsg.1
 gs_font_notify_init@Base 8.61.dfsg.1
 gs_font_notify_register@Base 8.61.dfsg.1
 gs_font_notify_unregister@Base 8.61.dfsg.1
 gs_font_parent@Base 8.61.dfsg.1
 gs_font_procs_default@Base 8.61.dfsg.1
 gs_font_type0_from_cidfont@Base 8.61.dfsg.1
 gs_font_type0_from_type42@Base 8.61.dfsg.1
 gs_fopen_errno_to_code@Base 8.61.dfsg.1
 gs_fpng_device@Base 9.15~dfsg
 gs_free_bytestring@Base 8.61.dfsg.1
 gs_free_const_bytestring@Base 8.61.dfsg.1
 gs_free_const_object@Base 8.61.dfsg.1
 gs_free_const_string@Base 8.61.dfsg.1
 gs_free_copied_font@Base 9.06~dfsg
 gs_free_file_name@Base 8.61.dfsg.1
 gs_free_ref_array@Base 8.61.dfsg.1
 gs_fs600_device@Base 8.61.dfsg.1
 gs_function_1ItSg_free_params@Base 8.61.dfsg.1
 gs_function_1ItSg_init@Base 8.61.dfsg.1
 gs_function_AdOt_free_params@Base 8.61.dfsg.1
 gs_function_AdOt_init@Base 8.61.dfsg.1
 gs_function_ElIn_free_params@Base 8.61.dfsg.1
 gs_function_ElIn_init@Base 8.61.dfsg.1
 gs_function_PtCr_free_params@Base 8.61.dfsg.1
 gs_function_PtCr_init@Base 8.61.dfsg.1
 gs_function_Sd_free_params@Base 8.61.dfsg.1
 gs_function_Sd_init@Base 8.61.dfsg.1
 gs_function_get_info_default@Base 8.61.dfsg.1
 gs_gc_reclaim@Base 8.61.dfsg.1
 gs_gdi_device@Base 8.61.dfsg.1
 gs_get_callout_stdin@Base 9.27~dfsg
 gs_get_colorname_string@Base 8.61.dfsg.1
 gs_get_device_or_hw_params@Base 8.61.dfsg.1
 gs_get_fapi_server_inits@Base 9.10~dfsg
 gs_get_glyph_data_cached@Base 8.61.dfsg.1
 gs_get_pattern@Base 8.61.dfsg.1
 gs_get_pattern_client_data@Base 9.53.0~dfsg
 gs_get_text_params@Base 8.61.dfsg.1
 gs_getalphaisshape@Base 9.22~dfsg
 gs_getdefaultdevice@Base 8.61.dfsg.1
 gs_getdefaultlibdevice@Base 9.15~dfsg
 gs_getdevice@Base 8.61.dfsg.1
 gs_getdevparams@Base 8.61.dfsg.1
 gs_getfillconstantalpha@Base 9.22~dfsg
 gs_getiodevice@Base 8.61.dfsg.1
 gs_getpattern@Base 8.61.dfsg.1
 gs_getscanconverter@Base 9.20~dfsg
 gs_getstrokeconstantalpha@Base 9.22~dfsg
 gs_gettextlinematrix@Base 9.22~dfsg
 gs_gettextmatrix@Base 9.22~dfsg
 gs_glyph_cache__alloc@Base 8.61.dfsg.1
 gs_glyph_cache__release@Base 8.61.dfsg.1
 gs_glyph_data_free@Base 8.61.dfsg.1
 gs_glyph_data_from_bytes@Base 8.61.dfsg.1
 gs_glyph_data_from_null@Base 8.61.dfsg.1
 gs_glyph_data_from_string@Base 8.61.dfsg.1
 gs_glyph_data_substring@Base 8.61.dfsg.1
 gs_glyphpath_begin@Base 8.61.dfsg.1
 gs_glyphshow_begin@Base 8.61.dfsg.1
 gs_glyphwidth_begin@Base 8.61.dfsg.1
 gs_grestore@Base 8.61.dfsg.1
 gs_grestore_only@Base 8.61.dfsg.1
 gs_grestoreall@Base 8.61.dfsg.1
 gs_grestoreall_for_restore@Base 8.61.dfsg.1
 gs_gsave@Base 8.61.dfsg.1
 gs_gsave_for_save@Base 8.61.dfsg.1
 gs_gshtscr_init@Base 8.61.dfsg.1
 gs_gstate_alloc@Base 9.20~dfsg
 gs_gstate_client_data@Base 9.20~dfsg
 gs_gstate_copied@Base 9.20~dfsg
 gs_gstate_copy@Base 9.20~dfsg
 gs_gstate_currentaccuratecurves@Base 9.20~dfsg
 gs_gstate_currentdashadapt@Base 9.20~dfsg
 gs_gstate_finalize@Base 9.20~dfsg
 gs_gstate_free@Base 9.20~dfsg
 gs_gstate_free_chain@Base 9.20~dfsg
 gs_gstate_idtransform@Base 9.20~dfsg
 gs_gstate_initialize@Base 9.20~dfsg
 gs_gstate_memory@Base 9.20~dfsg
 gs_gstate_pre_assign@Base 9.20~dfsg
 gs_gstate_putdeviceparams@Base 9.20~dfsg
 gs_gstate_release@Base 9.20~dfsg
 gs_gstate_saved@Base 9.20~dfsg
 gs_gstate_set_client@Base 9.20~dfsg
 gs_gstate_setflat@Base 9.20~dfsg
 gs_gstate_setmatrix@Base 9.20~dfsg
 gs_gstate_swap_memory@Base 9.20~dfsg
 gs_gstate_swap_saved@Base 9.20~dfsg
 gs_gstate_update_overprint@Base 9.20~dfsg
 gs_gsub_release@Base 9.01~
 gs_gxclfile_init@Base 8.61.dfsg.1
 gs_gxclmem_init@Base 8.61.dfsg.1
 gs_have_level2@Base 8.61.dfsg.1
 gs_hit_detected@Base 8.61.dfsg.1
 gs_hit_device@Base 8.61.dfsg.1
 gs_hl1240_device@Base 8.61.dfsg.1
 gs_hl1250_device@Base 8.61.dfsg.1
 gs_hl7x0_device@Base 8.61.dfsg.1
 gs_hocr_device@Base 9.55.0~dfsg1-0ubuntu1
 gs_hpdj1120c_device@Base 8.61.dfsg.1
 gs_hpdj310_device@Base 8.61.dfsg.1
 gs_hpdj320_device@Base 8.61.dfsg.1
 gs_hpdj340_device@Base 8.61.dfsg.1
 gs_hpdj400_device@Base 8.61.dfsg.1
 gs_hpdj500_device@Base 8.61.dfsg.1
 gs_hpdj500c_device@Base 8.61.dfsg.1
 gs_hpdj510_device@Base 8.61.dfsg.1
 gs_hpdj520_device@Base 8.61.dfsg.1
 gs_hpdj540_device@Base 8.61.dfsg.1
 gs_hpdj550c_device@Base 8.61.dfsg.1
 gs_hpdj560c_device@Base 8.61.dfsg.1
 gs_hpdj600_device@Base 8.61.dfsg.1
 gs_hpdj660c_device@Base 8.61.dfsg.1
 gs_hpdj670c_device@Base 8.61.dfsg.1
 gs_hpdj680c_device@Base 8.61.dfsg.1
 gs_hpdj690c_device@Base 8.61.dfsg.1
 gs_hpdj850c_device@Base 8.61.dfsg.1
 gs_hpdj855c_device@Base 8.61.dfsg.1
 gs_hpdj870c_device@Base 8.61.dfsg.1
 gs_hpdj890c_device@Base 8.61.dfsg.1
 gs_hpdjplus_device@Base 8.61.dfsg.1
 gs_hpdjportable_device@Base 8.61.dfsg.1
 gs_ht_build@Base 8.71~dfsg
 gs_ht_install@Base 8.71~dfsg
 gs_ht_reference@Base 8.71~dfsg
 gs_ht_release@Base 8.71~dfsg
 gs_ht_set_mask_comp@Base 8.71~dfsg
 gs_ht_set_spot_comp@Base 8.71~dfsg
 gs_ht_set_threshold_comp@Base 8.71~dfsg
 gs_ibmpro_device@Base 8.61.dfsg.1
 gs_identity_transfer@Base 8.61.dfsg.1
 gs_idtransform@Base 8.61.dfsg.1
 gs_ignore_consolidate_free@Base 8.61.dfsg.1
 gs_ignore_free_object@Base 8.61.dfsg.1
 gs_ignore_free_string@Base 8.61.dfsg.1
 gs_ijs_device@Base 9.01~
 gs_image3_t_init@Base 8.61.dfsg.1
 gs_image3x_t_init@Base 8.61.dfsg.1
 gs_image4_t_init@Base 8.61.dfsg.1
 gs_image_begin_typed@Base 8.61.dfsg.1
 gs_image_bytes_per_plane_row@Base 8.61.dfsg.1
 gs_image_class_0_interpolate@Base 8.61.dfsg.1
 gs_image_class_1_simple@Base 8.61.dfsg.1
 gs_image_class_2_fracs@Base 8.61.dfsg.1
 gs_image_class_3_mono@Base 8.61.dfsg.1
 gs_image_class_4_color@Base 8.61.dfsg.1
 gs_image_cleanup@Base 8.61.dfsg.1
 gs_image_cleanup_and_free_enum@Base 8.61.dfsg.1
 gs_image_common_init@Base 8.61.dfsg.1
 gs_image_common_t_init@Base 8.61.dfsg.1
 gs_image_enum_alloc@Base 8.61.dfsg.1
 gs_image_enum_init@Base 8.61.dfsg.1
 gs_image_init@Base 8.61.dfsg.1
 gs_image_next@Base 8.61.dfsg.1
 gs_image_next_planes@Base 8.61.dfsg.1
 gs_image_planes_wanted@Base 8.61.dfsg.1
 gs_image_t_init_adjust@Base 8.61.dfsg.1
 gs_image_t_init_mask_adjust@Base 8.61.dfsg.1
 gs_image_type_1@Base 8.61.dfsg.1
 gs_image_type_3@Base 8.61.dfsg.1
 gs_image_type_3x@Base 8.61.dfsg.1
 gs_image_type_4@Base 8.61.dfsg.1
 gs_image_type_mask1@Base 8.61.dfsg.1
 gs_imagen_device@Base 8.61.dfsg.1
 gs_imagepath@Base 8.61.dfsg.1
 gs_incachedevice@Base 8.61.dfsg.1
 gs_includecolorspace@Base 8.61.dfsg.1
 gs_indexed_limit_and_lookup@Base 8.63.dfsg.1
 gs_inferno_device@Base 8.61.dfsg.1
 gs_init_file@Base 8.61.dfsg.1
 gs_init_files@Base 9.10~dfsg
 gs_init_files_sizeof@Base 9.10~dfsg
 gs_initclip@Base 8.61.dfsg.1
 gs_initgraphics@Base 8.61.dfsg.1
 gs_initialize_wordimagedevice@Base 8.61.dfsg.1
 gs_initmatrix@Base 8.61.dfsg.1
 gs_ink_cov_device@Base 9.15~dfsg
 gs_inkcov_device@Base 9.05~
 gs_internal_error_strings@Base 9.55.0~dfsg
 gs_interp_alloc_stacks@Base 8.61.dfsg.1
 gs_interp_free_stacks@Base 8.61.dfsg.1
 gs_interp_init@Base 8.61.dfsg.1
 gs_interp_make_oper@Base 8.61.dfsg.1
 gs_interp_max_op_num_args@Base 8.61.dfsg.1
 gs_interp_num_special_ops@Base 8.61.dfsg.1
 gs_interp_reset@Base 8.61.dfsg.1
 gs_interpret@Base 8.61.dfsg.1
 gs_iodev_calendar@Base 8.61.dfsg.1
 gs_iodev_finit@Base 9.25~dfsg
 gs_iodev_init@Base 8.61.dfsg.1
 gs_iodev_lineedit@Base 8.61.dfsg.1
 gs_iodev_null@Base 8.61.dfsg.1
 gs_iodev_os@Base 8.61.dfsg.1
 gs_iodev_pipe@Base 8.61.dfsg.1
 gs_iodev_ram@Base 9.19~~rc1~dfsg
 gs_iodev_register_dev@Base 9.18~dfsg
 gs_iodev_rom@Base 9.18~dfsg
 gs_iodev_statementedit@Base 8.61.dfsg.1
 gs_iodev_stderr@Base 8.61.dfsg.1
 gs_iodev_stdin@Base 8.61.dfsg.1
 gs_iodev_stdout@Base 8.61.dfsg.1
 gs_is_CIDSystemInfo_compatible@Base 8.61.dfsg.1
 gs_is_c_glyph_name@Base 8.61.dfsg.1
 gs_is_null_device@Base 8.61.dfsg.1
 gs_is_overprint_compositor@Base 8.61.dfsg.1
 gs_is_path_control_active@Base 9.28~~rc1~dfsg
 gs_is_pdf14trans_compositor@Base 8.61.dfsg.1
 gs_itk24i_device@Base 9.15~dfsg
 gs_itk38_device@Base 9.15~dfsg
 gs_itransform@Base 8.61.dfsg.1
 gs_iwhi_device@Base 9.51~dfsg
 gs_iwlo_device@Base 9.51~dfsg
 gs_iwlq_device@Base 9.51~dfsg
 gs_jetp3852_device@Base 8.61.dfsg.1
 gs_jj100_device@Base 8.61.dfsg.1
 gs_jpeg_alloc_huff_table@Base 8.61.dfsg.1
 gs_jpeg_alloc_quant_table@Base 8.61.dfsg.1
 gs_jpeg_create_compress@Base 8.61.dfsg.1
 gs_jpeg_create_decompress@Base 8.61.dfsg.1
 gs_jpeg_destroy@Base 8.61.dfsg.1
 gs_jpeg_device@Base 8.61.dfsg.1
 gs_jpeg_error_setup@Base 8.61.dfsg.1
 gs_jpeg_finish_compress@Base 8.61.dfsg.1
 gs_jpeg_finish_decompress@Base 8.61.dfsg.1
 gs_jpeg_log_error@Base 8.61.dfsg.1
 gs_jpeg_mem_init@Base 9.15~dfsg
 gs_jpeg_mem_term@Base 9.15~dfsg
 gs_jpeg_read_header@Base 8.61.dfsg.1
 gs_jpeg_read_scanlines@Base 8.61.dfsg.1
 gs_jpeg_set_colorspace@Base 8.61.dfsg.1
 gs_jpeg_set_defaults@Base 8.61.dfsg.1
 gs_jpeg_set_linear_quality@Base 8.61.dfsg.1
 gs_jpeg_set_quality@Base 8.61.dfsg.1
 gs_jpeg_start_compress@Base 8.61.dfsg.1
 gs_jpeg_start_decompress@Base 8.61.dfsg.1
 gs_jpeg_write_scanlines@Base 8.61.dfsg.1
 gs_jpegcmyk_device@Base 8.61.dfsg.1
 gs_jpeggray_device@Base 8.61.dfsg.1
 gs_kshow_begin@Base 8.61.dfsg.1
 gs_kshow_next_char@Base 8.61.dfsg.1
 gs_kshow_previous_char@Base 8.61.dfsg.1
 gs_la50_device@Base 8.61.dfsg.1
 gs_la70_device@Base 8.61.dfsg.1
 gs_la75_device@Base 8.61.dfsg.1
 gs_la75plus_device@Base 8.61.dfsg.1
 gs_laserjet_device@Base 8.61.dfsg.1
 gs_lbp310_device@Base 8.61.dfsg.1
 gs_lbp320_device@Base 8.61.dfsg.1
 gs_lbp8_device@Base 8.61.dfsg.1
 gs_len_glyphs_release@Base 8.61.dfsg.1
 gs_lex2050_device@Base 8.61.dfsg.1
 gs_lex3200_device@Base 8.61.dfsg.1
 gs_lex5700_device@Base 8.61.dfsg.1
 gs_lex7000_device@Base 8.61.dfsg.1
 gs_lib_ctx_callout@Base 9.53.0~dfsg
 gs_lib_ctx_deregister_callout@Base 9.53.0~dfsg
 gs_lib_ctx_fin@Base 9.10~dfsg
 gs_lib_ctx_get_act_on_uel@Base 9.27~dfsg
 gs_lib_ctx_get_args@Base 9.28~~rc1~dfsg
 gs_lib_ctx_get_cms_context@Base 9.10~dfsg
 gs_lib_ctx_get_default_device_list@Base 9.15~dfsg
 gs_lib_ctx_get_interp_instance@Base 9.00~dfsg
 gs_lib_ctx_get_non_gc_memory_t@Base 8.61.dfsg.1
 gs_lib_ctx_init@Base 8.61.dfsg.1
 gs_lib_ctx_register_callout@Base 9.53.0~dfsg
 gs_lib_ctx_set_cms_context@Base 9.10~dfsg
 gs_lib_ctx_set_default_device_list@Base 9.15~dfsg
 gs_lib_ctx_set_icc_directory@Base 9.04~dfsg
 gs_lib_ctx_stash_exe@Base 9.28~~rc1~dfsg
 gs_lib_ctx_stash_sanitized_arg@Base 9.28~~rc1~dfsg
 gs_lib_default_path@Base 8.61.dfsg.1
 gs_lib_device_list@Base 8.61.dfsg.1
 gs_lib_finit@Base 8.61.dfsg.1
 gs_lib_init0@Base 8.61.dfsg.1
 gs_lib_init1@Base 8.61.dfsg.1
 gs_lib_init@Base 8.61.dfsg.1
 gs_lib_register_device@Base 8.61.dfsg.1
 gs_lineto@Base 8.61.dfsg.1
 gs_lips2p_device@Base 8.61.dfsg.1
 gs_lips3_device@Base 8.61.dfsg.1
 gs_lips4_device@Base 8.61.dfsg.1
 gs_lips4v_device@Base 8.61.dfsg.1
 gs_lj250_device@Base 8.61.dfsg.1
 gs_lj3100sw_device@Base 8.61.dfsg.1
 gs_lj4dith_device@Base 8.61.dfsg.1
 gs_lj4dithp_device@Base 8.61.dfsg.1
 gs_lj5gray_device@Base 8.61.dfsg.1
 gs_lj5mono_device@Base 8.61.dfsg.1
 gs_ljet2p_device@Base 8.61.dfsg.1
 gs_ljet3_device@Base 8.61.dfsg.1
 gs_ljet3d_device@Base 8.61.dfsg.1
 gs_ljet4_device@Base 8.61.dfsg.1
 gs_ljet4d_device@Base 8.61.dfsg.1
 gs_ljet4pjl_device@Base 8.61.dfsg.1
 gs_ljetplus_device@Base 8.61.dfsg.1
 gs_ln03_device@Base 8.61.dfsg.1
 gs_log_error@Base 8.61.dfsg.1
 gs_lp1800_device@Base 8.61.dfsg.1
 gs_lp1900_device@Base 8.61.dfsg.1
 gs_lp2000_device@Base 8.61.dfsg.1
 gs_lp2200_device@Base 8.61.dfsg.1
 gs_lp2400_device@Base 8.61.dfsg.1
 gs_lp2500_device@Base 8.61.dfsg.1
 gs_lp2563_device@Base 8.61.dfsg.1
 gs_lp3000c_device@Base 8.61.dfsg.1
 gs_lp7500_device@Base 8.61.dfsg.1
 gs_lp7700_device@Base 8.61.dfsg.1
 gs_lp7900_device@Base 8.61.dfsg.1
 gs_lp8000_device@Base 8.61.dfsg.1
 gs_lp8000c_device@Base 8.61.dfsg.1
 gs_lp8100_device@Base 8.61.dfsg.1
 gs_lp8200c_device@Base 8.61.dfsg.1
 gs_lp8300c_device@Base 8.61.dfsg.1
 gs_lp8300f_device@Base 8.61.dfsg.1
 gs_lp8400f_device@Base 8.61.dfsg.1
 gs_lp8500c_device@Base 8.61.dfsg.1
 gs_lp8600_device@Base 8.61.dfsg.1
 gs_lp8600f_device@Base 8.61.dfsg.1
 gs_lp8700_device@Base 8.61.dfsg.1
 gs_lp8800c_device@Base 8.61.dfsg.1
 gs_lp8900_device@Base 8.61.dfsg.1
 gs_lp9000b_device@Base 8.61.dfsg.1
 gs_lp9000c_device@Base 8.61.dfsg.1
 gs_lp9100_device@Base 8.61.dfsg.1
 gs_lp9200b_device@Base 8.61.dfsg.1
 gs_lp9200c_device@Base 8.61.dfsg.1
 gs_lp9300_device@Base 8.61.dfsg.1
 gs_lp9400_device@Base 8.61.dfsg.1
 gs_lp9500c_device@Base 8.61.dfsg.1
 gs_lp9600_device@Base 8.61.dfsg.1
 gs_lp9600s_device@Base 8.61.dfsg.1
 gs_lp9800c_device@Base 8.61.dfsg.1
 gs_lps4500_device@Base 8.61.dfsg.1
 gs_lps6500_device@Base 8.61.dfsg.1
 gs_lq850_device@Base 8.61.dfsg.1
 gs_lxm3200_device@Base 8.61.dfsg.1
 gs_lxm5700m_device@Base 8.61.dfsg.1
 gs_m8510_device@Base 8.61.dfsg.1
 gs_main_add_lib_path@Base 8.61.dfsg.1
 gs_main_alloc_instance@Base 8.61.dfsg.1
 gs_main_dump_stack@Base 8.61.dfsg.1
 gs_main_finit@Base 8.61.dfsg.1
 gs_main_force_dimensions@Base 9.27~dfsg
 gs_main_force_resolutions@Base 9.27~dfsg
 gs_main_get_device_memory@Base 9.27~dfsg
 gs_main_get_uel_offset@Base 9.27~dfsg
 gs_main_init0@Base 8.61.dfsg.1
 gs_main_init1@Base 8.61.dfsg.1
 gs_main_init2@Base 8.61.dfsg.1
 gs_main_init2aux@Base 9.05~
 gs_main_init_with_args01@Base 9.27~dfsg
 gs_main_init_with_args2@Base 9.27~dfsg
 gs_main_init_with_args@Base 8.61.dfsg.1
 gs_main_inst_arg_decode@Base 9.10~dfsg
 gs_main_inst_get_arg_decode@Base 9.10~dfsg
 gs_main_instance_init_values@Base 8.61.dfsg.1
 gs_main_lib_open@Base 8.61.dfsg.1
 gs_main_run_file2@Base 9.27~dfsg
 gs_main_run_file@Base 8.61.dfsg.1
 gs_main_run_file_open@Base 8.61.dfsg.1
 gs_main_run_start@Base 8.61.dfsg.1
 gs_main_run_string@Base 8.61.dfsg.1
 gs_main_run_string_begin@Base 8.61.dfsg.1
 gs_main_run_string_continue@Base 8.61.dfsg.1
 gs_main_run_string_end@Base 8.61.dfsg.1
 gs_main_run_string_with_length@Base 8.61.dfsg.1
 gs_main_set_device@Base 9.27~dfsg
 gs_main_set_language_param@Base 9.53.0~dfsg
 gs_main_set_lib_paths@Base 8.61.dfsg.1
 gs_make_identity@Base 8.61.dfsg.1
 gs_make_mem_abuf_device@Base 8.61.dfsg.1
 gs_make_mem_device@Base 8.61.dfsg.1
 gs_make_mem_device_with_copydevice@Base 8.71~dfsg
 gs_make_mem_mono_device@Base 8.61.dfsg.1
 gs_make_mem_mono_device_with_copydevice@Base 8.71~dfsg
 gs_make_null_device@Base 8.61.dfsg.1
 gs_make_pattern@Base 8.61.dfsg.1
 gs_make_pattern_common@Base 8.61.dfsg.1
 gs_make_rotation@Base 8.61.dfsg.1
 gs_make_scaling@Base 8.61.dfsg.1
 gs_make_translation@Base 8.61.dfsg.1
 gs_makebitmappattern_xform@Base 8.61.dfsg.1
 gs_makefont@Base 8.61.dfsg.1
 gs_makepattern@Base 8.61.dfsg.1
 gs_makepixmappattern@Base 8.61.dfsg.1
 gs_makewordimagedevice@Base 8.61.dfsg.1
 gs_malloc_init@Base 8.61.dfsg.1
 gs_malloc_init_with_context@Base 9.27~dfsg
 gs_malloc_memory_init@Base 8.61.dfsg.1
 gs_malloc_release@Base 8.61.dfsg.1
 gs_malloc_unwrap@Base 8.61.dfsg.1
 gs_malloc_wrap@Base 8.61.dfsg.1
 gs_malloc_wrapped_contents@Base 8.61.dfsg.1
 gs_mapped_transfer@Base 8.61.dfsg.1
 gs_mask_clip_device@Base 8.61.dfsg.1
 gs_matrix_compare@Base 9.05~
 gs_matrix_fixed_from_matrix@Base 8.61.dfsg.1
 gs_matrix_invert@Base 8.61.dfsg.1
 gs_matrix_invert_to_double@Base 8.62.dfsg.1
 gs_matrix_multiply@Base 8.61.dfsg.1
 gs_matrix_multiply_double@Base 8.62.dfsg.1
 gs_matrix_rotate@Base 8.61.dfsg.1
 gs_matrix_scale@Base 8.61.dfsg.1
 gs_matrix_translate@Base 8.61.dfsg.1
 gs_md1xMono_device@Base 8.61.dfsg.1
 gs_md2k_device@Base 8.61.dfsg.1
 gs_md50Eco_device@Base 8.61.dfsg.1
 gs_md50Mono_device@Base 8.61.dfsg.1
 gs_md5_append@Base 8.61.dfsg.1
 gs_md5_finish@Base 8.61.dfsg.1
 gs_md5_init@Base 8.61.dfsg.1
 gs_md5k_device@Base 8.61.dfsg.1
 gs_memory_chunk_release@Base 8.63.dfsg.1
 gs_memory_chunk_target@Base 8.63.dfsg.1
 gs_memory_chunk_unwrap@Base 9.20~dfsg
 gs_memory_chunk_wrap@Base 8.63.dfsg.1
 gs_memory_gc_status@Base 8.61.dfsg.1
 gs_memory_retrying_init@Base 8.61.dfsg.1
 gs_memory_retrying_release@Base 8.61.dfsg.1
 gs_memory_retrying_set_recover@Base 8.61.dfsg.1
 gs_memory_retrying_target@Base 8.61.dfsg.1
 gs_memory_set_gc_status@Base 8.61.dfsg.1
 gs_memory_set_vm_reclaim@Base 8.61.dfsg.1
 gs_memory_set_vm_threshold@Base 8.61.dfsg.1
 gs_mgl_e_ps@Base 9.01~
 gs_mgr4_device@Base 8.61.dfsg.1
 gs_mgr8_device@Base 8.61.dfsg.1
 gs_mgrgray2_device@Base 8.61.dfsg.1
 gs_mgrgray4_device@Base 8.61.dfsg.1
 gs_mgrgray8_device@Base 8.61.dfsg.1
 gs_mgrmono_device@Base 8.61.dfsg.1
 gs_miff24_device@Base 8.61.dfsg.1
 gs_mj500c_device@Base 8.61.dfsg.1
 gs_mj6000c_device@Base 8.61.dfsg.1
 gs_mj700v2c_device@Base 8.61.dfsg.1
 gs_mj8000c_device@Base 8.61.dfsg.1
 gs_ml600_device@Base 8.61.dfsg.1
 gs_moveto@Base 8.61.dfsg.1
 gs_moveto_aux@Base 8.61.dfsg.1
 gs_mro_e_ps@Base 9.01~
 gs_necp6_device@Base 8.61.dfsg.1
 gs_newpath@Base 8.61.dfsg.1
 gs_next_ids@Base 8.61.dfsg.1
 gs_no_build_char@Base 8.61.dfsg.1
 gs_no_decode_glyph@Base 8.61.dfsg.1
 gs_no_define_font@Base 8.61.dfsg.1
 gs_no_encode_char@Base 8.61.dfsg.1
 gs_no_enumerate_glyph@Base 8.61.dfsg.1
 gs_no_glyph_name@Base 8.61.dfsg.1
 gs_no_glyph_outline@Base 8.61.dfsg.1
 gs_no_make_font@Base 8.61.dfsg.1
 gs_no_struct_enum_ptrs@Base 8.61.dfsg.1
 gs_no_struct_reloc_ptrs@Base 8.61.dfsg.1
 gs_nogc_reclaim@Base 8.71~dfsg
 gs_notify_all@Base 8.61.dfsg.1
 gs_notify_init@Base 8.61.dfsg.1
 gs_notify_register@Base 8.61.dfsg.1
 gs_notify_release@Base 8.61.dfsg.1
 gs_notify_unregister@Base 8.61.dfsg.1
 gs_notify_unregister_calling@Base 8.61.dfsg.1
 gs_npdl_device@Base 8.61.dfsg.1
 gs_null_device@Base 8.61.dfsg.1
 gs_nulldevice@Base 8.61.dfsg.1
 gs_nullpage_device@Base 8.61.dfsg.1
 gs_nup_device@Base 9.54.0~dfsg
 gs_obj_filter_device@Base 9.18~dfsg
 gs_oce9050_device@Base 8.61.dfsg.1
 gs_ocr_device@Base 9.55.0~dfsg1-0ubuntu1
 gs_oki182_device@Base 8.61.dfsg.1
 gs_oki4w_device@Base 8.61.dfsg.1
 gs_okiibm_device@Base 8.61.dfsg.1
 gs_opendevice@Base 8.61.dfsg.1
 gs_oprp_device@Base 9.53.3~dfsg-7~
 gs_opvp_device@Base 9.53.3~dfsg-7~
 gs_output_page@Base 8.61.dfsg.1
 gs_overprint_device@Base 8.61.dfsg.1
 gs_paintjet_device@Base 8.61.dfsg.1
 gs_pam_device@Base 8.61.dfsg.1
 gs_pamcmyk32_device@Base 8.62.dfsg.1
 gs_pamcmyk4_device@Base 9.02~dfsg
 gs_param_list_add_parsed_value@Base 9.53.0~dfsg
 gs_param_list_add_tokens@Base 9.53.0~dfsg
 gs_param_list_dump@Base 9.54.0~dfsg
 gs_param_list_init@Base 8.61.dfsg.1
 gs_param_list_serialize@Base 8.61.dfsg.1
 gs_param_list_set_persist_keys@Base 8.61.dfsg.1
 gs_param_list_to_string@Base 9.53.0~dfsg
 gs_param_list_unserialize@Base 8.61.dfsg.1
 gs_param_read_items@Base 8.61.dfsg.1
 gs_param_request_default@Base 8.61.dfsg.1
 gs_param_requested_default@Base 8.61.dfsg.1
 gs_param_string_eq@Base 8.61.dfsg.1
 gs_param_type_base_sizes@Base 8.61.dfsg.1
 gs_param_type_sizes@Base 8.61.dfsg.1
 gs_param_typed_value_enum_ptrs@Base 8.61.dfsg.1
 gs_param_typed_value_reloc_ptrs@Base 8.61.dfsg.1
 gs_param_write_items@Base 8.61.dfsg.1
 gs_parse_file_name@Base 8.61.dfsg.1
 gs_parse_real_file_name@Base 8.61.dfsg.1
 gs_path_enum_alloc@Base 8.61.dfsg.1
 gs_path_enum_cleanup@Base 8.61.dfsg.1
 gs_path_enum_copy_init@Base 8.61.dfsg.1
 gs_path_enum_next@Base 8.61.dfsg.1
 gs_pattern1_init@Base 8.61.dfsg.1
 gs_pattern1_remap_color@Base 8.61.dfsg.1
 gs_pattern2_init@Base 8.61.dfsg.1
 gs_pattern2_set_shfill@Base 8.61.dfsg.1
 gs_pattern_common_init@Base 8.61.dfsg.1
 gs_pattern_reference@Base 8.61.dfsg.1
 gs_pbm_device@Base 8.61.dfsg.1
 gs_pbmraw_device@Base 8.61.dfsg.1
 gs_pcl3_device@Base 8.61.dfsg.1
 gs_pcl_mono_palette_device@Base 9.18~dfsg
 gs_pcx16_device@Base 8.61.dfsg.1
 gs_pcx24b_device@Base 8.61.dfsg.1
 gs_pcx256_device@Base 8.61.dfsg.1
 gs_pcxcmyk_device@Base 8.61.dfsg.1
 gs_pcxgray_device@Base 8.61.dfsg.1
 gs_pcxmono_device@Base 8.61.dfsg.1
 gs_pdf14_CMYK_device@Base 8.61.dfsg.1
 gs_pdf14_CMYKspot_device@Base 8.61.dfsg.1
 gs_pdf14_Gray_device@Base 8.61.dfsg.1
 gs_pdf14_Grayspot_device@Base 9.21~dfsg
 gs_pdf14_RGB_device@Base 8.61.dfsg.1
 gs_pdf14_RGBspot_device@Base 9.21~dfsg
 gs_pdf14_custom_device@Base 8.61.dfsg.1
 gs_pdf14_device_color_mon_set@Base 9.10~dfsg
 gs_pdfimage24_device@Base 9.25~dfsg
 gs_pdfimage32_device@Base 9.25~dfsg
 gs_pdfimage8_device@Base 9.25~dfsg
 gs_pdfocr24_device@Base 9.55.0~dfsg1-0ubuntu1
 gs_pdfocr32_device@Base 9.55.0~dfsg1-0ubuntu1
 gs_pdfocr8_device@Base 9.55.0~dfsg1-0ubuntu1
 gs_pdfwrite_device@Base 8.61.dfsg.1
 gs_pgm_device@Base 8.61.dfsg.1
 gs_pgmraw_device@Base 8.61.dfsg.1
 gs_pgnm_device@Base 8.61.dfsg.1
 gs_pgnmraw_device@Base 8.61.dfsg.1
 gs_photoex_device@Base 8.61.dfsg.1
 gs_picty180_device@Base 8.61.dfsg.1
 gs_pixel_image_t_init@Base 8.61.dfsg.1
 gs_pj_device@Base 8.61.dfsg.1
 gs_pjetxl_device@Base 8.61.dfsg.1
 gs_pjxl300_device@Base 8.61.dfsg.1
 gs_pjxl_device@Base 8.61.dfsg.1
 gs_pkm_device@Base 8.61.dfsg.1
 gs_pkmraw_device@Base 8.61.dfsg.1
 gs_pksm_device@Base 8.61.dfsg.1
 gs_pksmraw_device@Base 8.61.dfsg.1
 gs_plan9bm_device@Base 8.61.dfsg.1
 gs_plan_device@Base 9.05~
 gs_planc_device@Base 9.05~
 gs_plang_device@Base 9.05~
 gs_plank_device@Base 9.05~
 gs_planm_device@Base 9.05~
 gs_planr_device@Base 9.25~dfsg
 gs_plib_device@Base 9.16~dfsg
 gs_plibc_device@Base 9.16~dfsg
 gs_plibg_device@Base 9.16~dfsg
 gs_plibk_device@Base 9.16~dfsg
 gs_plibm_device@Base 9.16~dfsg
 gs_png16_device@Base 8.61.dfsg.1
 gs_png16m_device@Base 8.61.dfsg.1
 gs_png256_device@Base 8.61.dfsg.1
 gs_png48_device@Base 8.61.dfsg.1
 gs_pngalpha_device@Base 8.61.dfsg.1
 gs_pnggray_device@Base 8.61.dfsg.1
 gs_pngmono_device@Base 8.61.dfsg.1
 gs_pngmonod_device@Base 9.04~dfsg
 gs_pnm_device@Base 8.61.dfsg.1
 gs_pnmcmyk_device@Base 9.10~dfsg
 gs_pnmraw_device@Base 8.61.dfsg.1
 gs_point_transform2fixed@Base 8.61.dfsg.1
 gs_point_transform2fixed_rounding@Base 8.61.dfsg.1
 gs_point_transform@Base 8.61.dfsg.1
 gs_point_transform_inverse@Base 8.61.dfsg.1
 gs_points_bbox@Base 8.61.dfsg.1
 gs_pop_boolean@Base 8.61.dfsg.1
 gs_pop_integer@Base 8.61.dfsg.1
 gs_pop_pdf14trans_device@Base 8.61.dfsg.1
 gs_pop_real@Base 8.61.dfsg.1
 gs_pop_string@Base 8.61.dfsg.1
 gs_pop_transparency_state@Base 8.71~dfsg
 gs_ppm_device@Base 8.61.dfsg.1
 gs_ppmraw_device@Base 8.61.dfsg.1
 gs_pr1000_4_device@Base 8.61.dfsg.1
 gs_pr1000_device@Base 8.61.dfsg.1
 gs_pr150_device@Base 8.61.dfsg.1
 gs_pr201_device@Base 8.61.dfsg.1
 gs_product@Base 8.61.dfsg.1
 gs_productfamily@Base 8.61.dfsg.1
 gs_program_family_name@Base 9.20~dfsg
 gs_program_name@Base 8.61.dfsg.1
 gs_ps2write_device@Base 8.61.dfsg.1
 gs_psdcmyk16_device@Base 9.27~dfsg
 gs_psdcmyk_device@Base 8.61.dfsg.1
 gs_psdcmykog_device@Base 9.15~dfsg
 gs_psdrgb16_device@Base 9.27~dfsg
 gs_psdrgb_device@Base 8.61.dfsg.1
 gs_purge_control_paths@Base 9.28~~rc1~dfsg
 gs_purge_fm_pair@Base 8.61.dfsg.1
 gs_purge_font@Base 8.61.dfsg.1
 gs_purge_font_from_char_caches@Base 8.61.dfsg.1
 gs_purge_font_from_char_caches_completely@Base 8.61.dfsg.1
 gs_purge_scratch_files@Base 9.53.0~dfsg
 gs_push_boolean@Base 8.61.dfsg.1
 gs_push_integer@Base 8.61.dfsg.1
 gs_push_pdf14trans_device@Base 8.61.dfsg.1
 gs_push_real@Base 8.61.dfsg.1
 gs_push_string@Base 8.61.dfsg.1
 gs_push_transparency_state@Base 8.71~dfsg
 gs_putdeviceparams@Base 8.61.dfsg.1
 gs_putdevparams@Base 8.61.dfsg.1
 gs_pwgraster_device@Base 9.15~dfsg
 gs_pxlcolor_device@Base 8.61.dfsg.1
 gs_pxlmono_device@Base 8.61.dfsg.1
 gs_r4081_device@Base 8.61.dfsg.1
 gs_raw_alloc_struct_immovable@Base 8.61.dfsg.1
 gs_rcurveto@Base 8.61.dfsg.1
 gs_realloc@Base 8.61.dfsg.1
 gs_rectappend@Base 8.61.dfsg.1
 gs_rectclip@Base 8.61.dfsg.1
 gs_rectfill@Base 8.61.dfsg.1
 gs_rectstroke@Base 8.61.dfsg.1
 gs_ref_memory_procs@Base 8.61.dfsg.1
 gs_register_ref_root@Base 8.61.dfsg.1
 gs_register_struct_root@Base 8.61.dfsg.1
 gs_remove_control_path@Base 9.28~~rc1~dfsg
 gs_remove_control_path_flags@Base 9.53.0~dfsg
 gs_remove_control_path_len@Base 9.28~~rc1~dfsg
 gs_remove_control_path_len_flags@Base 9.53.0~dfsg
 gs_remove_fs@Base 9.28~~rc1~dfsg
 gs_remove_outputfile_control_path@Base 9.28~~rc4~dfsg
 gs_resize_ref_array@Base 8.61.dfsg.1
 gs_resize_struct_array@Base 8.61.dfsg.1
 gs_return_check_interrupt@Base 8.61.dfsg.1
 gs_reversepath@Base 8.61.dfsg.1
 gs_revision@Base 8.61.dfsg.1
 gs_revision_number@Base 8.61.dfsg.1
 gs_revisiondate@Base 8.61.dfsg.1
 gs_rinkj_device@Base 8.63.dfsg.1
 gs_rlineto@Base 8.61.dfsg.1
 gs_rmoveto@Base 8.61.dfsg.1
 gs_romfs@Base 8.62.dfsg.1
 gs_romfs_buildtime@Base 9.18~dfsg
 gs_rootfont@Base 8.61.dfsg.1
 gs_rotate@Base 8.61.dfsg.1
 gs_rpdl_device@Base 8.61.dfsg.1
 gs_samsunggdi_device@Base 8.61.dfsg.1
 gs_save_any_memory@Base 9.00~dfsg
 gs_scale@Base 8.61.dfsg.1
 gs_scalefont@Base 8.61.dfsg.1
 gs_scan_comment_proc@Base 9.01~
 gs_scan_dsc_proc@Base 9.01~
 gs_scan_handle_refill@Base 9.01~
 gs_scan_string_token_options@Base 9.01~
 gs_scan_token@Base 9.01~
 gs_scanner_error_object@Base 9.01~
 gs_scanner_init_options@Base 9.01~
 gs_scanner_init_stream_options@Base 9.01~
 gs_screen_currentpoint@Base 8.61.dfsg.1
 gs_screen_enum_alloc@Base 8.61.dfsg.1
 gs_screen_enum_init_memory@Base 8.61.dfsg.1
 gs_screen_init@Base 8.61.dfsg.1
 gs_screen_init_memory@Base 8.61.dfsg.1
 gs_screen_install@Base 8.61.dfsg.1
 gs_screen_next@Base 8.61.dfsg.1
 gs_screen_order_alloc@Base 8.61.dfsg.1
 gs_screen_order_init_memory@Base 8.61.dfsg.1
 gs_serialnumber@Base 8.61.dfsg.1
 gs_setPDFfontsize@Base 9.25~dfsg
 gs_set_currentfont@Base 8.61.dfsg.1
 gs_set_logical_op@Base 8.61.dfsg.1
 gs_setaccuratecurves@Base 8.61.dfsg.1
 gs_setaccuratescreens@Base 8.61.dfsg.1
 gs_setaligntopixels@Base 8.61.dfsg.1
 gs_setalphaisshape@Base 9.22~dfsg
 gs_setbbox@Base 8.61.dfsg.1
 gs_setblackgeneration@Base 8.61.dfsg.1
 gs_setblackgeneration_remap@Base 8.61.dfsg.1
 gs_setblackptcomp@Base 9.10~dfsg
 gs_setblendmode@Base 8.61.dfsg.1
 gs_setcachedevice2_double@Base 8.61.dfsg.1
 gs_setcachedevice2_float@Base 8.61.dfsg.1
 gs_setcachedevice_double@Base 8.61.dfsg.1
 gs_setcachedevice_float@Base 8.61.dfsg.1
 gs_setcachelower@Base 8.61.dfsg.1
 gs_setcachesize@Base 8.61.dfsg.1
 gs_setcacheupper@Base 8.61.dfsg.1
 gs_setcharmatrix@Base 8.61.dfsg.1
 gs_setcharwidth@Base 8.61.dfsg.1
 gs_setcmykcolor@Base 8.61.dfsg.1
 gs_setcolor@Base 8.61.dfsg.1
 gs_setcolorrendering@Base 8.61.dfsg.1
 gs_setcolorscreen@Base 8.61.dfsg.1
 gs_setcolorspace@Base 8.61.dfsg.1
 gs_setcolorspace_only@Base 9.00~dfsg
 gs_setcolortransfer@Base 8.61.dfsg.1
 gs_setcolortransfer_remap@Base 8.61.dfsg.1
 gs_setcpsimode@Base 9.00~dfsg
 gs_setcurvejoin@Base 8.61.dfsg.1
 gs_setdash@Base 8.61.dfsg.1
 gs_setdashadapt@Base 8.61.dfsg.1
 gs_setdefaultcmykicc@Base 9.06~dfsg
 gs_setdefaultgrayicc@Base 9.06~dfsg
 gs_setdefaultmatrix@Base 8.61.dfsg.1
 gs_setdefaultrgbicc@Base 9.06~dfsg
 gs_setdevice@Base 8.61.dfsg.1
 gs_setdevice_no_erase@Base 8.61.dfsg.1
 gs_setdevice_no_init@Base 8.61.dfsg.1
 gs_setdevicenprofileicc@Base 9.06~dfsg
 gs_setdotlength@Base 8.61.dfsg.1
 gs_setdotorientation@Base 8.61.dfsg.1
 gs_setfilladjust@Base 8.61.dfsg.1
 gs_setfillconstantalpha@Base 9.22~dfsg
 gs_setfilloverprint@Base 9.22~dfsg
 gs_setflat@Base 8.61.dfsg.1
 gs_setfont@Base 8.61.dfsg.1
 gs_setgray@Base 8.61.dfsg.1
 gs_setgridfittt@Base 8.61.dfsg.1
 gs_setgstate@Base 8.61.dfsg.1
 gs_sethalftone@Base 8.61.dfsg.1
 gs_sethalftone_allocated@Base 8.61.dfsg.1
 gs_sethalftone_prepare@Base 8.61.dfsg.1
 gs_sethpglpathmode@Base 9.06~dfsg
 gs_seticcdirectory@Base 9.06~dfsg
 gs_setlabicc@Base 9.06~dfsg
 gs_setlimitclamp@Base 8.61.dfsg.1
 gs_setlinecap@Base 8.61.dfsg.1
 gs_setlinedashcap@Base 8.71~dfsg
 gs_setlineendcap@Base 8.71~dfsg
 gs_setlinejoin@Base 8.61.dfsg.1
 gs_setlinestartcap@Base 8.71~dfsg
 gs_setlinewidth@Base 8.61.dfsg.1
 gs_setmatrix@Base 8.61.dfsg.1
 gs_setminscreenlevels@Base 8.61.dfsg.1
 gs_setmiterlimit@Base 8.61.dfsg.1
 gs_setnamedprofileicc@Base 9.06~dfsg
 gs_setnullcolor@Base 8.61.dfsg.1
 gs_setoverprint@Base 8.61.dfsg.1
 gs_setoverprintmode@Base 8.61.dfsg.1
 gs_setoverrideicc@Base 9.04~dfsg
 gs_setpattern@Base 8.61.dfsg.1
 gs_setpatternspace@Base 8.61.dfsg.1
 gs_setrasterop@Base 8.71~dfsg
 gs_setrenderingintent@Base 8.61.dfsg.1
 gs_setrgbcolor@Base 8.61.dfsg.1
 gs_setscanconverter@Base 9.20~dfsg
 gs_setscreen@Base 8.61.dfsg.1
 gs_setscreenphase@Base 8.61.dfsg.1
 gs_setsmoothness@Base 8.61.dfsg.1
 gs_setsourcetransparent@Base 8.71~dfsg
 gs_setsrcgtagicc@Base 9.06~dfsg
 gs_setstrokeadjust@Base 8.61.dfsg.1
 gs_setstrokeconstantalpha@Base 9.22~dfsg
 gs_setstrokeoverprint@Base 9.22~dfsg
 gs_settexthscaling@Base 9.22~dfsg
 gs_settextknockout@Base 8.61.dfsg.1
 gs_settextleading@Base 9.22~dfsg
 gs_settextlinematrix@Base 9.22~dfsg
 gs_settextmatrix@Base 9.22~dfsg
 gs_settextrenderingmode@Base 8.61.dfsg.1
 gs_settextrise@Base 9.22~dfsg
 gs_settextspacing@Base 9.22~dfsg
 gs_settexturetransparent@Base 8.71~dfsg
 gs_settocharmatrix@Base 8.61.dfsg.1
 gs_settransfer@Base 8.61.dfsg.1
 gs_settransfer_remap@Base 8.61.dfsg.1
 gs_setundercolorremoval@Base 8.61.dfsg.1
 gs_setundercolorremoval_remap@Base 8.61.dfsg.1
 gs_setwordspacing@Base 9.22~dfsg
 gs_shading_A_fill_rectangle@Base 8.61.dfsg.1
 gs_shading_A_init@Base 8.61.dfsg.1
 gs_shading_A_params_init@Base 8.61.dfsg.1
 gs_shading_Cp_fill_rectangle@Base 8.61.dfsg.1
 gs_shading_Cp_init@Base 8.61.dfsg.1
 gs_shading_Cp_params_init@Base 8.61.dfsg.1
 gs_shading_Fb_fill_rectangle@Base 8.61.dfsg.1
 gs_shading_Fb_init@Base 8.61.dfsg.1
 gs_shading_Fb_params_init@Base 8.61.dfsg.1
 gs_shading_FfGt_fill_rectangle@Base 8.61.dfsg.1
 gs_shading_FfGt_init@Base 8.61.dfsg.1
 gs_shading_FfGt_params_init@Base 8.61.dfsg.1
 gs_shading_LfGt_fill_rectangle@Base 8.61.dfsg.1
 gs_shading_LfGt_init@Base 8.61.dfsg.1
 gs_shading_LfGt_params_init@Base 8.61.dfsg.1
 gs_shading_R_fill_rectangle@Base 8.61.dfsg.1
 gs_shading_R_init@Base 8.61.dfsg.1
 gs_shading_R_params_init@Base 8.61.dfsg.1
 gs_shading_Tpp_fill_rectangle@Base 8.61.dfsg.1
 gs_shading_Tpp_init@Base 8.61.dfsg.1
 gs_shading_Tpp_params_init@Base 8.61.dfsg.1
 gs_shading_do_fill_rectangle@Base 8.61.dfsg.1
 gs_shading_path_add_box@Base 8.61.dfsg.1
 gs_shfill@Base 8.61.dfsg.1
 gs_show_begin@Base 8.61.dfsg.1
 gs_show_current_char@Base 8.61.dfsg.1
 gs_show_current_font@Base 8.61.dfsg.1
 gs_show_current_glyph@Base 8.61.dfsg.1
 gs_show_current_width@Base 8.61.dfsg.1
 gs_show_enum_alloc@Base 8.61.dfsg.1
 gs_show_enum_release@Base 8.61.dfsg.1
 gs_show_in_charpath@Base 8.61.dfsg.1
 gs_show_next@Base 8.61.dfsg.1
 gs_show_width@Base 8.61.dfsg.1
 gs_show_width_only@Base 8.61.dfsg.1
 gs_sin_degrees@Base 8.61.dfsg.1
 gs_sincos_degrees@Base 8.61.dfsg.1
 gs_sj48_device@Base 8.61.dfsg.1
 gs_snprintf@Base 9.10~dfsg
 gs_spotcmyk_device@Base 8.61.dfsg.1
 gs_sprintf@Base 9.10~dfsg
 gs_sqrt@Base 8.61.dfsg.1
 gs_st800_device@Base 8.61.dfsg.1
 gs_stcolor_device@Base 8.61.dfsg.1
 gs_stringwidth_begin@Base 8.61.dfsg.1
 gs_strlcat@Base 9.20~dfsg
 gs_strlcpy@Base 9.20~dfsg
 gs_stroke@Base 8.61.dfsg.1
 gs_strokepath2@Base 8.71~dfsg
 gs_strokepath@Base 8.61.dfsg.1
 gs_strtok@Base 9.18~dfsg
 gs_struct_type_name@Base 8.61.dfsg.1
 gs_struct_type_size@Base 8.61.dfsg.1
 gs_swapcolors_quick@Base 8.71~dfsg-4~
 gs_sxlcrt_device@Base 8.61.dfsg.1
 gs_t4693d2_device@Base 8.61.dfsg.1
 gs_t4693d4_device@Base 8.61.dfsg.1
 gs_t4693d8_device@Base 8.61.dfsg.1
 gs_tek4696_device@Base 8.61.dfsg.1
 gs_terminate_file_name@Base 8.61.dfsg.1
 gs_text_begin@Base 8.61.dfsg.1
 gs_text_count_chars@Base 8.61.dfsg.1
 gs_text_current_char@Base 8.61.dfsg.1
 gs_text_current_font@Base 8.61.dfsg.1
 gs_text_current_glyph@Base 8.61.dfsg.1
 gs_text_current_width@Base 8.61.dfsg.1
 gs_text_enum_alloc@Base 9.19~~rc1~dfsg
 gs_text_enum_copy_dynamic@Base 8.61.dfsg.1
 gs_text_enum_init@Base 8.61.dfsg.1
 gs_text_is_width_only@Base 8.61.dfsg.1
 gs_text_next_char@Base 8.61.dfsg.1
 gs_text_process@Base 8.61.dfsg.1
 gs_text_release@Base 8.61.dfsg.1
 gs_text_replaced_width@Base 8.61.dfsg.1
 gs_text_restart@Base 8.61.dfsg.1
 gs_text_resync@Base 8.61.dfsg.1
 gs_text_retry@Base 8.61.dfsg.1
 gs_text_set_cache@Base 8.61.dfsg.1
 gs_text_setcachedevice2@Base 8.61.dfsg.1
 gs_text_setcachedevice@Base 8.61.dfsg.1
 gs_text_setcharwidth@Base 8.61.dfsg.1
 gs_text_total_width@Base 8.61.dfsg.1
 gs_text_update_dev_color@Base 8.61.dfsg.1
 gs_throw_imp@Base 8.61.dfsg.1
 gs_tiff12nc_device@Base 8.61.dfsg.1
 gs_tiff24nc_device@Base 8.61.dfsg.1
 gs_tiff32nc_device@Base 8.61.dfsg.1
 gs_tiff48nc_device@Base 8.71~dfsg
 gs_tiff64nc_device@Base 8.71~dfsg
 gs_tiffcrle_device@Base 8.61.dfsg.1
 gs_tiffg32d_device@Base 8.61.dfsg.1
 gs_tiffg3_device@Base 8.61.dfsg.1
 gs_tiffg4_device@Base 8.61.dfsg.1
 gs_tiffgray_device@Base 8.61.dfsg.1
 gs_tifflzw_device@Base 8.61.dfsg.1
 gs_tiffpack_device@Base 8.61.dfsg.1
 gs_tiffscaled24_device@Base 9.04~dfsg
 gs_tiffscaled32_device@Base 9.10~dfsg
 gs_tiffscaled4_device@Base 9.10~dfsg
 gs_tiffscaled8_device@Base 9.04~dfsg
 gs_tiffscaled_device@Base 9.01~
 gs_tiffsep1_device@Base 8.71~dfsg
 gs_tiffsep_device@Base 8.61.dfsg.1
 gs_to_exit@Base 8.61.dfsg.1
 gs_to_exit_with_code@Base 8.61.dfsg.1
 gs_trans_group_params_init@Base 8.61.dfsg.1
 gs_trans_mask_params_init@Base 8.61.dfsg.1
 gs_transform@Base 8.61.dfsg.1
 gs_translate@Base 8.61.dfsg.1
 gs_translate_untransformed@Base 9.05~
 gs_truetype_font_info@Base 8.61.dfsg.1
 gs_txtwrite_device@Base 9.05~
 gs_type0_define_font@Base 8.61.dfsg.1
 gs_type0_init_fstack@Base 8.61.dfsg.1
 gs_type0_make_font@Base 8.61.dfsg.1
 gs_type0_next_char_glyph@Base 8.61.dfsg.1
 gs_type1_blend@Base 8.61.dfsg.1
 gs_type1_check_float@Base 8.61.dfsg.1
 gs_type1_decrypt@Base 8.61.dfsg.1
 gs_type1_encrypt@Base 8.61.dfsg.1
 gs_type1_endchar@Base 8.61.dfsg.1
 gs_type1_finish_init@Base 8.61.dfsg.1
 gs_type1_glyph_info@Base 8.61.dfsg.1
 gs_type1_interp_init@Base 8.61.dfsg.1
 gs_type1_interpret@Base 8.61.dfsg.1
 gs_type1_piece_codes@Base 8.61.dfsg.1
 gs_type1_sbw@Base 8.61.dfsg.1
 gs_type1_seac@Base 8.61.dfsg.1
 gs_type1_set_callback_data@Base 8.61.dfsg.1
 gs_type1_set_lsb@Base 8.61.dfsg.1
 gs_type1_set_width@Base 8.61.dfsg.1
 gs_type2_interpret@Base 8.61.dfsg.1
 gs_type42_append@Base 8.61.dfsg.1
 gs_type42_default_get_metrics@Base 8.61.dfsg.1
 gs_type42_enumerate_glyph@Base 8.61.dfsg.1
 gs_type42_find_post_name@Base 9.28~~rc1~dfsg
 gs_type42_font_info@Base 8.61.dfsg.1
 gs_type42_font_init@Base 8.61.dfsg.1
 gs_type42_get_metrics@Base 8.61.dfsg.1
 gs_type42_get_outline_from_TT_file@Base 8.61.dfsg.1
 gs_type42_glyph_info@Base 8.61.dfsg.1
 gs_type42_glyph_info_by_gid@Base 8.61.dfsg.1
 gs_type42_glyph_outline@Base 8.61.dfsg.1
 gs_type42_parse_component@Base 8.71~dfsg
 gs_type42_read_data@Base 8.61.dfsg.1
 gs_type42_substitute_glyph_index_vertical@Base 8.64~dfsg
 gs_uniprint_device@Base 8.61.dfsg.1
 gs_upathbbox@Base 8.61.dfsg.1
 gs_update_trans_marking_params@Base 9.04~dfsg
 gs_updatematrices@Base 9.55.0~dfsg
 gs_upmergepath@Base 8.61.dfsg.1
 gs_vsnprintf@Base 9.10~dfsg
 gs_vsprintf@Base 9.10~dfsg
 gs_widthshow_begin@Base 8.61.dfsg.1
 gs_woff2sfnt_buffer@Base 9.19~~rc1~dfsg
 gs_woff2sfnt_stream@Base 9.19~~rc1~dfsg
 gs_xcf_device@Base 8.61.dfsg.1
 gs_xcfcmyk_device@Base 8.61.dfsg.1
 gs_xes_device@Base 8.61.dfsg.1
 gs_xpswrite_device@Base 9.10~dfsg
 gs_xyshow_begin@Base 8.61.dfsg.1
 gsapi_activate_path_control@Base 9.28~~rc1~dfsg
 gsapi_add_control_path@Base 9.28~~rc1~dfsg
 gsapi_add_fs@Base 9.28~~rc1~dfsg
 gsapi_delete_instance@Base 8.61.dfsg.1
 gsapi_deregister_callout@Base 9.53.0~dfsg
 gsapi_enumerate_params@Base 9.53.0~dfsg
 gsapi_exit@Base 8.61.dfsg.1
 gsapi_get_default_device_list@Base 9.15~dfsg
 gsapi_get_param@Base 9.53.0~dfsg
 gsapi_init_with_args@Base 8.61.dfsg.1
 gsapi_is_path_control_active@Base 9.28~~rc1~dfsg
 gsapi_new_instance@Base 8.61.dfsg.1
 gsapi_purge_control_paths@Base 9.28~~rc1~dfsg
 gsapi_register_callout@Base 9.53.0~dfsg
 gsapi_remove_control_path@Base 9.28~~rc1~dfsg
 gsapi_remove_fs@Base 9.28~~rc1~dfsg
 gsapi_revision@Base 8.61.dfsg.1
 gsapi_run_file@Base 8.61.dfsg.1
 gsapi_run_string@Base 8.61.dfsg.1
 gsapi_run_string_begin@Base 8.61.dfsg.1
 gsapi_run_string_continue@Base 8.61.dfsg.1
 gsapi_run_string_end@Base 8.61.dfsg.1
 gsapi_run_string_with_length@Base 8.61.dfsg.1
 gsapi_set_arg_encoding@Base 9.10~dfsg
 gsapi_set_default_device_list@Base 9.15~dfsg
 gsapi_set_display_callback@Base 8.61.dfsg.1
 gsapi_set_param@Base 9.28~~rc1~dfsg
 gsapi_set_poll@Base 8.61.dfsg.1
 gsapi_set_poll_with_handle@Base 9.53.0~dfsg
 gsapi_set_stdio@Base 8.61.dfsg.1
 gsapi_set_stdio_with_handle@Base 9.53.0~dfsg
 gsbittab_dummy@Base 8.61.dfsg.1
 gscms_avoid_white_fix_flag@Base 9.15~dfsg
 gscms_create@Base 9.00~dfsg
 gscms_destroy@Base 9.00~dfsg
 gscms_get_clrtname@Base 9.00~dfsg
 gscms_get_device_class@Base 9.15~dfsg
 gscms_get_input_channel_count@Base 9.00~dfsg
 gscms_get_link@Base 9.00~dfsg
 gscms_get_link_dim@Base 9.10~dfsg
 gscms_get_link_proof_devlink@Base 9.05~
 gscms_get_name2device_link@Base 9.00~dfsg
 gscms_get_numberclrtnames@Base 9.00~dfsg
 gscms_get_output_channel_count@Base 9.00~dfsg
 gscms_get_profile_data_space@Base 9.00~dfsg
 gscms_get_profile_handle_file@Base 9.00~dfsg
 gscms_get_profile_handle_mem@Base 9.00~dfsg
 gscms_is_device_link@Base 9.10~dfsg
 gscms_is_input@Base 9.15~dfsg
 gscms_is_threadsafe@Base 9.25~dfsg
 gscms_release_link@Base 9.00~dfsg
 gscms_release_profile@Base 9.00~dfsg
 gscms_transform_color@Base 9.00~dfsg
 gscms_transform_color_buffer@Base 9.00~dfsg
 gscms_transform_color_const@Base 9.55.0~dfsg
 gscms_transform_named_color@Base 9.00~dfsg
 gsicc_add_cs@Base 9.00~dfsg
 gsicc_adjust_profile_rc@Base 9.25~dfsg
 gsicc_alloc_link_dev@Base 9.18~dfsg
 gsicc_alloc_link_entry@Base 9.05~
 gsicc_blacktext_state_new@Base 9.54.0~dfsg
 gsicc_cache_new@Base 9.00~dfsg
 gsicc_clone_profile@Base 9.19~~rc1~dfsg
 gsicc_create_from_cal@Base 9.00~dfsg
 gsicc_create_froma@Base 9.00~dfsg
 gsicc_create_fromabc@Base 9.00~dfsg
 gsicc_create_fromcrd@Base 9.00~dfsg
 gsicc_create_fromdef@Base 9.00~dfsg
 gsicc_create_fromdefg@Base 9.00~dfsg
 gsicc_create_getv2buffer@Base 9.15~dfsg
 gsicc_currentcoloraccuracy@Base 9.25~dfsg
 gsicc_extract_profile@Base 9.04~dfsg
 gsicc_find_cs@Base 9.00~dfsg
 gsicc_findcachelink@Base 9.05~
 gsicc_finddevicen@Base 9.00~dfsg
 gsicc_free_link_dev@Base 9.18~dfsg
 gsicc_get_default_type@Base 9.00~dfsg
 gsicc_get_dev_icccolorants@Base 9.10~dfsg
 gsicc_get_device_class@Base 9.15~dfsg
 gsicc_get_device_profile_comps@Base 9.05~
 gsicc_get_gscs_profile@Base 9.00~dfsg
 gsicc_get_hash@Base 9.16~dfsg
 gsicc_get_icc_buff_hash@Base 9.00~dfsg
 gsicc_get_link@Base 9.00~dfsg
 gsicc_get_link_profile@Base 9.00~dfsg
 gsicc_get_profile_handle_buffer@Base 9.00~dfsg
 gsicc_get_profile_handle_clist@Base 9.00~dfsg
 gsicc_get_profile_handle_file@Base 9.00~dfsg
 gsicc_getprofilesize@Base 9.00~dfsg
 gsicc_getprofilevers@Base 9.25~dfsg
 gsicc_getsrc_channel_count@Base 9.00~dfsg
 gsicc_init_buffer@Base 9.00~dfsg
 gsicc_init_device_profile_struct@Base 9.04~dfsg
 gsicc_init_gs_colors@Base 9.01~
 gsicc_init_hash_cs@Base 9.00~dfsg
 gsicc_init_iccmanager@Base 9.00~dfsg
 gsicc_init_profile_info@Base 9.00~dfsg
 gsicc_initialize_default_profile@Base 9.06~dfsg
 gsicc_initialize_iccsmask@Base 9.00~dfsg
 gsicc_is_default_profile@Base 9.28~~rc1~dfsg
 gsicc_link_free@Base 9.05~
 gsicc_manager_new@Base 9.00~dfsg
 gsicc_mcm_begin_monitor@Base 9.10~dfsg
 gsicc_mcm_end_monitor@Base 9.10~dfsg
 gsicc_mcm_monitor_cmyk@Base 9.10~dfsg
 gsicc_mcm_monitor_lab@Base 9.10~dfsg
 gsicc_mcm_monitor_rgb@Base 9.10~dfsg
 gsicc_mcm_set_link@Base 9.10~dfsg
 gsicc_new_device_profile_array@Base 9.04~dfsg
 gsicc_new_iccsmask@Base 9.00~dfsg
 gsicc_nocm_get_link@Base 9.05~
 gsicc_open_search@Base 9.27~dfsg
 gsicc_profile_from_ps@Base 9.15~dfsg
 gsicc_profile_new@Base 9.00~dfsg
 gsicc_profile_serialize@Base 9.00~dfsg
 gsicc_profilecache_new@Base 9.00~dfsg
 gsicc_profiles_equal@Base 9.54.0~dfsg
 gsicc_rcm_get_link@Base 9.10~dfsg
 gsicc_read_serial_icc@Base 9.00~dfsg
 gsicc_release_link@Base 9.00~dfsg
 gsicc_restore_black_text@Base 9.54.0~dfsg
 gsicc_set_device_blackpreserve@Base 9.10~dfsg
 gsicc_set_device_blackptcomp@Base 9.10~dfsg
 gsicc_set_device_profile@Base 9.04~dfsg
 gsicc_set_device_profile_colorants@Base 9.10~dfsg
 gsicc_set_device_profile_intent@Base 9.04~dfsg
 gsicc_set_devicen_equiv_colors@Base 9.10~dfsg
 gsicc_set_gscs_profile@Base 9.00~dfsg
 gsicc_set_icc_range@Base 9.21~dfsg
 gsicc_set_iccsmaskprofile@Base 9.04~dfsg
 gsicc_set_profile@Base 9.00~dfsg
 gsicc_setcoloraccuracy@Base 9.25~dfsg
 gsicc_setrange_lab@Base 9.05~
 gsicc_support_named_color@Base 9.28~~rc1~dfsg
 gsicc_transform_named_color@Base 9.00~dfsg
 gsicc_use_fast_color@Base 9.51~dfsg
 gstate_pattern_cache@Base 8.61.dfsg.1
 gstate_set_pattern_cache@Base 8.61.dfsg.1
 gx_abort_trans_device@Base 9.15~dfsg
 gx_add_cached_char@Base 8.61.dfsg.1
 gx_add_char_bits@Base 8.61.dfsg.1
 gx_add_fm_pair@Base 8.61.dfsg.1
 gx_alloc_char_bits@Base 8.61.dfsg.1
 gx_alloc_rop_texture_device@Base 8.61.dfsg.1
 gx_backwards_compatible_gray_encode@Base 8.61.dfsg.1
 gx_begin_image1@Base 8.61.dfsg.1
 gx_begin_image3_generic@Base 8.61.dfsg.1
 gx_begin_image3x_generic@Base 8.61.dfsg.1
 gx_begin_transparency_group@Base 8.61.dfsg.1
 gx_begin_transparency_mask@Base 8.61.dfsg.1
 gx_bits_cache_alloc@Base 8.61.dfsg.1
 gx_bits_cache_chunk_init@Base 8.61.dfsg.1
 gx_bits_cache_free@Base 8.61.dfsg.1
 gx_bits_cache_init@Base 8.61.dfsg.1
 gx_bits_cache_shorten@Base 8.61.dfsg.1
 gx_blank_get_bits_rectangle@Base 9.55.0~dfsg
 gx_blend_image_buffer16@Base 9.27~dfsg
 gx_blend_image_buffer8to16@Base 9.28~~rc1~dfsg
 gx_blend_image_buffer@Base 9.01~
 gx_build_blended_image_row16@Base 9.28~~rc1~dfsg
 gx_build_blended_image_row@Base 8.64~dfsg
 gx_build_cie_space@Base 8.61.dfsg.1
 gx_callout@Base 9.53.0~dfsg
 gx_change_color_model@Base 9.25~dfsg
 gx_char_cache_alloc@Base 8.61.dfsg.1
 gx_char_cache_init@Base 8.61.dfsg.1
 gx_check_fixed_diff_overflow@Base 8.61.dfsg.1
 gx_check_fixed_sum_overflow@Base 8.61.dfsg.1
 gx_cie_check_rendering@Base 8.61.dfsg.1
 gx_cie_common_complete@Base 8.61.dfsg.1
 gx_cie_load_common_cache@Base 8.61.dfsg.1
 gx_cie_real_remap_finish@Base 8.61.dfsg.1
 gx_cie_remap_finish@Base 8.61.dfsg.1
 gx_cie_to_xyz_alloc@Base 8.61.dfsg.1
 gx_cie_to_xyz_free@Base 8.61.dfsg.1
 gx_cie_xyz_remap_finish@Base 8.61.dfsg.1
 gx_clip_list_free@Base 8.61.dfsg.1
 gx_clip_list_init@Base 8.61.dfsg.1
 gx_clip_to_path@Base 8.61.dfsg.1
 gx_clip_to_rectangle@Base 8.61.dfsg.1
 gx_color_frac_map@Base 8.61.dfsg.1
 gx_color_index2usage@Base 9.06~dfsg
 gx_color_info_equal@Base 9.21~dfsg
 gx_color_interpolate_linear@Base 8.61.dfsg.1
 gx_color_interpolate_nearest@Base 8.61.dfsg.1
 gx_color_space_needs_cie_caches@Base 8.61.dfsg.1
 gx_complete_halftone@Base 8.61.dfsg.1
 gx_compute_ccache_key@Base 8.61.dfsg.1
 gx_compute_cell_values@Base 8.61.dfsg.1
 gx_compute_char_matrix@Base 8.61.dfsg.1
 gx_compute_text_oversampling@Base 8.61.dfsg.1
 gx_concrete_space_CIE@Base 8.61.dfsg.1
 gx_concretize_CIEA@Base 8.61.dfsg.1
 gx_concretize_CIEABC@Base 8.61.dfsg.1
 gx_concretize_CIEDEF@Base 8.61.dfsg.1
 gx_concretize_CIEDEFG@Base 8.61.dfsg.1
 gx_concretize_DeviceCMYK@Base 8.61.dfsg.1
 gx_concretize_DeviceGray@Base 8.61.dfsg.1
 gx_concretize_DeviceRGB@Base 8.61.dfsg.1
 gx_copy_alpha_unaligned@Base 8.61.dfsg.1
 gx_copy_color_unaligned@Base 8.61.dfsg.1
 gx_copy_device_procs@Base 9.18~dfsg
 gx_copy_mono_unaligned@Base 8.61.dfsg.1
 gx_cpath_accum_begin@Base 8.61.dfsg.1
 gx_cpath_accum_discard@Base 8.61.dfsg.1
 gx_cpath_accum_end@Base 8.61.dfsg.1
 gx_cpath_accum_set_cbox@Base 8.61.dfsg.1
 gx_cpath_alloc_shared@Base 8.61.dfsg.1
 gx_cpath_assign_free@Base 8.61.dfsg.1
 gx_cpath_assign_preserve@Base 8.61.dfsg.1
 gx_cpath_clip@Base 8.61.dfsg.1
 gx_cpath_copy@Base 8.61.dfsg.1
 gx_cpath_ensure_path_list@Base 9.22~dfsg
 gx_cpath_enum_init@Base 8.61.dfsg.1
 gx_cpath_enum_next@Base 8.61.dfsg.1
 gx_cpath_enum_notes@Base 8.61.dfsg.1
 gx_cpath_free@Base 8.61.dfsg.1
 gx_cpath_from_rectangle@Base 8.61.dfsg.1
 gx_cpath_includes_rectangle@Base 8.61.dfsg.1
 gx_cpath_init_contained_shared@Base 8.61.dfsg.1
 gx_cpath_init_local_shared@Base 8.61.dfsg.1
 gx_cpath_init_local_shared_nested@Base 9.05~
 gx_cpath_inner_box@Base 8.61.dfsg.1
 gx_cpath_intersect@Base 8.61.dfsg.1
 gx_cpath_intersect_path_slow@Base 8.61.dfsg.1
 gx_cpath_intersect_with_params@Base 8.61.dfsg.1
 gx_cpath_list@Base 8.61.dfsg.1
 gx_cpath_outer_box@Base 8.61.dfsg.1
 gx_cpath_rect_visible@Base 8.61.dfsg.1
 gx_cpath_reset@Base 8.61.dfsg.1
 gx_cpath_scale_exp2_shared@Base 8.61.dfsg.1
 gx_cpath_set_outer_box@Base 8.61.dfsg.1
 gx_cpath_to_path@Base 8.61.dfsg.1
 gx_cpath_to_path_synthesize@Base 8.61.dfsg.1
 gx_cpath_unshare@Base 8.61.dfsg.1
 gx_cspace_is_linear_default@Base 8.61.dfsg.1
 gx_cspace_no_linear@Base 8.61.dfsg.1
 gx_curr_bbox@Base 9.06~dfsg
 gx_curr_fixed_bbox@Base 9.51~dfsg
 gx_current_char@Base 8.61.dfsg.1
 gx_current_path@Base 8.61.dfsg.1
 gx_curve_log2_samples@Base 8.61.dfsg.1
 gx_curve_monotonic_points@Base 8.61.dfsg.1
 gx_curve_monotonize@Base 8.61.dfsg.1
 gx_dc_binary_masked@Base 8.61.dfsg.1
 gx_dc_binary_masked_fill_rect@Base 8.61.dfsg.1
 gx_dc_cannot_read@Base 8.63.dfsg.1
 gx_dc_cannot_write@Base 8.63.dfsg.1
 gx_dc_colored_masked@Base 8.61.dfsg.1
 gx_dc_colored_masked_fill_rect@Base 8.61.dfsg.1
 gx_dc_default_fill_masked@Base 8.61.dfsg.1
 gx_dc_devn_fill_masked@Base 9.06~dfsg
 gx_dc_devn_get_nonzero_comps@Base 9.06~dfsg
 gx_dc_devn_masked@Base 9.06~dfsg
 gx_dc_devn_masked_fill_rect@Base 9.06~dfsg
 gx_dc_ht_binary_get_nonzero_comps@Base 8.61.dfsg.1
 gx_dc_ht_colored_get_nonzero_comps@Base 8.61.dfsg.1
 gx_dc_ht_get_phase@Base 8.61.dfsg.1
 gx_dc_is_pattern1_color@Base 8.61.dfsg.1
 gx_dc_is_pattern1_color_clist_based@Base 8.63.dfsg.1
 gx_dc_is_pattern1_color_with_trans@Base 9.06~dfsg
 gx_dc_is_pattern2_color@Base 8.61.dfsg.1
 gx_dc_no_get_phase@Base 8.61.dfsg.1
 gx_dc_pat_trans_fill_rectangle@Base 9.00~dfsg
 gx_dc_pattern2@Base 8.61.dfsg.1
 gx_dc_pattern2_can_overlap@Base 8.61.dfsg.1
 gx_dc_pattern2_clip_with_bbox@Base 8.71~dfsg
 gx_dc_pattern2_clip_with_bbox_simple@Base 8.62.dfsg.1
 gx_dc_pattern2_color_has_bbox@Base 8.61.dfsg.1
 gx_dc_pattern2_get_bbox@Base 8.61.dfsg.1
 gx_dc_pattern2_get_color_space@Base 8.61.dfsg.1
 gx_dc_pattern2_has_background@Base 8.61.dfsg.1
 gx_dc_pattern2_is_rectangular_cell@Base 8.62.dfsg.1
 gx_dc_pattern2_shade_bbox_transform2fixed@Base 8.61.dfsg.1
 gx_dc_pattern@Base 8.61.dfsg.1
 gx_dc_pattern_fill_rectangle@Base 8.61.dfsg.1
 gx_dc_pattern_get_nonzero_comps@Base 8.61.dfsg.1
 gx_dc_pattern_read@Base 8.61.dfsg.1
 gx_dc_pattern_save_dc@Base 8.61.dfsg.1
 gx_dc_pattern_trans@Base 9.00~dfsg
 gx_dc_pattern_write@Base 8.61.dfsg.1
 gx_dc_pure_get_nonzero_comps@Base 8.61.dfsg.1
 gx_dc_pure_masked@Base 8.61.dfsg.1
 gx_dc_pure_masked_fill_rect@Base 8.61.dfsg.1
 gx_dc_read_color@Base 8.61.dfsg.1
 gx_dc_type_data_devn@Base 9.06~dfsg
 gx_dc_type_data_ht_binary@Base 8.61.dfsg.1
 gx_dc_type_data_ht_colored@Base 8.61.dfsg.1
 gx_dc_type_data_none@Base 8.61.dfsg.1
 gx_dc_type_data_null@Base 8.61.dfsg.1
 gx_dc_type_data_pure@Base 8.61.dfsg.1
 gx_dc_type_devn@Base 9.06~dfsg
 gx_dc_type_ht_binary@Base 8.61.dfsg.1
 gx_dc_type_ht_colored@Base 8.61.dfsg.1
 gx_dc_type_none@Base 8.61.dfsg.1
 gx_dc_type_null@Base 8.61.dfsg.1
 gx_dc_type_pattern@Base 8.61.dfsg.1
 gx_dc_type_pure@Base 8.61.dfsg.1
 gx_dc_write_color@Base 8.61.dfsg.1
 gx_default_8bit_map_color_gray@Base 8.61.dfsg.1
 gx_default_8bit_map_gray_color@Base 8.61.dfsg.1
 gx_default_DevCMYK_get_color_comp_index@Base 8.61.dfsg.1
 gx_default_DevCMYK_get_color_mapping_procs@Base 8.61.dfsg.1
 gx_default_DevGray_get_color_comp_index@Base 8.61.dfsg.1
 gx_default_DevGray_get_color_mapping_procs@Base 8.61.dfsg.1
 gx_default_DevRGBK_get_color_comp_index@Base 8.61.dfsg.1
 gx_default_DevRGBK_get_color_mapping_procs@Base 8.61.dfsg.1
 gx_default_DevRGB_get_color_comp_index@Base 8.61.dfsg.1
 gx_default_DevRGB_get_color_mapping_procs@Base 8.61.dfsg.1
 gx_default_b_w_map_color_rgb@Base 8.61.dfsg.1
 gx_default_b_w_map_rgb_color@Base 8.61.dfsg.1
 gx_default_b_w_mono_decode_color@Base 9.55.0~dfsg
 gx_default_b_w_mono_encode_color@Base 9.55.0~dfsg
 gx_default_begin_page@Base 8.61.dfsg.1
 gx_default_begin_transparency_group@Base 9.25~dfsg
 gx_default_begin_transparency_mask@Base 9.25~dfsg
 gx_default_begin_typed_image@Base 8.61.dfsg.1
 gx_default_clip_box@Base 8.61.dfsg.1
 gx_default_close_device@Base 8.61.dfsg.1
 gx_default_composite@Base 9.55.0~dfsg
 gx_default_composite_adjust_ctm@Base 8.62.dfsg.1
 gx_default_composite_clist_read_update@Base 8.61.dfsg.1
 gx_default_composite_clist_write_update@Base 8.61.dfsg.1
 gx_default_composite_get_cropping@Base 8.63.dfsg.1
 gx_default_composite_is_closing@Base 8.62.dfsg.1
 gx_default_composite_is_friendly@Base 8.62.dfsg.1
 gx_default_copy_alpha@Base 8.61.dfsg.1
 gx_default_copy_alpha_hl_color@Base 9.06~dfsg
 gx_default_copy_color@Base 8.61.dfsg.1
 gx_default_copy_mono@Base 8.61.dfsg.1
 gx_default_copy_planes@Base 9.25~dfsg
 gx_default_create_buf_device@Base 8.61.dfsg.1
 gx_default_decode_color@Base 8.61.dfsg.1
 gx_default_destroy_buf_device@Base 8.61.dfsg.1
 gx_default_dev_spec_op@Base 9.04~dfsg
 gx_default_discard_transparency_layer@Base 9.25~dfsg
 gx_default_draw_thin_line@Base 8.61.dfsg.1
 gx_default_encode_color@Base 8.61.dfsg.1
 gx_default_end_page@Base 8.61.dfsg.1
 gx_default_end_transparency_group@Base 9.25~dfsg
 gx_default_end_transparency_mask@Base 9.25~dfsg
 gx_default_fill_linear_color_scanline@Base 8.61.dfsg.1
 gx_default_fill_linear_color_trapezoid@Base 8.61.dfsg.1
 gx_default_fill_linear_color_triangle@Base 8.61.dfsg.1
 gx_default_fill_mask@Base 8.61.dfsg.1
 gx_default_fill_parallelogram@Base 8.61.dfsg.1
 gx_default_fill_path@Base 8.61.dfsg.1
 gx_default_fill_rectangle_hl_color@Base 8.61.dfsg.1
 gx_default_fill_stroke_path@Base 9.51~dfsg
 gx_default_fill_trapezoid@Base 8.61.dfsg.1
 gx_default_fill_triangle@Base 8.61.dfsg.1
 gx_default_fillpage@Base 8.64~dfsg
 gx_default_get_alpha_bits@Base 8.61.dfsg.1
 gx_default_get_bits_rectangle@Base 8.61.dfsg.1
 gx_default_get_clipping_box@Base 8.61.dfsg.1
 gx_default_get_cmap_procs@Base 8.61.dfsg.1
 gx_default_get_hardware_params@Base 8.61.dfsg.1
 gx_default_get_initial_matrix@Base 8.61.dfsg.1
 gx_default_get_page_device@Base 8.61.dfsg.1
 gx_default_get_param@Base 9.15~dfsg
 gx_default_get_params@Base 8.61.dfsg.1
 gx_default_get_profile@Base 9.04~dfsg
 gx_default_get_space_params@Base 8.61.dfsg.1
 gx_default_gray_decode_color@Base 9.55.0~dfsg
 gx_default_gray_encode@Base 8.61.dfsg.1
 gx_default_gray_encode_color@Base 9.55.0~dfsg
 gx_default_gray_fast_encode@Base 8.61.dfsg.1
 gx_default_gray_map_color_rgb@Base 8.61.dfsg.1
 gx_default_gray_map_rgb_color@Base 8.61.dfsg.1
 gx_default_include_color_space@Base 8.61.dfsg.1
 gx_default_initialize_device@Base 9.55.0~dfsg
 gx_default_install@Base 8.61.dfsg.1
 gx_default_map_cmyk_color@Base 8.61.dfsg.1
 gx_default_no_copy_alpha_hl_color@Base 9.25~dfsg
 gx_default_open_device@Base 8.61.dfsg.1
 gx_default_output_page@Base 8.61.dfsg.1
 gx_default_pop_transparency_state@Base 9.25~dfsg
 gx_default_print_page_copies@Base 8.61.dfsg.1
 gx_default_process_page@Base 9.15~dfsg
 gx_default_push_transparency_state@Base 9.25~dfsg
 gx_default_put_image@Base 9.25~dfsg
 gx_default_put_params@Base 8.61.dfsg.1
 gx_default_remap_color@Base 8.61.dfsg.1
 gx_default_ret_devn_params@Base 8.61.dfsg.1
 gx_default_rgb_map_color_rgb@Base 8.61.dfsg.1
 gx_default_rgb_map_rgb_color@Base 8.61.dfsg.1
 gx_default_set_graphics_type_tag@Base 9.04~dfsg
 gx_default_setup_buf_device@Base 8.61.dfsg.1
 gx_default_size_buf_device@Base 8.61.dfsg.1
 gx_default_strip_copy_rop2@Base 9.05~
 gx_default_strip_tile_rect_devn@Base 9.06~dfsg
 gx_default_strip_tile_rectangle@Base 8.61.dfsg.1
 gx_default_stroke_path@Base 8.61.dfsg.1
 gx_default_sync_output@Base 8.61.dfsg.1
 gx_default_text_begin@Base 8.61.dfsg.1
 gx_default_text_release@Base 8.61.dfsg.1
 gx_default_text_restore_state@Base 8.61.dfsg.1
 gx_default_transform_pixel_region@Base 9.26~dfsg
 gx_default_update_spot_equivalent_colors@Base 8.61.dfsg.1
 gx_default_w_b_map_color_rgb@Base 8.61.dfsg.1
 gx_default_w_b_map_rgb_color@Base 8.61.dfsg.1
 gx_default_w_b_mono_decode_color@Base 9.55.0~dfsg
 gx_default_w_b_mono_encode_color@Base 9.55.0~dfsg
 gx_destroy_clip_device_on_stack@Base 9.21~dfsg
 gx_device_adjust_resolution@Base 8.61.dfsg.1
 gx_device_bbox_bbox@Base 8.61.dfsg.1
 gx_device_bbox_fwd_open_close@Base 8.61.dfsg.1
 gx_device_bbox_init@Base 8.61.dfsg.1
 gx_device_bbox_release@Base 8.61.dfsg.1
 gx_device_bbox_set_white_opaque@Base 8.61.dfsg.1
 gx_device_black@Base 8.61.dfsg.1
 gx_device_close_output_file@Base 8.61.dfsg.1
 gx_device_color_equal@Base 8.61.dfsg.1
 gx_device_copy_color_params@Base 8.61.dfsg.1
 gx_device_copy_color_procs@Base 8.61.dfsg.1
 gx_device_copy_params@Base 8.61.dfsg.1
 gx_device_decache_colors@Base 8.61.dfsg.1
 gx_device_delete_output_file@Base 9.15~dfsg
 gx_device_enum_ptr@Base 8.61.dfsg.1
 gx_device_fill_in_procs@Base 8.61.dfsg.1
 gx_device_finalize@Base 8.61.dfsg.1
 gx_device_forward_color_procs@Base 8.61.dfsg.1
 gx_device_forward_fill_in_procs@Base 8.61.dfsg.1
 gx_device_free_local@Base 8.61.dfsg.1
 gx_device_halftone_list@Base 8.61.dfsg.1
 gx_device_halftone_release@Base 8.61.dfsg.1
 gx_device_init@Base 8.61.dfsg.1
 gx_device_init_on_stack@Base 9.10~dfsg
 gx_device_is_pattern_accum@Base 9.15~dfsg
 gx_device_is_pattern_clist@Base 9.15~dfsg
 gx_device_nup_device_install@Base 9.55.0~dfsg
 gx_device_open_output_file@Base 8.61.dfsg.1
 gx_device_raster@Base 8.61.dfsg.1
 gx_device_raster_chunky@Base 9.15~dfsg
 gx_device_raster_plane@Base 9.15~dfsg
 gx_device_reloc_ptr@Base 8.61.dfsg.1
 gx_device_request_leadingedge@Base 8.61.dfsg.1
 gx_device_retain@Base 8.61.dfsg.1
 gx_device_set_margins@Base 8.61.dfsg.1
 gx_device_set_media_size@Base 8.61.dfsg.1
 gx_device_set_resolution@Base 8.61.dfsg.1
 gx_device_set_target@Base 8.61.dfsg.1
 gx_device_set_width_height@Base 8.61.dfsg.1
 gx_device_subclass@Base 9.18~dfsg
 gx_device_text_begin@Base 8.61.dfsg.1
 gx_device_unsubclass@Base 9.18~dfsg
 gx_device_uses_std_cmap_procs@Base 9.01~
 gx_device_white@Base 8.61.dfsg.1
 gx_devn_prn_decode_color@Base 9.15~dfsg
 gx_devn_prn_device_finalize@Base 9.15~dfsg
 gx_devn_prn_encode_color@Base 9.15~dfsg
 gx_devn_prn_get_color_comp_index@Base 9.15~dfsg
 gx_devn_prn_get_color_mapping_procs@Base 9.15~dfsg
 gx_devn_prn_get_params@Base 9.15~dfsg
 gx_devn_prn_put_params@Base 9.15~dfsg
 gx_devn_prn_ret_devn_params@Base 9.15~dfsg
 gx_devn_prn_ret_devn_params_const@Base 9.55.0~dfsg
 gx_devn_prn_update_spot_equivalent_colors@Base 9.15~dfsg
 gx_devn_reduce_colored_halftone@Base 8.61.dfsg.1
 gx_downscaler_adjust_bandheight@Base 9.15~dfsg
 gx_downscaler_decode_factor@Base 9.53.0~dfsg
 gx_downscaler_fin@Base 9.04~dfsg
 gx_downscaler_get_bits_rectangle@Base 9.06~dfsg
 gx_downscaler_getbits@Base 9.04~dfsg
 gx_downscaler_init@Base 9.04~dfsg
 gx_downscaler_init_cm@Base 9.20~dfsg
 gx_downscaler_init_cm_halftone@Base 9.53.0~dfsg
 gx_downscaler_init_planar@Base 9.06~dfsg
 gx_downscaler_init_planar_cm@Base 9.53.0~dfsg
 gx_downscaler_process_page@Base 9.15~dfsg
 gx_downscaler_read_params@Base 9.19~~rc1~dfsg
 gx_downscaler_scale@Base 9.06~dfsg
 gx_downscaler_scale_rounded@Base 9.15~dfsg
 gx_downscaler_write_params@Base 9.19~~rc1~dfsg
 gx_edgebuffer_fin@Base 9.20~dfsg
 gx_edgebuffer_init@Base 9.20~dfsg
 gx_effective_clip_path@Base 8.61.dfsg.1
 gx_end_transparency_group@Base 8.61.dfsg.1
 gx_end_transparency_mask@Base 8.61.dfsg.1
 gx_erase_colored_pattern@Base 9.00~dfsg
 gx_error_decode_color@Base 8.61.dfsg.1
 gx_error_encode_color@Base 8.61.dfsg.1
 gx_error_get_color_comp_index@Base 8.61.dfsg.1
 gx_error_get_color_mapping_procs@Base 8.61.dfsg.1
 gx_extendeg_glyph_name_separator@Base 8.61.dfsg.1
 gx_fill_edgebuffer@Base 9.20~dfsg
 gx_fill_edgebuffer_app@Base 9.20~dfsg
 gx_fill_edgebuffer_tr@Base 9.20~dfsg
 gx_fill_edgebuffer_tr_app@Base 9.20~dfsg
 gx_fill_path@Base 8.61.dfsg.1
 gx_fill_stroke_path@Base 9.51~dfsg
 gx_fill_trapezoid_cf_fd@Base 8.61.dfsg.1
 gx_fill_trapezoid_cf_nd@Base 8.61.dfsg.1
 gx_fill_triangle_small@Base 8.61.dfsg.1
 gx_filter_edgebuffer@Base 9.20~dfsg
 gx_filter_edgebuffer_app@Base 9.20~dfsg
 gx_filter_edgebuffer_tr@Base 9.20~dfsg
 gx_filter_edgebuffer_tr_app@Base 9.20~dfsg
 gx_finish_output_page@Base 8.61.dfsg.1
 gx_flattened_iterator__init@Base 8.61.dfsg.1
 gx_flattened_iterator__init_line@Base 8.61.dfsg.1
 gx_flattened_iterator__next@Base 8.61.dfsg.1
 gx_flattened_iterator__prev@Base 8.61.dfsg.1
 gx_flattened_iterator__switch_to_backscan@Base 8.61.dfsg.1
 gx_forward_begin_typed_image@Base 8.61.dfsg.1
 gx_forward_close_device@Base 8.61.dfsg.1
 gx_forward_composite@Base 9.55.0~dfsg
 gx_forward_copy_alpha@Base 8.61.dfsg.1
 gx_forward_copy_alpha_hl_color@Base 9.06~dfsg
 gx_forward_copy_color@Base 8.61.dfsg.1
 gx_forward_copy_mono@Base 8.61.dfsg.1
 gx_forward_copy_planes@Base 9.06~dfsg
 gx_forward_decode_color@Base 8.61.dfsg.1
 gx_forward_dev_spec_op@Base 9.04~dfsg
 gx_forward_device_initialize_procs@Base 9.55.0~dfsg
 gx_forward_draw_thin_line@Base 8.61.dfsg.1
 gx_forward_encode_color@Base 8.61.dfsg.1
 gx_forward_fill_linear_color_scanline@Base 8.61.dfsg.1
 gx_forward_fill_linear_color_trapezoid@Base 8.61.dfsg.1
 gx_forward_fill_linear_color_triangle@Base 8.61.dfsg.1
 gx_forward_fill_mask@Base 8.61.dfsg.1
 gx_forward_fill_parallelogram@Base 8.61.dfsg.1
 gx_forward_fill_path@Base 8.61.dfsg.1
 gx_forward_fill_rectangle@Base 8.61.dfsg.1
 gx_forward_fill_rectangle_hl_color@Base 8.61.dfsg.1
 gx_forward_fill_stroke_path@Base 9.51~dfsg
 gx_forward_fill_trapezoid@Base 8.61.dfsg.1
 gx_forward_fill_triangle@Base 8.61.dfsg.1
 gx_forward_fillpage@Base 8.64~dfsg
 gx_forward_get_bits_rectangle@Base 8.61.dfsg.1
 gx_forward_get_clipping_box@Base 8.61.dfsg.1
 gx_forward_get_color_comp_index@Base 8.61.dfsg.1
 gx_forward_get_color_mapping_procs@Base 8.61.dfsg.1
 gx_forward_get_hardware_params@Base 8.61.dfsg.1
 gx_forward_get_initial_matrix@Base 8.61.dfsg.1
 gx_forward_get_page_device@Base 8.61.dfsg.1
 gx_forward_get_params@Base 8.61.dfsg.1
 gx_forward_get_profile@Base 9.04~dfsg
 gx_forward_include_color_space@Base 8.61.dfsg.1
 gx_forward_map_cmyk_color@Base 8.61.dfsg.1
 gx_forward_map_color_rgb@Base 8.61.dfsg.1
 gx_forward_map_rgb_color@Base 8.61.dfsg.1
 gx_forward_output_page@Base 8.61.dfsg.1
 gx_forward_put_image@Base 9.26~dfsg
 gx_forward_put_params@Base 8.61.dfsg.1
 gx_forward_ret_devn_params@Base 8.61.dfsg.1
 gx_forward_set_graphics_type_tag@Base 9.04~dfsg
 gx_forward_strip_copy_rop2@Base 9.05~
 gx_forward_strip_tile_rect_devn@Base 9.06~dfsg
 gx_forward_strip_tile_rectangle@Base 8.61.dfsg.1
 gx_forward_stroke_path@Base 8.61.dfsg.1
 gx_forward_sync_output@Base 8.61.dfsg.1
 gx_forward_text_begin@Base 8.61.dfsg.1
 gx_forward_transform_pixel_region@Base 9.26~dfsg
 gx_forward_update_spot_equivalent_colors@Base 8.61.dfsg.1
 gx_free_cached_char@Base 8.61.dfsg.1
 gx_get_bits_copy@Base 8.61.dfsg.1
 gx_get_bits_return_pointer@Base 8.61.dfsg.1
 gx_get_cie_caches_ref@Base 9.28~~rc1~dfsg
 gx_get_clip_path_id@Base 8.61.dfsg.1
 gx_get_cmap_procs@Base 8.61.dfsg.1
 gx_get_cmapper@Base 9.25~dfsg
 gx_get_dc_type_from_index@Base 8.61.dfsg.1
 gx_get_dc_type_index@Base 8.61.dfsg.1
 gx_get_largest_clipping_box@Base 8.61.dfsg.1
 gx_gstate_dev_ht_copy_to_objtype@Base 9.55.0~dfsg
 gx_gstate_dev_ht_install@Base 9.20~dfsg
 gx_gstate_set_effective_xfer@Base 9.20~dfsg
 gx_gstate_setscreenphase@Base 9.20~dfsg
 gx_gstate_stroke_add@Base 9.20~dfsg
 gx_has_transfer@Base 9.00~dfsg
 gx_hl_fill_linear_color_scanline@Base 9.06~dfsg
 gx_hld_get_color_component@Base 8.61.dfsg.1
 gx_hld_get_color_space_and_ccolor@Base 8.61.dfsg.1
 gx_hld_get_number_color_components@Base 8.61.dfsg.1
 gx_hld_is_hl_color_available@Base 8.61.dfsg.1
 gx_hld_save_color@Base 8.61.dfsg.1
 gx_hld_saved_color_equal@Base 8.61.dfsg.1
 gx_hld_saved_color_init@Base 8.61.dfsg.1
 gx_hld_saved_color_same_cspace@Base 8.61.dfsg.1
 gx_hld_stringwidth_begin@Base 8.61.dfsg.1
 gx_ht_alloc_cache@Base 8.61.dfsg.1
 gx_ht_alloc_client_order@Base 8.61.dfsg.1
 gx_ht_alloc_ht_order@Base 8.61.dfsg.1
 gx_ht_alloc_order@Base 8.61.dfsg.1
 gx_ht_alloc_threshold_order@Base 8.61.dfsg.1
 gx_ht_cache_default_bits_size@Base 8.62.dfsg.1
 gx_ht_cache_default_tiles@Base 8.61.dfsg.1
 gx_ht_complete_threshold_order@Base 8.61.dfsg.1
 gx_ht_construct_bit@Base 8.61.dfsg.1
 gx_ht_construct_bits@Base 8.61.dfsg.1
 gx_ht_construct_spot_order@Base 8.61.dfsg.1
 gx_ht_construct_threshold@Base 9.02~dfsg
 gx_ht_construct_threshold_order@Base 8.61.dfsg.1
 gx_ht_free_cache@Base 8.61.dfsg.1
 gx_ht_init_cache@Base 8.61.dfsg.1
 gx_ht_install@Base 8.61.dfsg.1
 gx_ht_order_release@Base 8.61.dfsg.1
 gx_ht_process_screen_memory@Base 8.61.dfsg.1
 gx_ht_read_and_install@Base 8.61.dfsg.1
 gx_ht_threshold_landscape@Base 9.02~dfsg
 gx_ht_threshold_landscape_sub@Base 9.05~
 gx_ht_threshold_row_bit@Base 9.02~dfsg
 gx_ht_threshold_row_bit_sub@Base 9.05~
 gx_ht_write@Base 8.61.dfsg.1
 gx_ignore_end_image@Base 8.61.dfsg.1
 gx_image1_end_image@Base 8.61.dfsg.1
 gx_image1_flush@Base 8.61.dfsg.1
 gx_image1_plane_data@Base 8.61.dfsg.1
 gx_image_cached_char@Base 8.61.dfsg.1
 gx_image_class_table@Base 8.61.dfsg.1
 gx_image_class_table_count@Base 8.61.dfsg.1
 gx_image_compute_mat@Base 9.20~dfsg
 gx_image_data@Base 8.61.dfsg.1
 gx_image_default_release@Base 8.61.dfsg.1
 gx_image_end@Base 8.61.dfsg.1
 gx_image_enum_alloc@Base 8.61.dfsg.1
 gx_image_enum_begin@Base 8.61.dfsg.1
 gx_image_enum_common_init@Base 8.61.dfsg.1
 gx_image_fill_masked@Base 8.61.dfsg.1
 gx_image_fill_masked_end@Base 8.61.dfsg.1
 gx_image_fill_masked_start@Base 8.61.dfsg.1
 gx_image_flush@Base 8.61.dfsg.1
 gx_image_free_enum@Base 8.63.dfsg.1
 gx_image_matrix_is_default@Base 8.61.dfsg.1
 gx_image_matrix_set_default@Base 8.61.dfsg.1
 gx_image_no_sget@Base 8.61.dfsg.1
 gx_image_no_sput@Base 8.61.dfsg.1
 gx_image_plane_data@Base 8.61.dfsg.1
 gx_image_plane_data_rows@Base 8.61.dfsg.1
 gx_image_planes_wanted@Base 8.61.dfsg.1
 gx_image_scale_mask_colors@Base 8.61.dfsg.1
 gx_image_type_table@Base 8.61.dfsg.1
 gx_image_type_table_count@Base 8.61.dfsg.1
 gx_init_CIE@Base 8.61.dfsg.1
 gx_init_paint_1@Base 8.61.dfsg.1
 gx_init_paint_3@Base 8.61.dfsg.1
 gx_init_paint_4@Base 8.61.dfsg.1
 gx_init_patch_fill_state_for_clist@Base 8.61.dfsg.1
 gx_init_table@Base 8.61.dfsg.1
 gx_install_CIE@Base 8.61.dfsg.1
 gx_install_CIEA@Base 8.61.dfsg.1
 gx_install_CIEABC@Base 8.61.dfsg.1
 gx_install_CIEDEF@Base 8.61.dfsg.1
 gx_install_CIEDEFG@Base 8.61.dfsg.1
 gx_install_cie_abc@Base 8.61.dfsg.1
 gx_intersect_small_bars@Base 8.61.dfsg.1
 gx_io_device_table@Base 8.61.dfsg.1
 gx_io_device_table_count@Base 8.61.dfsg.1
 gx_lookup_cached_char@Base 8.61.dfsg.1
 gx_lookup_fm_pair@Base 8.61.dfsg.1
 gx_make_clip_device_in_heap@Base 8.61.dfsg.1
 gx_make_clip_device_on_stack@Base 8.61.dfsg.1
 gx_make_clip_device_on_stack_if_needed@Base 9.06~dfsg
 gx_make_rop_texture_device@Base 8.61.dfsg.1
 gx_mask_clip_initialize@Base 8.61.dfsg.1
 gx_matrix_to_fixed_coeff@Base 8.61.dfsg.1
 gx_monitor_alloc@Base 8.61.dfsg.1
 gx_monitor_free@Base 8.61.dfsg.1
 gx_monitor_label@Base 9.20~dfsg
 gx_no_adjust_color_count@Base 8.61.dfsg.1
 gx_no_composite@Base 9.55.0~dfsg
 gx_no_concrete_space@Base 8.61.dfsg.1
 gx_no_concretize_color@Base 8.61.dfsg.1
 gx_no_copy_alpha@Base 8.61.dfsg.1
 gx_no_install_cspace@Base 8.61.dfsg.1
 gx_no_plane_data@Base 8.61.dfsg.1
 gx_no_strip_copy_rop2@Base 9.55.0~dfsg
 gx_null_composite@Base 9.55.0~dfsg
 gx_num_components_1@Base 8.61.dfsg.1
 gx_num_components_3@Base 8.61.dfsg.1
 gx_num_components_4@Base 8.61.dfsg.1
 gx_open_cache_device@Base 8.61.dfsg.1
 gx_outputfile_is_separate_pages@Base 9.05~
 gx_overprint_generic_fill_rectangle@Base 8.61.dfsg.1
 gx_overprint_sep_fill_rectangle_1@Base 8.61.dfsg.1
 gx_overprint_sep_fill_rectangle_2@Base 8.61.dfsg.1
 gx_page_device_get_page_device@Base 8.61.dfsg.1
 gx_page_info_color_usage@Base 9.06~dfsg
 gx_parse_output_file_name@Base 8.61.dfsg.1
 gx_pat_cache_default_bits@Base 8.61.dfsg.1
 gx_pat_cache_default_tiles@Base 8.61.dfsg.1
 gx_path__check_curves@Base 8.61.dfsg.1
 gx_path_add_char_path@Base 8.61.dfsg.1
 gx_path_add_curve_notes@Base 8.61.dfsg.1
 gx_path_add_dash_expansion@Base 8.61.dfsg.1
 gx_path_add_dash_notes@Base 8.61.dfsg.1
 gx_path_add_gap_notes@Base 9.06~dfsg
 gx_path_add_line_notes@Base 8.61.dfsg.1
 gx_path_add_lines_notes@Base 8.61.dfsg.1
 gx_path_add_partial_arc_notes@Base 8.61.dfsg.1
 gx_path_add_path@Base 8.61.dfsg.1
 gx_path_add_point@Base 8.61.dfsg.1
 gx_path_add_rectangle@Base 8.61.dfsg.1
 gx_path_add_relative_point@Base 8.61.dfsg.1
 gx_path_alloc_shared@Base 8.61.dfsg.1
 gx_path_append_reversed@Base 8.71~dfsg
 gx_path_assign_free@Base 8.61.dfsg.1
 gx_path_assign_preserve@Base 8.61.dfsg.1
 gx_path_bbox@Base 8.61.dfsg.1
 gx_path_bbox_set@Base 8.61.dfsg.1
 gx_path_close_subpath_notes@Base 8.61.dfsg.1
 gx_path_copy_reducing@Base 8.61.dfsg.1
 gx_path_copy_reversed@Base 8.61.dfsg.1
 gx_path_current_point@Base 8.61.dfsg.1
 gx_path_elide_1d@Base 9.26~dfsg
 gx_path_enum_backup@Base 8.61.dfsg.1
 gx_path_enum_init@Base 8.61.dfsg.1
 gx_path_enum_next@Base 8.61.dfsg.1
 gx_path_enum_notes@Base 8.61.dfsg.1
 gx_path_free@Base 8.61.dfsg.1
 gx_path_get_state_flags@Base 8.61.dfsg.1
 gx_path_has_curves@Base 8.61.dfsg.1
 gx_path_has_long_segments@Base 8.61.dfsg.1
 gx_path_init_bbox_accumulator@Base 8.61.dfsg.1
 gx_path_init_contained_shared@Base 8.61.dfsg.1
 gx_path_init_local_shared@Base 8.61.dfsg.1
 gx_path_is_drawing@Base 8.61.dfsg.1
 gx_path_is_null@Base 8.61.dfsg.1
 gx_path_is_rectangular@Base 8.61.dfsg.1
 gx_path_is_void@Base 8.61.dfsg.1
 gx_path_merge_contacting_contours@Base 8.61.dfsg.1
 gx_path_new@Base 8.61.dfsg.1
 gx_path_pop_close_notes@Base 8.61.dfsg.1
 gx_path_position_valid@Base 9.55.0~dfsg
 gx_path_scale_exp2_shared@Base 8.61.dfsg.1
 gx_path_set_state_flags@Base 8.61.dfsg.1
 gx_path_subpath_start_point@Base 8.61.dfsg.1
 gx_path_translate@Base 8.61.dfsg.1
 gx_path_unshare@Base 8.61.dfsg.1
 gx_pattern1_clist_has_trans@Base 9.04~dfsg
 gx_pattern1_get_transptr@Base 8.70~
 gx_pattern_accum_alloc@Base 8.61.dfsg.1
 gx_pattern_alloc_cache@Base 8.61.dfsg.1
 gx_pattern_cache_add_dummy_entry@Base 8.61.dfsg.1
 gx_pattern_cache_add_entry@Base 8.61.dfsg.1
 gx_pattern_cache_ensure_space@Base 9.04~dfsg
 gx_pattern_cache_entry_set_lock@Base 9.51~dfsg
 gx_pattern_cache_free@Base 8.63.dfsg.1
 gx_pattern_cache_get_entry@Base 8.63.dfsg.1
 gx_pattern_cache_lookup@Base 8.61.dfsg.1
 gx_pattern_cache_update_used@Base 9.04~dfsg
 gx_pattern_cache_winnow@Base 8.61.dfsg.1
 gx_pattern_load@Base 8.61.dfsg.1
 gx_pattern_procs_istrans@Base 9.00~dfsg
 gx_pattern_tile_is_clist@Base 8.61.dfsg.1
 gx_pixel_image_release@Base 8.61.dfsg.1
 gx_pixel_image_sget@Base 8.61.dfsg.1
 gx_pixel_image_sput@Base 8.61.dfsg.1
 gx_point_scale_exp2@Base 8.61.dfsg.1
 gx_polarity_additive@Base 9.15~dfsg
 gx_polarity_subtractive@Base 9.15~dfsg
 gx_polarity_unknown@Base 9.15~dfsg
 gx_pop_transparency_state@Base 8.71~dfsg
 gx_print_page_single_copy@Base 8.61.dfsg.1
 gx_provide_fm_pair_attributes@Base 8.61.dfsg.1
 gx_psconcretize_CIEA@Base 9.00~dfsg
 gx_psconcretize_CIEABC@Base 9.00~dfsg
 gx_psconcretize_CIEDEF@Base 9.00~dfsg
 gx_psconcretize_CIEDEFG@Base 9.00~dfsg
 gx_purge_selected_cached_chars@Base 8.61.dfsg.1
 gx_push_transparency_state@Base 8.71~dfsg
 gx_put_blended_image_custom@Base 8.64~dfsg
 gx_rect_scale_exp2@Base 8.61.dfsg.1
 gx_remap_CIEA@Base 9.00~dfsg
 gx_remap_CIEABC@Base 8.61.dfsg.1
 gx_remap_CIEDEF@Base 9.00~dfsg
 gx_remap_CIEDEFG@Base 9.00~dfsg
 gx_remap_DeviceCMYK@Base 8.61.dfsg.1
 gx_remap_DeviceGray@Base 8.61.dfsg.1
 gx_remap_DeviceRGB@Base 8.61.dfsg.1
 gx_remap_ICC_imagelab@Base 9.06~dfsg
 gx_remap_ICC_with_link@Base 9.51~dfsg
 gx_remap_color@Base 8.61.dfsg.1
 gx_remap_concrete_DCMYK@Base 8.61.dfsg.1
 gx_remap_concrete_DGray@Base 8.61.dfsg.1
 gx_remap_concrete_DRGB@Base 8.61.dfsg.1
 gx_remap_named_color@Base 9.16~dfsg
 gx_render_device_DeviceN@Base 8.61.dfsg.1
 gx_render_plane_init@Base 8.61.dfsg.1
 gx_restrict01_paint_1@Base 8.61.dfsg.1
 gx_restrict01_paint_3@Base 8.61.dfsg.1
 gx_restrict01_paint_4@Base 8.61.dfsg.1
 gx_restrict_CIEA@Base 8.61.dfsg.1
 gx_restrict_CIEABC@Base 8.61.dfsg.1
 gx_restrict_CIEDEF@Base 8.61.dfsg.1
 gx_restrict_CIEDEFG@Base 8.61.dfsg.1
 gx_same_concrete_space@Base 8.61.dfsg.1
 gx_san__obtain@Base 8.61.dfsg.1
 gx_san__release@Base 8.61.dfsg.1
 gx_san_begin@Base 8.61.dfsg.1
 gx_san_end@Base 8.61.dfsg.1
 gx_san_generate_stems@Base 8.61.dfsg.1
 gx_san_trap_store@Base 8.61.dfsg.1
 gx_saved_pages_list_add@Base 9.15~dfsg
 gx_saved_pages_list_free@Base 9.15~dfsg
 gx_saved_pages_list_new@Base 9.15~dfsg
 gx_saved_pages_list_print@Base 9.15~dfsg
 gx_saved_pages_param_process@Base 9.15~dfsg
 gx_scale_char_matrix@Base 8.61.dfsg.1
 gx_scan_convert@Base 9.20~dfsg
 gx_scan_convert_and_fill@Base 9.27~dfsg
 gx_scan_convert_app@Base 9.20~dfsg
 gx_scan_convert_tr@Base 9.20~dfsg
 gx_scan_convert_tr_app@Base 9.20~dfsg
 gx_scan_converter@Base 9.27~dfsg
 gx_scan_converter_app@Base 9.27~dfsg
 gx_scan_converter_tr@Base 9.27~dfsg
 gx_scan_converter_tr_app@Base 9.27~dfsg
 gx_select_dev_ht@Base 9.55.0~dfsg
 gx_semaphore_alloc@Base 8.61.dfsg.1
 gx_semaphore_free@Base 8.61.dfsg.1
 gx_semaphore_label@Base 9.20~dfsg
 gx_serialize_cie_common_elements@Base 8.61.dfsg.1
 gx_serialize_cspace_type@Base 8.61.dfsg.1
 gx_serialize_device_n_map@Base 8.61.dfsg.1
 gx_set_cmap_procs@Base 8.61.dfsg.1
 gx_set_common_cie_defaults@Base 8.61.dfsg.1
 gx_set_dash@Base 8.61.dfsg.1
 gx_set_device_color_1@Base 8.61.dfsg.1
 gx_set_device_only@Base 8.61.dfsg.1
 gx_set_dot_length@Base 8.61.dfsg.1
 gx_set_effective_transfer@Base 8.61.dfsg.1
 gx_set_identity_transfer@Base 8.61.dfsg.1
 gx_set_miter_limit@Base 8.61.dfsg.1
 gx_set_no_overprint@Base 9.51~dfsg
 gx_set_overprint_cmyk@Base 9.00~dfsg
 gx_set_pattern_procs_standard@Base 9.00~dfsg
 gx_set_pattern_procs_trans@Base 9.00~dfsg
 gx_set_rop_no_source@Base 8.61.dfsg.1
 gx_set_spot_only_overprint@Base 9.53.0~dfsg
 gx_setcurrentpoint_from_path@Base 8.61.dfsg.1
 gx_shade_background@Base 8.61.dfsg.1
 gx_sort_ht_order@Base 8.61.dfsg.1
 gx_spot_colors_set_overprint@Base 8.61.dfsg.1
 gx_stroke_add@Base 8.61.dfsg.1
 gx_stroke_fill@Base 8.61.dfsg.1
 gx_stroke_path_expansion@Base 8.61.dfsg.1
 gx_stroke_path_only@Base 8.61.dfsg.1
 gx_subclass_composite@Base 9.55.0~dfsg
 gx_subclass_fill_in_page_procs@Base 9.55.0~dfsg
 gx_subdivide_curve@Base 8.61.dfsg.1
 gx_subpath_is_rectangular@Base 8.61.dfsg.1
 gx_touch_fm_pair@Base 8.61.dfsg.1
 gx_trans_pattern_fill_rect@Base 8.70~
 gx_transfer_is_monotonic@Base 9.18~dfsg
 gx_translate_to_fixed@Base 8.61.dfsg.1
 gx_ttfReader__create@Base 8.61.dfsg.1
 gx_ttfReader__destroy@Base 8.61.dfsg.1
 gx_ttfReader__set_font@Base 8.61.dfsg.1
 gx_ttf_outline@Base 8.61.dfsg.1
 gx_unit_frac@Base 8.62.dfsg.1
 gx_unshare_cie_caches@Base 8.61.dfsg.1
 gx_update_from_subclass@Base 9.18~dfsg
 gx_upright_get_initial_matrix@Base 8.61.dfsg.1
 gxclip2_dummy@Base 8.61.dfsg.1
 gxht_dda_length@Base 9.19~~rc1~dfsg
 gxht_thresh_image_init@Base 9.02~dfsg
 gxht_thresh_planes@Base 9.05~
 hc_put_code_proc@Base 8.61.dfsg.1
 hc_put_last_bits_proc@Base 8.61.dfsg.1
 hdr_id@Base 9.16~dfsg
 height@Base 8.61.dfsg.1
 ht_order_procs_table@Base 8.61.dfsg.1
 htsc_gen_ordered@Base 9.22~dfsg
 htsc_set_default_params@Base 9.22~dfsg
 i_initial_enter_name@Base 8.61.dfsg.1
 i_initial_enter_name_copy@Base 9.25~dfsg
 i_initial_remove_name@Base 8.61.dfsg.1
 i_io_device_table@Base 9.18~dfsg
 i_io_device_table_count@Base 9.18~dfsg
 i_iodev_finit@Base 9.25~dfsg
 i_iodev_init@Base 9.18~dfsg
 i_plugin_find@Base 8.61.dfsg.1
 i_plugin_finit@Base 8.61.dfsg.1
 i_plugin_get_list@Base 8.61.dfsg.1
 i_plugin_init@Base 8.61.dfsg.1
 i_plugin_make_memory@Base 8.61.dfsg.1
 i_plugin_table@Base 8.61.dfsg.1
 ialloc_add_clump@Base 9.20~dfsg
 ialloc_alloc_state@Base 8.61.dfsg.1
 ialloc_consolidate_free@Base 8.61.dfsg.1
 ialloc_finit@Base 9.22~dfsg
 ialloc_free_state@Base 9.10~dfsg
 ialloc_gc_prepare@Base 8.61.dfsg.1
 ialloc_init@Base 8.61.dfsg.1
 ialloc_reset@Base 8.61.dfsg.1
 ialloc_reset_free@Base 8.61.dfsg.1
 ialloc_reset_requested@Base 8.61.dfsg.1
 ialloc_set_limit@Base 8.61.dfsg.1
 ialloc_set_space@Base 8.61.dfsg.1
 ialloc_validate_clump@Base 9.20~dfsg
 ialloc_validate_memory@Base 8.61.dfsg.1
 ialloc_validate_object@Base 8.61.dfsg.1
 ialloc_validate_spaces@Base 8.61.dfsg.1
 icc_link_finalize@Base 9.06~dfsg
 icc_linkcache_finalize@Base 9.06~dfsg
 idivmod@Base 8.61.dfsg.1
 igc_reloc_const_string@Base 8.61.dfsg.1
 igc_reloc_param_string@Base 8.61.dfsg.1
 igc_reloc_ref_ptr@Base 8.61.dfsg.1
 igc_reloc_ref_ptr_nocheck@Base 8.61.dfsg.1
 igc_reloc_refs@Base 8.61.dfsg.1
 igc_reloc_string@Base 8.61.dfsg.1
 igcd@Base 8.61.dfsg.1
 ilog2@Base 8.61.dfsg.1
 image_flip_planes@Base 8.61.dfsg.1
 image_init_clues@Base 8.61.dfsg.1
 image_init_color_cache@Base 9.02~dfsg
 image_init_map@Base 9.10~dfsg
 imemory_new_mask@Base 8.61.dfsg.1
 imemory_save_level@Base 8.61.dfsg.1
 imemory_space@Base 8.61.dfsg.1
 imod@Base 8.61.dfsg.1
 imscale_foo@Base 9.53.0~dfsg
 init_gs_simple_font@Base 8.61.dfsg.1
 init_p9color@Base 8.61.dfsg.1
 init_patch_fill_state@Base 8.61.dfsg.1
 initial_dictionaries@Base 8.61.dfsg.1
 initial_dstack@Base 8.61.dfsg.1
 initialise_stream_save@Base 9.55.0~dfsg
 install_internal_subclass_devices@Base 9.18~dfsg
 int_gstate_alloc@Base 8.61.dfsg.1
 int_param@Base 8.61.dfsg.1
 int_pattern_alloc@Base 8.61.dfsg.1
 int_rect_difference@Base 8.61.dfsg.1
 interp1_op_defs@Base 8.61.dfsg.1
 interp2_op_defs@Base 8.61.dfsg.1
 interp_reclaim@Base 8.61.dfsg.1
 ioFormatTest@Base 9.55.0~dfsg1-0ubuntu1
 io_device_finalize@Base 9.25~dfsg
 iodev_dtype_stdio@Base 8.61.dfsg.1
 iodev_no_delete_file@Base 8.61.dfsg.1
 iodev_no_enumerate_files@Base 8.61.dfsg.1
 iodev_no_fclose@Base 8.61.dfsg.1
 iodev_no_file_status@Base 8.61.dfsg.1
 iodev_no_finit@Base 9.25~dfsg
 iodev_no_fopen@Base 8.61.dfsg.1
 iodev_no_get_params@Base 8.61.dfsg.1
 iodev_no_init@Base 8.61.dfsg.1
 iodev_no_open_device@Base 8.61.dfsg.1
 iodev_no_open_file@Base 8.61.dfsg.1
 iodev_no_put_params@Base 8.61.dfsg.1
 iodev_no_rename_file@Base 8.61.dfsg.1
 iodev_os_fclose@Base 8.61.dfsg.1
 iodev_os_gp_fopen@Base 9.10~dfsg
 ireclaim_l2_op_defs@Base 8.61.dfsg.1
 isPngInterlaced@Base 9.55.0~dfsg1-0ubuntu1
 is_compressed_object@Base 9.55.0~dfsg
 ivalidate_clean_spaces@Base 9.06~dfsg
 jbAccumulateComposites@Base 9.55.0~dfsg1-0ubuntu1
 jbAddPage@Base 9.55.0~dfsg1-0ubuntu1
 jbAddPageComponents@Base 9.55.0~dfsg1-0ubuntu1
 jbAddPages@Base 9.55.0~dfsg1-0ubuntu1
 jbClasserCreate@Base 9.55.0~dfsg1-0ubuntu1
 jbClasserDestroy@Base 9.55.0~dfsg1-0ubuntu1
 jbClassifyCorrelation@Base 9.55.0~dfsg1-0ubuntu1
 jbClassifyRankHaus@Base 9.55.0~dfsg1-0ubuntu1
 jbCorrelation@Base 9.55.0~dfsg1-0ubuntu1
 jbCorrelationInit@Base 9.55.0~dfsg1-0ubuntu1
 jbCorrelationInitWithoutComponents@Base 9.55.0~dfsg1-0ubuntu1
 jbDataDestroy@Base 9.55.0~dfsg1-0ubuntu1
 jbDataRead@Base 9.55.0~dfsg1-0ubuntu1
 jbDataRender@Base 9.55.0~dfsg1-0ubuntu1
 jbDataSave@Base 9.55.0~dfsg1-0ubuntu1
 jbDataWrite@Base 9.55.0~dfsg1-0ubuntu1
 jbGetComponents@Base 9.55.0~dfsg1-0ubuntu1
 jbGetLLCorners@Base 9.55.0~dfsg1-0ubuntu1
 jbGetULCorners@Base 9.55.0~dfsg1-0ubuntu1
 jbRankHaus@Base 9.55.0~dfsg1-0ubuntu1
 jbRankHausInit@Base 9.55.0~dfsg1-0ubuntu1
 jbTemplatesFromComposites@Base 9.55.0~dfsg1-0ubuntu1
 jbWordsInTextlines@Base 9.55.0~dfsg1-0ubuntu1
 kernelCopy@Base 9.55.0~dfsg1-0ubuntu1
 kernelCreate@Base 9.55.0~dfsg1-0ubuntu1
 kernelCreateFromFile@Base 9.55.0~dfsg1-0ubuntu1
 kernelCreateFromPix@Base 9.55.0~dfsg1-0ubuntu1
 kernelCreateFromString@Base 9.55.0~dfsg1-0ubuntu1
 kernelDestroy@Base 9.55.0~dfsg1-0ubuntu1
 kernelDisplayInPix@Base 9.55.0~dfsg1-0ubuntu1
 kernelGetElement@Base 9.55.0~dfsg1-0ubuntu1
 kernelGetMinMax@Base 9.55.0~dfsg1-0ubuntu1
 kernelGetParameters@Base 9.55.0~dfsg1-0ubuntu1
 kernelGetSum@Base 9.55.0~dfsg1-0ubuntu1
 kernelInvert@Base 9.55.0~dfsg1-0ubuntu1
 kernelNormalize@Base 9.55.0~dfsg1-0ubuntu1
 kernelRead@Base 9.55.0~dfsg1-0ubuntu1
 kernelReadStream@Base 9.55.0~dfsg1-0ubuntu1
 kernelSetElement@Base 9.55.0~dfsg1-0ubuntu1
 kernelSetOrigin@Base 9.55.0~dfsg1-0ubuntu1
 kernelWrite@Base 9.55.0~dfsg1-0ubuntu1
 kernelWriteStream@Base 9.55.0~dfsg1-0ubuntu1
 l_CIDataDestroy@Base 9.55.0~dfsg1-0ubuntu1
 l_amapCreate@Base 9.55.0~dfsg1-0ubuntu1
 l_amapDelete@Base 9.55.0~dfsg1-0ubuntu1
 l_amapDestroy@Base 9.55.0~dfsg1-0ubuntu1
 l_amapFind@Base 9.55.0~dfsg1-0ubuntu1
 l_amapGetFirst@Base 9.55.0~dfsg1-0ubuntu1
 l_amapGetLast@Base 9.55.0~dfsg1-0ubuntu1
 l_amapGetNext@Base 9.55.0~dfsg1-0ubuntu1
 l_amapGetPrev@Base 9.55.0~dfsg1-0ubuntu1
 l_amapInsert@Base 9.55.0~dfsg1-0ubuntu1
 l_amapSize@Base 9.55.0~dfsg1-0ubuntu1
 l_angleBetweenVectors@Base 9.55.0~dfsg1-0ubuntu1
 l_asetCreate@Base 9.55.0~dfsg1-0ubuntu1
 l_asetCreateFromDna@Base 9.55.0~dfsg1-0ubuntu1
 l_asetCreateFromPta@Base 9.55.0~dfsg1-0ubuntu1
 l_asetCreateFromSarray@Base 9.55.0~dfsg1-0ubuntu1
 l_asetDelete@Base 9.55.0~dfsg1-0ubuntu1
 l_asetDestroy@Base 9.55.0~dfsg1-0ubuntu1
 l_asetFind@Base 9.55.0~dfsg1-0ubuntu1
 l_asetGetFirst@Base 9.55.0~dfsg1-0ubuntu1
 l_asetGetLast@Base 9.55.0~dfsg1-0ubuntu1
 l_asetGetNext@Base 9.55.0~dfsg1-0ubuntu1
 l_asetGetPrev@Base 9.55.0~dfsg1-0ubuntu1
 l_asetInsert@Base 9.55.0~dfsg1-0ubuntu1
 l_asetSize@Base 9.55.0~dfsg1-0ubuntu1
 l_binaryCompare@Base 9.55.0~dfsg1-0ubuntu1
 l_binaryCopy@Base 9.55.0~dfsg1-0ubuntu1
 l_binaryRead@Base 9.55.0~dfsg1-0ubuntu1
 l_binaryReadSelect@Base 9.55.0~dfsg1-0ubuntu1
 l_binaryReadSelectStream@Base 9.55.0~dfsg1-0ubuntu1
 l_binaryReadStream@Base 9.55.0~dfsg1-0ubuntu1
 l_binaryWrite@Base 9.55.0~dfsg1-0ubuntu1
 l_bootnum_gen1@Base 9.55.0~dfsg1-0ubuntu1
 l_bootnum_gen2@Base 9.55.0~dfsg1-0ubuntu1
 l_bootnum_gen3@Base 9.55.0~dfsg1-0ubuntu1
 l_bootnum_gen4@Base 9.55.0~dfsg1-0ubuntu1
 l_byteaAppendData@Base 9.55.0~dfsg1-0ubuntu1
 l_byteaAppendString@Base 9.55.0~dfsg1-0ubuntu1
 l_byteaCopy@Base 9.55.0~dfsg1-0ubuntu1
 l_byteaCopyData@Base 9.55.0~dfsg1-0ubuntu1
 l_byteaCreate@Base 9.55.0~dfsg1-0ubuntu1
 l_byteaDestroy@Base 9.55.0~dfsg1-0ubuntu1
 l_byteaFindEachSequence@Base 9.55.0~dfsg1-0ubuntu1
 l_byteaGetData@Base 9.55.0~dfsg1-0ubuntu1
 l_byteaGetSize@Base 9.55.0~dfsg1-0ubuntu1
 l_byteaInitFromFile@Base 9.55.0~dfsg1-0ubuntu1
 l_byteaInitFromMem@Base 9.55.0~dfsg1-0ubuntu1
 l_byteaInitFromStream@Base 9.55.0~dfsg1-0ubuntu1
 l_byteaJoin@Base 9.55.0~dfsg1-0ubuntu1
 l_byteaSplit@Base 9.55.0~dfsg1-0ubuntu1
 l_byteaWrite@Base 9.55.0~dfsg1-0ubuntu1
 l_byteaWriteStream@Base 9.55.0~dfsg1-0ubuntu1
 l_chooseDisplayProg@Base 9.55.0~dfsg1-0ubuntu1
 l_clearDataBit@Base 9.55.0~dfsg1-0ubuntu1
 l_clearDataDibit@Base 9.55.0~dfsg1-0ubuntu1
 l_clearDataQbit@Base 9.55.0~dfsg1-0ubuntu1
 l_compressGrayHistograms@Base 9.55.0~dfsg1-0ubuntu1
 l_dnaAddNumber@Base 9.55.0~dfsg1-0ubuntu1
 l_dnaChangeRefcount@Base 9.55.0~dfsg1-0ubuntu1
 l_dnaClone@Base 9.55.0~dfsg1-0ubuntu1
 l_dnaConvertToNuma@Base 9.55.0~dfsg1-0ubuntu1
 l_dnaCopy@Base 9.55.0~dfsg1-0ubuntu1
 l_dnaCopyParameters@Base 9.55.0~dfsg1-0ubuntu1
 l_dnaCreate@Base 9.55.0~dfsg1-0ubuntu1
 l_dnaCreateFromDArray@Base 9.55.0~dfsg1-0ubuntu1
 l_dnaCreateFromIArray@Base 9.55.0~dfsg1-0ubuntu1
 l_dnaDestroy@Base 9.55.0~dfsg1-0ubuntu1
 l_dnaDiffAdjValues@Base 9.55.0~dfsg1-0ubuntu1
 l_dnaEmpty@Base 9.55.0~dfsg1-0ubuntu1
 l_dnaFindValByHash@Base 9.55.0~dfsg1-0ubuntu1
 l_dnaGetCount@Base 9.55.0~dfsg1-0ubuntu1
 l_dnaGetDArray@Base 9.55.0~dfsg1-0ubuntu1
 l_dnaGetDValue@Base 9.55.0~dfsg1-0ubuntu1
 l_dnaGetIArray@Base 9.55.0~dfsg1-0ubuntu1
 l_dnaGetIValue@Base 9.55.0~dfsg1-0ubuntu1
 l_dnaGetParameters@Base 9.55.0~dfsg1-0ubuntu1
 l_dnaGetRefcount@Base 9.55.0~dfsg1-0ubuntu1
 l_dnaHashAdd@Base 9.55.0~dfsg1-0ubuntu1
 l_dnaHashCreate@Base 9.55.0~dfsg1-0ubuntu1
 l_dnaHashCreateFromDna@Base 9.55.0~dfsg1-0ubuntu1
 l_dnaHashCreateFromPta@Base 9.55.0~dfsg1-0ubuntu1
 l_dnaHashCreateFromSarray@Base 9.55.0~dfsg1-0ubuntu1
 l_dnaHashDestroy@Base 9.55.0~dfsg1-0ubuntu1
 l_dnaHashGetCount@Base 9.55.0~dfsg1-0ubuntu1
 l_dnaHashGetDna@Base 9.55.0~dfsg1-0ubuntu1
 l_dnaHashGetTotalCount@Base 9.55.0~dfsg1-0ubuntu1
 l_dnaInsertNumber@Base 9.55.0~dfsg1-0ubuntu1
 l_dnaIntersectionByAset@Base 9.55.0~dfsg1-0ubuntu1
 l_dnaIntersectionByHash@Base 9.55.0~dfsg1-0ubuntu1
 l_dnaJoin@Base 9.55.0~dfsg1-0ubuntu1
 l_dnaMakeHistoByHash@Base 9.55.0~dfsg1-0ubuntu1
 l_dnaMakeSequence@Base 9.55.0~dfsg1-0ubuntu1
 l_dnaRead@Base 9.55.0~dfsg1-0ubuntu1
 l_dnaReadStream@Base 9.55.0~dfsg1-0ubuntu1
 l_dnaRemoveDupsByAset@Base 9.55.0~dfsg1-0ubuntu1
 l_dnaRemoveDupsByHash@Base 9.55.0~dfsg1-0ubuntu1
 l_dnaRemoveNumber@Base 9.55.0~dfsg1-0ubuntu1
 l_dnaReplaceNumber@Base 9.55.0~dfsg1-0ubuntu1
 l_dnaSetCount@Base 9.55.0~dfsg1-0ubuntu1
 l_dnaSetParameters@Base 9.55.0~dfsg1-0ubuntu1
 l_dnaSetValue@Base 9.55.0~dfsg1-0ubuntu1
 l_dnaShiftValue@Base 9.55.0~dfsg1-0ubuntu1
 l_dnaUnionByAset@Base 9.55.0~dfsg1-0ubuntu1
 l_dnaWrite@Base 9.55.0~dfsg1-0ubuntu1
 l_dnaWriteStream@Base 9.55.0~dfsg1-0ubuntu1
 l_dnaaAddDna@Base 9.55.0~dfsg1-0ubuntu1
 l_dnaaAddNumber@Base 9.55.0~dfsg1-0ubuntu1
 l_dnaaCreate@Base 9.55.0~dfsg1-0ubuntu1
 l_dnaaCreateFull@Base 9.55.0~dfsg1-0ubuntu1
 l_dnaaDestroy@Base 9.55.0~dfsg1-0ubuntu1
 l_dnaaFlattenToDna@Base 9.55.0~dfsg1-0ubuntu1
 l_dnaaGetCount@Base 9.55.0~dfsg1-0ubuntu1
 l_dnaaGetDna@Base 9.55.0~dfsg1-0ubuntu1
 l_dnaaGetDnaCount@Base 9.55.0~dfsg1-0ubuntu1
 l_dnaaGetNumberCount@Base 9.55.0~dfsg1-0ubuntu1
 l_dnaaGetValue@Base 9.55.0~dfsg1-0ubuntu1
 l_dnaaRead@Base 9.55.0~dfsg1-0ubuntu1
 l_dnaaReadStream@Base 9.55.0~dfsg1-0ubuntu1
 l_dnaaReplaceDna@Base 9.55.0~dfsg1-0ubuntu1
 l_dnaaTruncate@Base 9.55.0~dfsg1-0ubuntu1
 l_dnaaWrite@Base 9.55.0~dfsg1-0ubuntu1
 l_dnaaWriteStream@Base 9.55.0~dfsg1-0ubuntu1
 l_fileDisplay@Base 9.55.0~dfsg1-0ubuntu1
 l_generateCIData@Base 9.55.0~dfsg1-0ubuntu1
 l_generateCIDataForPdf@Base 9.55.0~dfsg1-0ubuntu1
 l_generateFlateData@Base 9.55.0~dfsg1-0ubuntu1
 l_generateFlateDataPdf@Base 9.55.0~dfsg1-0ubuntu1
 l_generateG4Data@Base 9.55.0~dfsg1-0ubuntu1
 l_generateJpegData@Base 9.55.0~dfsg1-0ubuntu1
 l_generateJpegDataMem@Base 9.55.0~dfsg1-0ubuntu1
 l_getCurrentTime@Base 9.55.0~dfsg1-0ubuntu1
 l_getDataBit@Base 9.55.0~dfsg1-0ubuntu1
 l_getDataByte@Base 9.55.0~dfsg1-0ubuntu1
 l_getDataDibit@Base 9.55.0~dfsg1-0ubuntu1
 l_getDataFourBytes@Base 9.55.0~dfsg1-0ubuntu1
 l_getDataQbit@Base 9.55.0~dfsg1-0ubuntu1
 l_getDataTwoBytes@Base 9.55.0~dfsg1-0ubuntu1
 l_getFormattedDate@Base 9.55.0~dfsg1-0ubuntu1
 l_getStructStrFromFile@Base 9.55.0~dfsg1-0ubuntu1
 l_hashFloat64ToUint64@Base 9.55.0~dfsg1-0ubuntu1
 l_hashPtToUint64@Base 9.55.0~dfsg1-0ubuntu1
 l_hashStringToUint64@Base 9.55.0~dfsg1-0ubuntu1
 l_jpegSetQuality@Base 9.55.0~dfsg1-0ubuntu1
 l_makeTempFilename@Base 9.55.0~dfsg1-0ubuntu1
 l_pdfSetDateAndVersion@Base 9.55.0~dfsg1-0ubuntu1
 l_pdfSetG4ImageMask@Base 9.55.0~dfsg1-0ubuntu1
 l_pngSetReadStrip16To8@Base 9.55.0~dfsg1-0ubuntu1
 l_productMat2@Base 9.55.0~dfsg1-0ubuntu1
 l_productMat3@Base 9.55.0~dfsg1-0ubuntu1
 l_productMat4@Base 9.55.0~dfsg1-0ubuntu1
 l_productMatVec@Base 9.55.0~dfsg1-0ubuntu1
 l_psWriteBoundingBox@Base 9.55.0~dfsg1-0ubuntu1
 l_rbtreeCreate@Base 9.55.0~dfsg1-0ubuntu1
 l_rbtreeDelete@Base 9.55.0~dfsg1-0ubuntu1
 l_rbtreeDestroy@Base 9.55.0~dfsg1-0ubuntu1
 l_rbtreeGetCount@Base 9.55.0~dfsg1-0ubuntu1
 l_rbtreeGetFirst@Base 9.55.0~dfsg1-0ubuntu1
 l_rbtreeGetLast@Base 9.55.0~dfsg1-0ubuntu1
 l_rbtreeGetNext@Base 9.55.0~dfsg1-0ubuntu1
 l_rbtreeGetPrev@Base 9.55.0~dfsg1-0ubuntu1
 l_rbtreeInsert@Base 9.55.0~dfsg1-0ubuntu1
 l_rbtreeLookup@Base 9.55.0~dfsg1-0ubuntu1
 l_rbtreePrint@Base 9.55.0~dfsg1-0ubuntu1
 l_setAlphaMaskBorder@Base 9.55.0~dfsg1-0ubuntu1
 l_setConvolveSampling@Base 9.55.0~dfsg1-0ubuntu1
 l_setDataBit@Base 9.55.0~dfsg1-0ubuntu1
 l_setDataBitVal@Base 9.55.0~dfsg1-0ubuntu1
 l_setDataByte@Base 9.55.0~dfsg1-0ubuntu1
 l_setDataDibit@Base 9.55.0~dfsg1-0ubuntu1
 l_setDataFourBytes@Base 9.55.0~dfsg1-0ubuntu1
 l_setDataQbit@Base 9.55.0~dfsg1-0ubuntu1
 l_setDataTwoBytes@Base 9.55.0~dfsg1-0ubuntu1
 l_setNeutralBoostVal@Base 9.55.0~dfsg1-0ubuntu1
 l_uncompressGrayHistograms@Base 9.55.0~dfsg1-0ubuntu1
 leptSetStderrHandler@Base 9.55.0~dfsg1-0ubuntu1
 lept_calloc@Base 9.55.0~dfsg1-0ubuntu1
 lept_cp@Base 9.55.0~dfsg1-0ubuntu1
 lept_direxists@Base 9.55.0~dfsg1-0ubuntu1
 lept_fclose@Base 9.55.0~dfsg1-0ubuntu1
 lept_fopen@Base 9.55.0~dfsg1-0ubuntu1
 lept_free@Base 9.55.0~dfsg1-0ubuntu1
 lept_isPrime@Base 9.55.0~dfsg1-0ubuntu1
 lept_mkdir@Base 9.55.0~dfsg1-0ubuntu1
 lept_mv@Base 9.55.0~dfsg1-0ubuntu1
 lept_rm@Base 9.55.0~dfsg1-0ubuntu1
 lept_rm_match@Base 9.55.0~dfsg1-0ubuntu1
 lept_rmdir@Base 9.55.0~dfsg1-0ubuntu1
 lept_rmfile@Base 9.55.0~dfsg1-0ubuntu1
 lept_roundftoi@Base 9.55.0~dfsg1-0ubuntu1
 lept_stderr@Base 9.55.0~dfsg1-0ubuntu1
 leptonica_calloc@Base 9.55.0~dfsg1-0ubuntu1
 leptonica_free@Base 9.55.0~dfsg1-0ubuntu1
 leptonica_malloc@Base 9.55.0~dfsg1-0ubuntu1
 leptonica_realloc@Base 9.55.0~dfsg1-0ubuntu1
 lheapAdd@Base 9.55.0~dfsg1-0ubuntu1
 lheapCreate@Base 9.55.0~dfsg1-0ubuntu1
 lheapDestroy@Base 9.55.0~dfsg1-0ubuntu1
 lheapGetCount@Base 9.55.0~dfsg1-0ubuntu1
 lheapGetElement@Base 9.55.0~dfsg1-0ubuntu1
 lheapPrint@Base 9.55.0~dfsg1-0ubuntu1
 lheapRemove@Base 9.55.0~dfsg1-0ubuntu1
 lheapSort@Base 9.55.0~dfsg1-0ubuntu1
 lheapSortStrictOrder@Base 9.55.0~dfsg1-0ubuntu1
 lib_file_open@Base 8.61.dfsg.1
 lib_fopen@Base 8.61.dfsg.1
 lineEndianByteSwap@Base 9.55.0~dfsg1-0ubuntu1
 linearInterpolatePixelColor@Base 9.55.0~dfsg1-0ubuntu1
 linearInterpolatePixelFloat@Base 9.55.0~dfsg1-0ubuntu1
 linearInterpolatePixelGray@Base 9.55.0~dfsg1-0ubuntu1
 linearScaleRGBVal@Base 9.55.0~dfsg1-0ubuntu1
 lips_media_selection@Base 8.61.dfsg.1
 lips_mode3format_encode@Base 8.61.dfsg.1
 lips_packbits_encode@Base 8.61.dfsg.1
 lips_rle_encode@Base 8.61.dfsg.1
 listAddToHead@Base 9.55.0~dfsg1-0ubuntu1
 listAddToTail@Base 9.55.0~dfsg1-0ubuntu1
 listDestroy@Base 9.55.0~dfsg1-0ubuntu1
 listFindElement@Base 9.55.0~dfsg1-0ubuntu1
 listFindTail@Base 9.55.0~dfsg1-0ubuntu1
 listGetCount@Base 9.55.0~dfsg1-0ubuntu1
 listInsertAfter@Base 9.55.0~dfsg1-0ubuntu1
 listInsertBefore@Base 9.55.0~dfsg1-0ubuntu1
 listJoin@Base 9.55.0~dfsg1-0ubuntu1
 listRemoveElement@Base 9.55.0~dfsg1-0ubuntu1
 listRemoveFromHead@Base 9.55.0~dfsg1-0ubuntu1
 listRemoveFromTail@Base 9.55.0~dfsg1-0ubuntu1
 listReverse@Base 9.55.0~dfsg1-0ubuntu1
 load_transfer_map@Base 8.61.dfsg.1
 local_restore_stream_state@Base 9.55.0~dfsg
 local_save_stream_state@Base 9.55.0~dfsg
 locale_to_utf8@Base 9.55.0~dfsg
 locatePtRadially@Base 9.55.0~dfsg1-0ubuntu1
 logScaleRGBVal@Base 9.55.0~dfsg1-0ubuntu1
 lookup4x1to32_identity@Base 8.61.dfsg.1
 lookup4x1to32_inverted@Base 8.61.dfsg.1
 lookup_gs_simple_font_encoding@Base 8.61.dfsg.1
 lookup_indexed_map@Base 8.61.dfsg.1
 lprintf_file_and_line@Base 8.61.dfsg.1
 lprn_get_params@Base 8.61.dfsg.1
 lprn_print_image@Base 8.61.dfsg.1
 lprn_put_params@Base 8.61.dfsg.1
 lqueueAdd@Base 9.55.0~dfsg1-0ubuntu1
 lqueueCreate@Base 9.55.0~dfsg1-0ubuntu1
 lqueueDestroy@Base 9.55.0~dfsg1-0ubuntu1
 lqueueGetCount@Base 9.55.0~dfsg1-0ubuntu1
 lqueuePrint@Base 9.55.0~dfsg1-0ubuntu1
 lqueueRemove@Base 9.55.0~dfsg1-0ubuntu1
 lstackAdd@Base 9.55.0~dfsg1-0ubuntu1
 lstackCreate@Base 9.55.0~dfsg1-0ubuntu1
 lstackDestroy@Base 9.55.0~dfsg1-0ubuntu1
 lstackGetCount@Base 9.55.0~dfsg1-0ubuntu1
 lstackPrint@Base 9.55.0~dfsg1-0ubuntu1
 lstackRemove@Base 9.55.0~dfsg1-0ubuntu1
 makeDoGKernel@Base 9.55.0~dfsg1-0ubuntu1
 makeFlatKernel@Base 9.55.0~dfsg1-0ubuntu1
 makeGaussianKernel@Base 9.55.0~dfsg1-0ubuntu1
 makeGaussianKernelSep@Base 9.55.0~dfsg1-0ubuntu1
 makeGrayQuantIndexTable@Base 9.55.0~dfsg1-0ubuntu1
 makeGrayQuantTableArb@Base 9.55.0~dfsg1-0ubuntu1
 makeLogBase2Tab@Base 9.55.0~dfsg1-0ubuntu1
 makeMSBitLocTab@Base 9.55.0~dfsg1-0ubuntu1
 makeMosaicStrips@Base 9.55.0~dfsg1-0ubuntu1
 makePixelCentroidTab8@Base 9.55.0~dfsg1-0ubuntu1
 makePixelSumTab8@Base 9.55.0~dfsg1-0ubuntu1
 makePlotPtaFromNuma@Base 9.55.0~dfsg1-0ubuntu1
 makePlotPtaFromNumaGen@Base 9.55.0~dfsg1-0ubuntu1
 makeRGBIndexTables@Base 9.55.0~dfsg1-0ubuntu1
 makeRGBToIndexTables@Base 9.55.0~dfsg1-0ubuntu1
 makeRangeKernel@Base 9.55.0~dfsg1-0ubuntu1
 makeSubsampleTab2x@Base 9.55.0~dfsg1-0ubuntu1
 makeTempDirname@Base 9.55.0~dfsg1-0ubuntu1
 make_floats@Base 8.61.dfsg.1
 make_invalid_file@Base 8.61.dfsg.1
 make_packed_array@Base 8.61.dfsg.1
 make_quadrant_arc@Base 8.61.dfsg.1
 make_reals@Base 8.61.dfsg.1
 make_rss@Base 8.71~dfsg
 make_sampled_function@Base 8.64~dfsg
 make_stream_file@Base 8.61.dfsg.1
 make_type4_function@Base 8.64~dfsg
 map_devn_using_function@Base 8.61.dfsg.1
 mark_font_descriptor_symbolic@Base 8.71~dfsg
 matrix2@Base 8.61.dfsg.1
 matrix_equal@Base 9.21~dfsg
 media@Base 8.61.dfsg.1
 mem_close@Base 8.61.dfsg.1
 mem_default_strip_copy_rop2@Base 9.05~
 mem_dev_initialize_device_procs@Base 9.55.0~dfsg
 mem_draw_thin_line@Base 8.61.dfsg.1
 mem_get_bits_rectangle@Base 8.61.dfsg.1
 mem_get_initial_matrix@Base 8.61.dfsg.1
 mem_gray8_rgb24_strip_copy_rop2@Base 9.55.0~dfsg
 mem_gray_strip_copy_rop2@Base 9.55.0~dfsg
 mem_initialize_device_procs@Base 9.55.0~dfsg
 mem_mapped2_device@Base 8.61.dfsg.1
 mem_mapped2_word_device@Base 8.61.dfsg.1
 mem_mapped4_device@Base 8.61.dfsg.1
 mem_mapped4_word_device@Base 8.61.dfsg.1
 mem_mapped8_device@Base 8.61.dfsg.1
 mem_mapped8_word_device@Base 8.61.dfsg.1
 mem_mapped_map_color_rgb@Base 8.61.dfsg.1
 mem_mapped_map_rgb_color@Base 8.61.dfsg.1
 mem_mono_b_w_palette@Base 8.61.dfsg.1
 mem_mono_copy_mono@Base 9.55.0~dfsg
 mem_mono_device@Base 8.61.dfsg.1
 mem_mono_fill_rectangle@Base 9.55.0~dfsg
 mem_mono_strip_copy_rop2@Base 9.55.0~dfsg
 mem_mono_strip_copy_rop2_dev@Base 9.55.0~dfsg
 mem_mono_w_b_palette@Base 8.61.dfsg.1
 mem_mono_word_device@Base 8.61.dfsg.1
 mem_open@Base 8.61.dfsg.1
 mem_swap_byte_rect@Base 8.61.dfsg.1
 mem_transform_pixel_region@Base 9.26~dfsg
 mem_true16_device@Base 8.61.dfsg.1
 mem_true24_device@Base 8.61.dfsg.1
 mem_true24_word_device@Base 8.61.dfsg.1
 mem_true32_device@Base 8.61.dfsg.1
 mem_true32_word_device@Base 8.61.dfsg.1
 mem_true40_device@Base 8.61.dfsg.1
 mem_true40_word_device@Base 8.61.dfsg.1
 mem_true48_device@Base 8.61.dfsg.1
 mem_true48_word_device@Base 8.61.dfsg.1
 mem_true56_device@Base 8.61.dfsg.1
 mem_true56_word_device@Base 8.61.dfsg.1
 mem_true64_device@Base 8.61.dfsg.1
 mem_true64_word_device@Base 8.61.dfsg.1
 mem_word_dev_initialize_device_procs@Base 9.55.0~dfsg
 mem_word_get_bits_rectangle@Base 8.61.dfsg.1
 mem_x_device@Base 9.06~dfsg
 memflip8x8@Base 8.61.dfsg.1
 mesh_init_fill_state@Base 8.61.dfsg.1
 mesh_padding@Base 8.61.dfsg.1
 mesh_triangle@Base 8.61.dfsg.1
 mgr_8bit_map_color_rgb@Base 8.61.dfsg.1
 mgr_8bit_map_rgb_color@Base 8.61.dfsg.1
 min_feature_size_dnit@Base 9.01~
 min_feature_size_init@Base 9.01~
 min_feature_size_process@Base 9.01~
 mlprintf_file_and_line@Base 9.10~dfsg
 modifyTrailingSlash@Base 9.55.0~dfsg1-0ubuntu1
 mono_copy_masks@Base 8.61.dfsg.1
 mono_fill_masks@Base 8.61.dfsg.1
 morphSequenceVerify@Base 9.55.0~dfsg1-0ubuntu1
 ms_find_code_from_name@Base 8.61.dfsg.1
 ms_find_name_from_code@Base 8.61.dfsg.1
 ms_find_size_from_code@Base 8.61.dfsg.1
 name_max_string@Base 8.61.dfsg.1
 named_color_equivalent_cmyk_colors@Base 9.16~dfsg
 names_enter_string@Base 8.61.dfsg.1
 names_free@Base 9.21~dfsg
 names_from_string@Base 8.61.dfsg.1
 names_index@Base 8.61.dfsg.1
 names_index_ptr@Base 8.61.dfsg.1
 names_index_ref@Base 8.61.dfsg.1
 names_index_string_sub_table@Base 8.61.dfsg.1
 names_index_sub_table@Base 8.61.dfsg.1
 names_init@Base 8.61.dfsg.1
 names_invalidate_value_cache@Base 8.61.dfsg.1
 names_mark_index@Base 8.61.dfsg.1
 names_memory@Base 8.61.dfsg.1
 names_next_valid_index@Base 8.61.dfsg.1
 names_ref@Base 8.61.dfsg.1
 names_ref_sub_table@Base 8.61.dfsg.1
 names_restore@Base 8.61.dfsg.1
 names_string_ref@Base 8.61.dfsg.1
 names_trace_finish@Base 8.61.dfsg.1
 names_unmark_all@Base 8.61.dfsg.1
 nbytesInFile@Base 9.55.0~dfsg1-0ubuntu1
 new_pattern_trans_buff@Base 8.70~
 new_resize_input@Base 9.10~dfsg
 new_setup_image_filters@Base 9.10~dfsg
 new_setup_lossless_filters@Base 9.10~dfsg
 nextOnPixelInRaster@Base 9.55.0~dfsg1-0ubuntu1
 normalize_rectangle@Base 9.55.0~dfsg
 num_array_format@Base 8.61.dfsg.1
 num_array_get@Base 8.61.dfsg.1
 num_array_size@Base 8.61.dfsg.1
 num_params@Base 8.61.dfsg.1
 numaAddBorder@Base 9.55.0~dfsg1-0ubuntu1
 numaAddNumber@Base 9.55.0~dfsg1-0ubuntu1
 numaAddSorted@Base 9.55.0~dfsg1-0ubuntu1
 numaAddSpecifiedBorder@Base 9.55.0~dfsg1-0ubuntu1
 numaAddToNumber@Base 9.55.0~dfsg1-0ubuntu1
 numaArithOp@Base 9.55.0~dfsg1-0ubuntu1
 numaBinSort@Base 9.55.0~dfsg1-0ubuntu1
 numaChangeRefcount@Base 9.55.0~dfsg1-0ubuntu1
 numaChooseSortType@Base 9.55.0~dfsg1-0ubuntu1
 numaClipToInterval@Base 9.55.0~dfsg1-0ubuntu1
 numaClone@Base 9.55.0~dfsg1-0ubuntu1
 numaClose@Base 9.55.0~dfsg1-0ubuntu1
 numaContrastTRC@Base 9.55.0~dfsg1-0ubuntu1
 numaConvertToDna@Base 9.55.0~dfsg1-0ubuntu1
 numaConvertToInt@Base 9.55.0~dfsg1-0ubuntu1
 numaConvertToPta1@Base 9.55.0~dfsg1-0ubuntu1
 numaConvertToPta2@Base 9.55.0~dfsg1-0ubuntu1
 numaConvertToSarray@Base 9.55.0~dfsg1-0ubuntu1
 numaCopy@Base 9.55.0~dfsg1-0ubuntu1
 numaCopyParameters@Base 9.55.0~dfsg1-0ubuntu1
 numaCountNonzeroRuns@Base 9.55.0~dfsg1-0ubuntu1
 numaCountReversals@Base 9.55.0~dfsg1-0ubuntu1
 numaCreate@Base 9.55.0~dfsg1-0ubuntu1
 numaCreateFromFArray@Base 9.55.0~dfsg1-0ubuntu1
 numaCreateFromIArray@Base 9.55.0~dfsg1-0ubuntu1
 numaCreateFromString@Base 9.55.0~dfsg1-0ubuntu1
 numaCrossingsByPeaks@Base 9.55.0~dfsg1-0ubuntu1
 numaCrossingsByThreshold@Base 9.55.0~dfsg1-0ubuntu1
 numaDestroy@Base 9.55.0~dfsg1-0ubuntu1
 numaDifferentiateInterval@Base 9.55.0~dfsg1-0ubuntu1
 numaDilate@Base 9.55.0~dfsg1-0ubuntu1
 numaDiscretizeHistoInBins@Base 9.55.0~dfsg1-0ubuntu1
 numaDiscretizeSortedInBins@Base 9.55.0~dfsg1-0ubuntu1
 numaEarthMoverDistance@Base 9.55.0~dfsg1-0ubuntu1
 numaEmpty@Base 9.55.0~dfsg1-0ubuntu1
 numaEqualizeTRC@Base 9.55.0~dfsg1-0ubuntu1
 numaErode@Base 9.55.0~dfsg1-0ubuntu1
 numaEvalBestHaarParameters@Base 9.55.0~dfsg1-0ubuntu1
 numaEvalHaarSum@Base 9.55.0~dfsg1-0ubuntu1
 numaFindExtrema@Base 9.55.0~dfsg1-0ubuntu1
 numaFindLocForThreshold@Base 9.55.0~dfsg1-0ubuntu1
 numaFindPeaks@Base 9.55.0~dfsg1-0ubuntu1
 numaFindSortedLoc@Base 9.55.0~dfsg1-0ubuntu1
 numaFitMax@Base 9.55.0~dfsg1-0ubuntu1
 numaGammaTRC@Base 9.55.0~dfsg1-0ubuntu1
 numaGetBinSortIndex@Base 9.55.0~dfsg1-0ubuntu1
 numaGetBinnedMedian@Base 9.55.0~dfsg1-0ubuntu1
 numaGetCount@Base 9.55.0~dfsg1-0ubuntu1
 numaGetCountRelativeToZero@Base 9.55.0~dfsg1-0ubuntu1
 numaGetEdgeValues@Base 9.55.0~dfsg1-0ubuntu1
 numaGetFArray@Base 9.55.0~dfsg1-0ubuntu1
 numaGetFValue@Base 9.55.0~dfsg1-0ubuntu1
 numaGetHistogramStats@Base 9.55.0~dfsg1-0ubuntu1
 numaGetHistogramStatsOnInterval@Base 9.55.0~dfsg1-0ubuntu1
 numaGetIArray@Base 9.55.0~dfsg1-0ubuntu1
 numaGetIValue@Base 9.55.0~dfsg1-0ubuntu1
 numaGetMax@Base 9.55.0~dfsg1-0ubuntu1
 numaGetMeanDevFromMedian@Base 9.55.0~dfsg1-0ubuntu1
 numaGetMedian@Base 9.55.0~dfsg1-0ubuntu1
 numaGetMedianDevFromMedian@Base 9.55.0~dfsg1-0ubuntu1
 numaGetMin@Base 9.55.0~dfsg1-0ubuntu1
 numaGetMode@Base 9.55.0~dfsg1-0ubuntu1
 numaGetNonzeroRange@Base 9.55.0~dfsg1-0ubuntu1
 numaGetParameters@Base 9.55.0~dfsg1-0ubuntu1
 numaGetPartialSums@Base 9.55.0~dfsg1-0ubuntu1
 numaGetRankBinValues@Base 9.55.0~dfsg1-0ubuntu1
 numaGetRankValue@Base 9.55.0~dfsg1-0ubuntu1
 numaGetRefcount@Base 9.55.0~dfsg1-0ubuntu1
 numaGetSortIndex@Base 9.55.0~dfsg1-0ubuntu1
 numaGetSpanValues@Base 9.55.0~dfsg1-0ubuntu1
 numaGetStatsUsingHistogram@Base 9.55.0~dfsg1-0ubuntu1
 numaGetSum@Base 9.55.0~dfsg1-0ubuntu1
 numaGetSumOnInterval@Base 9.55.0~dfsg1-0ubuntu1
 numaGetUniformBinSizes@Base 9.55.0~dfsg1-0ubuntu1
 numaHasOnlyIntegers@Base 9.55.0~dfsg1-0ubuntu1
 numaHistogramGetRankFromVal@Base 9.55.0~dfsg1-0ubuntu1
 numaHistogramGetValFromRank@Base 9.55.0~dfsg1-0ubuntu1
 numaInsertNumber@Base 9.55.0~dfsg1-0ubuntu1
 numaIntegrateInterval@Base 9.55.0~dfsg1-0ubuntu1
 numaInterpolateArbxInterval@Base 9.55.0~dfsg1-0ubuntu1
 numaInterpolateArbxVal@Base 9.55.0~dfsg1-0ubuntu1
 numaInterpolateEqxInterval@Base 9.55.0~dfsg1-0ubuntu1
 numaInterpolateEqxVal@Base 9.55.0~dfsg1-0ubuntu1
 numaInvert@Base 9.55.0~dfsg1-0ubuntu1
 numaInvertMap@Base 9.55.0~dfsg1-0ubuntu1
 numaIsSorted@Base 9.55.0~dfsg1-0ubuntu1
 numaJoin@Base 9.55.0~dfsg1-0ubuntu1
 numaLogicalOp@Base 9.55.0~dfsg1-0ubuntu1
 numaLowPassIntervals@Base 9.55.0~dfsg1-0ubuntu1
 numaMakeAbsValue@Base 9.55.0~dfsg1-0ubuntu1
 numaMakeConstant@Base 9.55.0~dfsg1-0ubuntu1
 numaMakeDelta@Base 9.55.0~dfsg1-0ubuntu1
 numaMakeHistogram@Base 9.55.0~dfsg1-0ubuntu1
 numaMakeHistogramAuto@Base 9.55.0~dfsg1-0ubuntu1
 numaMakeHistogramClipped@Base 9.55.0~dfsg1-0ubuntu1
 numaMakeRankFromHistogram@Base 9.55.0~dfsg1-0ubuntu1
 numaMakeSequence@Base 9.55.0~dfsg1-0ubuntu1
 numaMakeThresholdIndicator@Base 9.55.0~dfsg1-0ubuntu1
 numaNormalizeHistogram@Base 9.55.0~dfsg1-0ubuntu1
 numaOpen@Base 9.55.0~dfsg1-0ubuntu1
 numaPseudorandomSequence@Base 9.55.0~dfsg1-0ubuntu1
 numaRandomPermutation@Base 9.55.0~dfsg1-0ubuntu1
 numaRead@Base 9.55.0~dfsg1-0ubuntu1
 numaReadMem@Base 9.55.0~dfsg1-0ubuntu1
 numaReadStream@Base 9.55.0~dfsg1-0ubuntu1
 numaRebinHistogram@Base 9.55.0~dfsg1-0ubuntu1
 numaRemoveBorder@Base 9.55.0~dfsg1-0ubuntu1
 numaRemoveNumber@Base 9.55.0~dfsg1-0ubuntu1
 numaReplaceNumber@Base 9.55.0~dfsg1-0ubuntu1
 numaReverse@Base 9.55.0~dfsg1-0ubuntu1
 numaSelectCrossingThreshold@Base 9.55.0~dfsg1-0ubuntu1
 numaSetCount@Base 9.55.0~dfsg1-0ubuntu1
 numaSetParameters@Base 9.55.0~dfsg1-0ubuntu1
 numaSetValue@Base 9.55.0~dfsg1-0ubuntu1
 numaShiftValue@Base 9.55.0~dfsg1-0ubuntu1
 numaSimilar@Base 9.55.0~dfsg1-0ubuntu1
 numaSimpleStats@Base 9.55.0~dfsg1-0ubuntu1
 numaSort@Base 9.55.0~dfsg1-0ubuntu1
 numaSortAutoSelect@Base 9.55.0~dfsg1-0ubuntu1
 numaSortByIndex@Base 9.55.0~dfsg1-0ubuntu1
 numaSortGeneral@Base 9.55.0~dfsg1-0ubuntu1
 numaSortIndexAutoSelect@Base 9.55.0~dfsg1-0ubuntu1
 numaSortPair@Base 9.55.0~dfsg1-0ubuntu1
 numaSplitDistribution@Base 9.55.0~dfsg1-0ubuntu1
 numaSubsample@Base 9.55.0~dfsg1-0ubuntu1
 numaThresholdEdges@Base 9.55.0~dfsg1-0ubuntu1
 numaTransform@Base 9.55.0~dfsg1-0ubuntu1
 numaUniformSampling@Base 9.55.0~dfsg1-0ubuntu1
 numaWindowedMean@Base 9.55.0~dfsg1-0ubuntu1
 numaWindowedMeanSquare@Base 9.55.0~dfsg1-0ubuntu1
 numaWindowedMedian@Base 9.55.0~dfsg1-0ubuntu1
 numaWindowedStats@Base 9.55.0~dfsg1-0ubuntu1
 numaWindowedVariance@Base 9.55.0~dfsg1-0ubuntu1
 numaWrite@Base 9.55.0~dfsg1-0ubuntu1
 numaWriteDebug@Base 9.55.0~dfsg1-0ubuntu1
 numaWriteMem@Base 9.55.0~dfsg1-0ubuntu1
 numaWriteStderr@Base 9.55.0~dfsg1-0ubuntu1
 numaWriteStream@Base 9.55.0~dfsg1-0ubuntu1
 numaaAddNuma@Base 9.55.0~dfsg1-0ubuntu1
 numaaAddNumber@Base 9.55.0~dfsg1-0ubuntu1
 numaaCompareImagesByBoxes@Base 9.55.0~dfsg1-0ubuntu1
 numaaCreate@Base 9.55.0~dfsg1-0ubuntu1
 numaaCreateFull@Base 9.55.0~dfsg1-0ubuntu1
 numaaDestroy@Base 9.55.0~dfsg1-0ubuntu1
 numaaFlattenToNuma@Base 9.55.0~dfsg1-0ubuntu1
 numaaGetCount@Base 9.55.0~dfsg1-0ubuntu1
 numaaGetNuma@Base 9.55.0~dfsg1-0ubuntu1
 numaaGetNumaCount@Base 9.55.0~dfsg1-0ubuntu1
 numaaGetNumberCount@Base 9.55.0~dfsg1-0ubuntu1
 numaaGetPtrArray@Base 9.55.0~dfsg1-0ubuntu1
 numaaGetValue@Base 9.55.0~dfsg1-0ubuntu1
 numaaJoin@Base 9.55.0~dfsg1-0ubuntu1
 numaaRead@Base 9.55.0~dfsg1-0ubuntu1
 numaaReadMem@Base 9.55.0~dfsg1-0ubuntu1
 numaaReadStream@Base 9.55.0~dfsg1-0ubuntu1
 numaaReplaceNuma@Base 9.55.0~dfsg1-0ubuntu1
 numaaTruncate@Base 9.55.0~dfsg1-0ubuntu1
 numaaWrite@Base 9.55.0~dfsg1-0ubuntu1
 numaaWriteMem@Base 9.55.0~dfsg1-0ubuntu1
 numaaWriteStream@Base 9.55.0~dfsg1-0ubuntu1
 obj_cvp@Base 8.61.dfsg.1
 obj_cvs@Base 8.61.dfsg.1
 obj_eq@Base 8.61.dfsg.1
 obj_ident_eq@Base 8.61.dfsg.1
 obj_init@Base 8.61.dfsg.1
 obj_str_dispatch@Base 9.55.0~dfsg
 obj_string_data@Base 8.61.dfsg.1
 ocr_bitmap_to_unicodes@Base 9.55.0~dfsg1-0ubuntu1
 ocr_fin_api@Base 9.55.0~dfsg1-0ubuntu1
 ocr_image_to_hocr@Base 9.55.0~dfsg1-0ubuntu1
 ocr_image_to_utf8@Base 9.55.0~dfsg1-0ubuntu1
 ocr_init_api@Base 9.55.0~dfsg1-0ubuntu1
 ocr_recognise@Base 9.55.0~dfsg1-0ubuntu1
 op_def_count@Base 8.61.dfsg.1
 op_defs_all@Base 8.61.dfsg.1
 op_find_index@Base 8.61.dfsg.1
 op_index_ref@Base 8.61.dfsg.1
 op_init@Base 8.61.dfsg.1
 op_show_continue@Base 8.61.dfsg.1
 op_show_continue_dispatch@Base 8.61.dfsg.1
 op_show_continue_pop@Base 8.61.dfsg.1
 op_show_enum_setup@Base 8.61.dfsg.1
 op_show_find@Base 8.61.dfsg.1
 op_show_finish_setup@Base 8.61.dfsg.1
 op_show_free@Base 8.61.dfsg.1
 op_show_setup@Base 8.61.dfsg.1
 opdfread_ps@Base 9.01~
 outflush@Base 8.61.dfsg.1
 outprintf@Base 8.61.dfsg.1
 outwrite@Base 8.61.dfsg.1
 pSHA256_Data@Base 9.15~dfsg
 pSHA256_End@Base 9.15~dfsg
 pSHA256_Final@Base 9.05~
 pSHA256_Init@Base 9.05~
 pSHA256_Transform@Base 9.05~
 pSHA256_Update@Base 9.05~
 pSHA384_Data@Base 9.15~dfsg
 pSHA384_End@Base 9.15~dfsg
 pSHA384_Final@Base 9.15~dfsg
 pSHA384_Init@Base 9.15~dfsg
 pSHA384_Update@Base 9.15~dfsg
 pSHA512_Data@Base 9.15~dfsg
 pSHA512_End@Base 9.15~dfsg
 pSHA512_Final@Base 9.15~dfsg
 pSHA512_Init@Base 9.15~dfsg
 pSHA512_Last@Base 9.15~dfsg
 pSHA512_Transform@Base 9.05~
 pSHA512_Update@Base 9.15~dfsg
 packed_get@Base 8.61.dfsg.1
 pantone_op_defs@Base 8.61.dfsg.1
 paperTable@Base 9.53.3~dfsg-7~
 paramStringToParam@Base 8.61.dfsg.1
 paramValueToParam@Base 8.61.dfsg.1
 param_check_password@Base 8.61.dfsg.1
 param_coerce_typed@Base 8.61.dfsg.1
 param_get_cie_render1@Base 8.61.dfsg.1
 param_init_enumerator@Base 8.61.dfsg.1
 param_list_copy@Base 8.61.dfsg.1
 param_printer_params_default@Base 8.61.dfsg.1
 param_put_bool@Base 8.61.dfsg.1
 param_put_cie_render1@Base 8.61.dfsg.1
 param_put_enum@Base 8.61.dfsg.1
 param_put_int@Base 8.61.dfsg.1
 param_put_long@Base 8.61.dfsg.1
 param_read_bool@Base 8.61.dfsg.1
 param_read_float@Base 8.61.dfsg.1
 param_read_float_array@Base 8.61.dfsg.1
 param_read_i64@Base 9.53.0~dfsg
 param_read_int@Base 8.61.dfsg.1
 param_read_int_array@Base 8.61.dfsg.1
 param_read_long@Base 8.61.dfsg.1
 param_read_name@Base 8.61.dfsg.1
 param_read_name_array@Base 8.61.dfsg.1
 param_read_null@Base 8.61.dfsg.1
